---
triple:          'arm64-apple-darwin'
binary-path:     '/Users/pob08/Desktop/cpp/RouteMapper/main'
relocations:
  - { offsetInCU: 0x5C, offset: 0x5C, size: 0x8, addend: 0x0, symName: __ZNSt3__1L19piecewise_constructE, symObjAddr: 0xF7C5, symBinAddr: 0x1000133C8, symSize: 0x0 }
  - { offsetInCU: 0xE1A3, offset: 0xE1A3, size: 0x8, addend: 0x0, symName: __ZNSt3__124__put_character_sequenceB8ue170006IcNS_11char_traitsIcEEEERNS_13basic_ostreamIT_T0_EES7_PKS4_m, symObjAddr: 0xE5AC, symBinAddr: 0x100011E78, symSize: 0x1EC }
  - { offsetInCU: 0xFF80, offset: 0xFF80, size: 0x8, addend: 0x0, symName: __ZNSt3__1lsB8ue170006INS_11char_traitsIcEEEERNS_13basic_ostreamIcT_EES6_PKc, symObjAddr: 0x6F8, symBinAddr: 0x100003FC4, symSize: 0x48 }
  - { offsetInCU: 0xFFC6, offset: 0xFFC6, size: 0x8, addend: 0x0, symName: __ZNSt3__1neB8ue170006IP7AddressEEbRKNS_11__wrap_iterIT_EES7_, symObjAddr: 0x858, symBinAddr: 0x100004124, symSize: 0x34 }
  - { offsetInCU: 0x10009, offset: 0x10009, size: 0x8, addend: 0x0, symName: __ZNSt3__1lsB8ue170006IcNS_11char_traitsIcEENS_9allocatorIcEEEERNS_13basic_ostreamIT_T0_EES9_RKNS_12basic_stringIS6_S7_T1_EE, symObjAddr: 0xAB4, symBinAddr: 0x100004380, symSize: 0x4C }
  - { offsetInCU: 0x10061, offset: 0x10061, size: 0x8, addend: 0x0, symName: __ZNSt3__112__to_addressB8ue170006I7AddressEEPT_S3_, symObjAddr: 0x16EC, symBinAddr: 0x100004FB8, symSize: 0x14 }
  - { offsetInCU: 0x10096, offset: 0x10096, size: 0x8, addend: 0x0, symName: __ZNSt3__13maxB8ue170006ImEERKT_S3_S3_, symObjAddr: 0x1C80, symBinAddr: 0x10000554C, symSize: 0x2C }
  - { offsetInCU: 0x100D9, offset: 0x100D9, size: 0x8, addend: 0x0, symName: __ZNSt3__13minB8ue170006ImEERKT_S3_S3_, symObjAddr: 0x1CAC, symBinAddr: 0x100005578, symSize: 0x2C }
  - { offsetInCU: 0x1031D, offset: 0x1031D, size: 0x8, addend: 0x0, symName: __ZNSt3__13minB8ue170006ImNS_6__lessIvvEEEERKT_S5_S5_T0_, symObjAddr: 0x1D38, symBinAddr: 0x100005604, symSize: 0x54 }
  - { offsetInCU: 0x103BC, offset: 0x103BC, size: 0x8, addend: 0x0, symName: __ZNSt3__120__throw_length_errorB8ue170006EPKc, symObjAddr: 0x1E14, symBinAddr: 0x1000056E0, symSize: 0x64 }
  - { offsetInCU: 0x103E6, offset: 0x103E6, size: 0x8, addend: 0x0, symName: __ZNSt3__13maxB8ue170006ImNS_6__lessIvvEEEERKT_S5_S5_T0_, symObjAddr: 0x1F58, symBinAddr: 0x100005824, symSize: 0x54 }
  - { offsetInCU: 0x10440, offset: 0x10440, size: 0x8, addend: 0x0, symName: __ZNSt3__119__allocate_at_leastB8ue170006INS_9allocatorI7AddressEEEENS_19__allocation_resultINS_16allocator_traitsIT_E7pointerEEERS6_m, symObjAddr: 0x20BC, symBinAddr: 0x100005988, symSize: 0x40 }
  - { offsetInCU: 0x10483, offset: 0x10483, size: 0x8, addend: 0x0, symName: __ZNSt3__117__libcpp_allocateB8ue170006Emm, symObjAddr: 0x2240, symBinAddr: 0x100005B0C, symSize: 0x28 }
  - { offsetInCU: 0x104C0, offset: 0x104C0, size: 0x8, addend: 0x0, symName: __ZNSt3__121__libcpp_operator_newB8ue170006IJmEEEPvDpT_, symObjAddr: 0x2268, symBinAddr: 0x100005B34, symSize: 0x24 }
  - { offsetInCU: 0x104F9, offset: 0x104F9, size: 0x8, addend: 0x0, symName: __ZNSt3__142__uninitialized_allocator_move_if_noexceptB8ue170006INS_9allocatorI7AddressEENS_16reverse_iteratorIPS2_EES6_S6_EET2_RT_T0_T1_S7_, symObjAddr: 0x23A8, symBinAddr: 0x100005C74, symSize: 0x12C }
  - { offsetInCU: 0x10599, offset: 0x10599, size: 0x8, addend: 0x0, symName: __ZNSt3__14swapB8ue170006IP7AddressEENS_9enable_ifIXaasr21is_move_constructibleIT_EE5valuesr18is_move_assignableIS4_EE5valueEvE4typeERS4_S7_, symObjAddr: 0x2520, symBinAddr: 0x100005DEC, symSize: 0x3C }
  - { offsetInCU: 0x105EA, offset: 0x105EA, size: 0x8, addend: 0x0, symName: __ZNSt3__122__make_exception_guardB8ue170006INS_29_AllocatorDestroyRangeReverseINS_9allocatorI7AddressEENS_16reverse_iteratorIPS3_EEEEEENS_28__exception_guard_exceptionsIT_EESA_, symObjAddr: 0x2650, symBinAddr: 0x100005F1C, symSize: 0x4C }
  - { offsetInCU: 0x10620, offset: 0x10620, size: 0x8, addend: 0x0, symName: __ZNSt3__1neB8ue170006IP7AddressS2_EEbRKNS_16reverse_iteratorIT_EERKNS3_IT0_EE, symObjAddr: 0x26E0, symBinAddr: 0x100005FAC, symSize: 0x48 }
  - { offsetInCU: 0x1066C, offset: 0x1066C, size: 0x8, addend: 0x0, symName: __ZNSt3__112__to_addressB8ue170006INS_16reverse_iteratorIP7AddressEEvEEu7__decayIDTclsr19__to_address_helperIT_EE6__callclsr3stdE7declvalIRKS5_EEEEES7_, symObjAddr: 0x2728, symBinAddr: 0x100005FF4, symSize: 0x24 }
  - { offsetInCU: 0x106CB, offset: 0x106CB, size: 0x8, addend: 0x0, symName: __ZNSt3__119__allocator_destroyB8ue170006INS_9allocatorI7AddressEENS_16reverse_iteratorINS4_IPS2_EEEES7_EEvRT_T0_T1_, symObjAddr: 0x29D8, symBinAddr: 0x1000062A4, symSize: 0x70 }
  - { offsetInCU: 0x10730, offset: 0x10730, size: 0x8, addend: 0x0, symName: __ZNSt3__1neB8ue170006INS_16reverse_iteratorIP7AddressEES4_EEbRKNS1_IT_EERKNS1_IT0_EE, symObjAddr: 0x2A84, symBinAddr: 0x100006350, symSize: 0x60 }
  - { offsetInCU: 0x1077C, offset: 0x1077C, size: 0x8, addend: 0x0, symName: __ZNSt3__112__to_addressB8ue170006INS_16reverse_iteratorINS1_IP7AddressEEEEvEEu7__decayIDTclsr19__to_address_helperIT_EE6__callclsr3stdE7declvalIRKS6_EEEEES8_, symObjAddr: 0x2B10, symBinAddr: 0x1000063DC, symSize: 0x24 }
  - { offsetInCU: 0x107DB, offset: 0x107DB, size: 0x8, addend: 0x0, symName: __ZNSt3__119__libcpp_deallocateB8ue170006EPvmm, symObjAddr: 0x2EC8, symBinAddr: 0x100006794, symSize: 0x30 }
  - { offsetInCU: 0x10823, offset: 0x10823, size: 0x8, addend: 0x0, symName: __ZNSt3__127__do_deallocate_handle_sizeB8ue170006IJEEEvPvmDpT_, symObjAddr: 0x2EF8, symBinAddr: 0x1000067C4, symSize: 0x28 }
  - { offsetInCU: 0x10861, offset: 0x10861, size: 0x8, addend: 0x0, symName: __ZNSt3__124__libcpp_operator_deleteB8ue170006IJPvEEEvDpT_, symObjAddr: 0x2F20, symBinAddr: 0x1000067EC, symSize: 0x24 }
  - { offsetInCU: 0x10896, offset: 0x10896, size: 0x8, addend: 0x0, symName: __ZNSt3__1neB8ue170006IPK7AddressEEbRKNS_11__wrap_iterIT_EES8_, symObjAddr: 0x303C, symBinAddr: 0x100006908, symSize: 0x34 }
  - { offsetInCU: 0x108D9, offset: 0x108D9, size: 0x8, addend: 0x0, symName: __ZNSt3__1eqB8ue170006IPK7AddressEEbRKNS_11__wrap_iterIT_EES8_, symObjAddr: 0x3198, symBinAddr: 0x100006A64, symSize: 0x48 }
  - { offsetInCU: 0x1091C, offset: 0x1091C, size: 0x8, addend: 0x0, symName: __ZNSt3__1eqB8ue170006IP7AddressEEbRKNS_11__wrap_iterIT_EES7_, symObjAddr: 0x33A0, symBinAddr: 0x100006C6C, symSize: 0x48 }
  - { offsetInCU: 0x1095F, offset: 0x1095F, size: 0x8, addend: 0x0, symName: __ZNSt3__112__to_addressB8ue170006INS_4pairI7AddressNS_6vectorINS1_IS2_dEENS_9allocatorIS4_EEEEEEEEPT_SA_, symObjAddr: 0x378C, symBinAddr: 0x100007058, symSize: 0x14 }
  - { offsetInCU: 0x10994, offset: 0x10994, size: 0x8, addend: 0x0, symName: __ZNSt3__119__allocate_at_leastB8ue170006INS_9allocatorINS_4pairI7AddressNS_6vectorINS2_IS3_dEENS1_IS5_EEEEEEEEEENS_19__allocation_resultINS_16allocator_traitsIT_E7pointerEEERSC_m, symObjAddr: 0x40C0, symBinAddr: 0x10000798C, symSize: 0x40 }
  - { offsetInCU: 0x109D7, offset: 0x109D7, size: 0x8, addend: 0x0, symName: __ZNSt3__142__uninitialized_allocator_move_if_noexceptB8ue170006INS_9allocatorINS_4pairI7AddressNS_6vectorINS2_IS3_dEENS1_IS5_EEEEEEEENS_16reverse_iteratorIPS8_EESC_SC_EET2_RT_T0_T1_SD_, symObjAddr: 0x434C, symBinAddr: 0x100007C18, symSize: 0x12C }
  - { offsetInCU: 0x10A77, offset: 0x10A77, size: 0x8, addend: 0x0, symName: __ZNSt3__14swapB8ue170006IPNS_4pairI7AddressNS_6vectorINS1_IS2_dEENS_9allocatorIS4_EEEEEEEENS_9enable_ifIXaasr21is_move_constructibleIT_EE5valuesr18is_move_assignableISB_EE5valueEvE4typeERSB_SE_, symObjAddr: 0x44C4, symBinAddr: 0x100007D90, symSize: 0x3C }
  - { offsetInCU: 0x10AC8, offset: 0x10AC8, size: 0x8, addend: 0x0, symName: __ZNSt3__122__make_exception_guardB8ue170006INS_29_AllocatorDestroyRangeReverseINS_9allocatorINS_4pairI7AddressNS_6vectorINS3_IS4_dEENS2_IS6_EEEEEEEENS_16reverse_iteratorIPS9_EEEEEENS_28__exception_guard_exceptionsIT_EESG_, symObjAddr: 0x4610, symBinAddr: 0x100007EDC, symSize: 0x4C }
  - { offsetInCU: 0x10AFE, offset: 0x10AFE, size: 0x8, addend: 0x0, symName: __ZNSt3__1neB8ue170006IPNS_4pairI7AddressNS_6vectorINS1_IS2_dEENS_9allocatorIS4_EEEEEES9_EEbRKNS_16reverse_iteratorIT_EERKNSA_IT0_EE, symObjAddr: 0x46A0, symBinAddr: 0x100007F6C, symSize: 0x48 }
  - { offsetInCU: 0x10B4A, offset: 0x10B4A, size: 0x8, addend: 0x0, symName: __ZNSt3__112__to_addressB8ue170006INS_16reverse_iteratorIPNS_4pairI7AddressNS_6vectorINS2_IS3_dEENS_9allocatorIS5_EEEEEEEEvEEu7__decayIDTclsr19__to_address_helperIT_EE6__callclsr3stdE7declvalIRKSC_EEEEESE_, symObjAddr: 0x46E8, symBinAddr: 0x100007FB4, symSize: 0x24 }
  - { offsetInCU: 0x10BA9, offset: 0x10BA9, size: 0x8, addend: 0x0, symName: __ZNSt3__119__allocator_destroyB8ue170006INS_9allocatorINS_4pairI7AddressNS_6vectorINS2_IS3_dEENS1_IS5_EEEEEEEENS_16reverse_iteratorINSA_IPS8_EEEESD_EEvRT_T0_T1_, symObjAddr: 0x4998, symBinAddr: 0x100008264, symSize: 0x70 }
  - { offsetInCU: 0x10C0E, offset: 0x10C0E, size: 0x8, addend: 0x0, symName: __ZNSt3__1neB8ue170006INS_16reverse_iteratorIPNS_4pairI7AddressNS_6vectorINS2_IS3_dEENS_9allocatorIS5_EEEEEEEESB_EEbRKNS1_IT_EERKNS1_IT0_EE, symObjAddr: 0x4A44, symBinAddr: 0x100008310, symSize: 0x60 }
  - { offsetInCU: 0x10C5A, offset: 0x10C5A, size: 0x8, addend: 0x0, symName: __ZNSt3__112__to_addressB8ue170006INS_16reverse_iteratorINS1_IPNS_4pairI7AddressNS_6vectorINS2_IS3_dEENS_9allocatorIS5_EEEEEEEEEEvEEu7__decayIDTclsr19__to_address_helperIT_EE6__callclsr3stdE7declvalIRKSD_EEEEESF_, symObjAddr: 0x4AD0, symBinAddr: 0x10000839C, symSize: 0x24 }
  - { offsetInCU: 0x10CB9, offset: 0x10CB9, size: 0x8, addend: 0x0, symName: __ZNSt3__122__make_exception_guardB8ue170006INS_6vectorINS_4pairI7AddressdEENS_9allocatorIS4_EEE16__destroy_vectorEEENS_28__exception_guard_exceptionsIT_EESA_, symObjAddr: 0x5294, symBinAddr: 0x100008B60, symSize: 0x40 }
  - { offsetInCU: 0x10CEE, offset: 0x10CEE, size: 0x8, addend: 0x0, symName: __ZNSt3__119__allocate_at_leastB8ue170006INS_9allocatorINS_4pairI7AddressdEEEEEENS_19__allocation_resultINS_16allocator_traitsIT_E7pointerEEERS8_m, symObjAddr: 0x5584, symBinAddr: 0x100008E50, symSize: 0x40 }
  - { offsetInCU: 0x10D31, offset: 0x10D31, size: 0x8, addend: 0x0, symName: __ZNSt3__112__to_addressB8ue170006INS_4pairI7AddressdEEEEPT_S5_, symObjAddr: 0x57AC, symBinAddr: 0x100009078, symSize: 0x14 }
  - { offsetInCU: 0x10D66, offset: 0x10D66, size: 0x8, addend: 0x0, symName: __ZNSt3__130__uninitialized_allocator_copyB8ue170006INS_9allocatorINS_4pairI7AddressdEEEEPS4_S6_S6_EET2_RT_T0_T1_S7_, symObjAddr: 0x585C, symBinAddr: 0x100009128, symSize: 0x80 }
  - { offsetInCU: 0x10E03, offset: 0x10E03, size: 0x8, addend: 0x0, symName: __ZNSt3__114__unwrap_rangeB8ue170006IPNS_4pairI7AddressdEES4_EENS1_IT0_S5_EET_S7_, symObjAddr: 0x5954, symBinAddr: 0x100009220, symSize: 0x60 }
  - { offsetInCU: 0x10E4F, offset: 0x10E4F, size: 0x8, addend: 0x0, symName: __ZNSt3__135__uninitialized_allocator_copy_implB8ue170006INS_9allocatorINS_4pairI7AddressdEEEEPS4_S6_S6_EET2_RT_T0_T1_S7_, symObjAddr: 0x59B4, symBinAddr: 0x100009280, symSize: 0xF4 }
  - { offsetInCU: 0x10EED, offset: 0x10EED, size: 0x8, addend: 0x0, symName: __ZNSt3__113__unwrap_iterB8ue170006IPNS_4pairI7AddressdEENS_18__unwrap_iter_implIS4_Lb1EEELi0EEEDTclsrT0_8__unwrapclsr3stdE7declvalIT_EEEES8_, symObjAddr: 0x5AA8, symBinAddr: 0x100009374, symSize: 0x24 }
  - { offsetInCU: 0x10F31, offset: 0x10F31, size: 0x8, addend: 0x0, symName: __ZNSt3__113__rewrap_iterB8ue170006IPNS_4pairI7AddressdEES4_NS_18__unwrap_iter_implIS4_Lb1EEEEET_S7_T0_, symObjAddr: 0x5ACC, symBinAddr: 0x100009398, symSize: 0x3C }
  - { offsetInCU: 0x10F86, offset: 0x10F86, size: 0x8, addend: 0x0, symName: __ZNSt3__19make_pairB8ue170006IPNS_4pairI7AddressdEES4_EENS1_INS_18__unwrap_ref_decayIT_E4typeENS5_IT0_E4typeEEEOS6_OS9_, symObjAddr: 0x5B08, symBinAddr: 0x1000093D4, symSize: 0x38 }
  - { offsetInCU: 0x110A9, offset: 0x110A9, size: 0x8, addend: 0x0, symName: __ZNSt3__122__make_exception_guardB8ue170006INS_29_AllocatorDestroyRangeReverseINS_9allocatorINS_4pairI7AddressdEEEEPS5_EEEENS_28__exception_guard_exceptionsIT_EESA_, symObjAddr: 0x5BB0, symBinAddr: 0x10000947C, symSize: 0x4C }
  - { offsetInCU: 0x110DF, offset: 0x110DF, size: 0x8, addend: 0x0, symName: __ZNSt3__119__allocator_destroyB8ue170006INS_9allocatorINS_4pairI7AddressdEEEENS_16reverse_iteratorIPS4_EES8_EEvRT_T0_T1_, symObjAddr: 0x5EB4, symBinAddr: 0x100009780, symSize: 0x70 }
  - { offsetInCU: 0x11142, offset: 0x11142, size: 0x8, addend: 0x0, symName: __ZNSt3__1neB8ue170006IPNS_4pairI7AddressdEES4_EEbRKNS_16reverse_iteratorIT_EERKNS5_IT0_EE, symObjAddr: 0x5F58, symBinAddr: 0x100009824, symSize: 0x48 }
  - { offsetInCU: 0x1118E, offset: 0x1118E, size: 0x8, addend: 0x0, symName: __ZNSt3__112__to_addressB8ue170006INS_16reverse_iteratorIPNS_4pairI7AddressdEEEEvEEu7__decayIDTclsr19__to_address_helperIT_EE6__callclsr3stdE7declvalIRKS7_EEEEES9_, symObjAddr: 0x5FCC, symBinAddr: 0x100009898, symSize: 0x24 }
  - { offsetInCU: 0x11240, offset: 0x11240, size: 0x8, addend: 0x0, symName: __ZNSt3__1neB8ue170006IPNS_4pairI7AddressNS_6vectorINS1_IS2_dEENS_9allocatorIS4_EEEEEEEEbRKNS_11__wrap_iterIT_EESE_, symObjAddr: 0x65A8, symBinAddr: 0x100009E74, symSize: 0x34 }
  - { offsetInCU: 0x11283, offset: 0x11283, size: 0x8, addend: 0x0, symName: __ZNSt3__1eqB8ue170006INS_9allocatorIcEEEEbRKNS_12basic_stringIcNS_11char_traitsIcEET_EES9_, symObjAddr: 0x65F4, symBinAddr: 0x100009EC0, symSize: 0x148 }
  - { offsetInCU: 0x112F6, offset: 0x112F6, size: 0x8, addend: 0x0, symName: __ZNSt3__1eqB8ue170006IPNS_4pairI7AddressNS_6vectorINS1_IS2_dEENS_9allocatorIS4_EEEEEEEEbRKNS_11__wrap_iterIT_EESE_, symObjAddr: 0x6888, symBinAddr: 0x10000A154, symSize: 0x48 }
  - { offsetInCU: 0x11339, offset: 0x11339, size: 0x8, addend: 0x0, symName: __ZNSt3__112__to_addressB8ue170006IKcEEPT_S3_, symObjAddr: 0x6A64, symBinAddr: 0x10000A330, symSize: 0x14 }
  - { offsetInCU: 0x113A1, offset: 0x113A1, size: 0x8, addend: 0x0, symName: __ZNSt3__142__uninitialized_allocator_move_if_noexceptB8ue170006INS_9allocatorINS_4pairI7AddressdEEEENS_16reverse_iteratorIPS4_EES8_S8_EET2_RT_T0_T1_S9_, symObjAddr: 0x71DC, symBinAddr: 0x10000AAA8, symSize: 0x11C }
  - { offsetInCU: 0x11441, offset: 0x11441, size: 0x8, addend: 0x0, symName: __ZNSt3__14swapB8ue170006IPNS_4pairI7AddressdEEEENS_9enable_ifIXaasr21is_move_constructibleIT_EE5valuesr18is_move_assignableIS6_EE5valueEvE4typeERS6_S9_, symObjAddr: 0x72F8, symBinAddr: 0x10000ABC4, symSize: 0x3C }
  - { offsetInCU: 0x11492, offset: 0x11492, size: 0x8, addend: 0x0, symName: __ZNSt3__122__make_exception_guardB8ue170006INS_29_AllocatorDestroyRangeReverseINS_9allocatorINS_4pairI7AddressdEEEENS_16reverse_iteratorIPS5_EEEEEENS_28__exception_guard_exceptionsIT_EESC_, symObjAddr: 0x7334, symBinAddr: 0x10000AC00, symSize: 0x4C }
  - { offsetInCU: 0x114C8, offset: 0x114C8, size: 0x8, addend: 0x0, symName: __ZNSt3__119__allocator_destroyB8ue170006INS_9allocatorINS_4pairI7AddressdEEEENS_16reverse_iteratorINS6_IPS4_EEEES9_EEvRT_T0_T1_, symObjAddr: 0x75AC, symBinAddr: 0x10000AE78, symSize: 0x70 }
  - { offsetInCU: 0x1152D, offset: 0x1152D, size: 0x8, addend: 0x0, symName: __ZNSt3__1neB8ue170006INS_16reverse_iteratorIPNS_4pairI7AddressdEEEES6_EEbRKNS1_IT_EERKNS1_IT0_EE, symObjAddr: 0x7658, symBinAddr: 0x10000AF24, symSize: 0x60 }
  - { offsetInCU: 0x11579, offset: 0x11579, size: 0x8, addend: 0x0, symName: __ZNSt3__112__to_addressB8ue170006INS_16reverse_iteratorINS1_IPNS_4pairI7AddressdEEEEEEvEEu7__decayIDTclsr19__to_address_helperIT_EE6__callclsr3stdE7declvalIRKS8_EEEEESA_, symObjAddr: 0x76B8, symBinAddr: 0x10000AF84, symSize: 0x24 }
  - { offsetInCU: 0x1291A, offset: 0x1291A, size: 0x8, addend: 0x0, symName: __ZNSt3__1neB8ue170006ERKNS_19__hash_map_iteratorINS_15__hash_iteratorIPNS_11__hash_nodeINS_17__hash_value_typeIP7AddressfEEPvEEEEEESD_, symObjAddr: 0x8218, symBinAddr: 0x10000BAE4, symSize: 0x30 }
  - { offsetInCU: 0x12957, offset: 0x12957, size: 0x8, addend: 0x0, symName: __ZNSt3__13getB8ue170006ILm0EKP7AddressfEERKNS_13tuple_elementIXT_ENS_4pairIT0_T1_EEE4typeERKS8_, symObjAddr: 0x8270, symBinAddr: 0x10000BB3C, symSize: 0x24 }
  - { offsetInCU: 0x129A1, offset: 0x129A1, size: 0x8, addend: 0x0, symName: __ZNSt3__13getB8ue170006ILm1EKP7AddressfEERKNS_13tuple_elementIXT_ENS_4pairIT0_T1_EEE4typeERKS8_, symObjAddr: 0x8294, symBinAddr: 0x10000BB60, symSize: 0x24 }
  - { offsetInCU: 0x12A22, offset: 0x12A22, size: 0x8, addend: 0x0, symName: __ZNSt3__116forward_as_tupleB8ue170006IJRKP7AddressEEENS_5tupleIJDpOT_EEES8_, symObjAddr: 0x9580, symBinAddr: 0x10000CE4C, symSize: 0x2C }
  - { offsetInCU: 0x12A5B, offset: 0x12A5B, size: 0x8, addend: 0x0, symName: __ZNSt3__116forward_as_tupleB8ue170006IJEEENS_5tupleIJDpOT_EEES4_, symObjAddr: 0x95AC, symBinAddr: 0x10000CE78, symSize: 0x4 }
  - { offsetInCU: 0x12A7F, offset: 0x12A7F, size: 0x8, addend: 0x0, symName: __ZNSt3__116__constrain_hashB8ue170006Emm, symObjAddr: 0x9674, symBinAddr: 0x10000CF40, symSize: 0x98 }
  - { offsetInCU: 0x12AB9, offset: 0x12AB9, size: 0x8, addend: 0x0, symName: __ZNSt3__116__is_hash_power2B8ue170006Em, symObjAddr: 0x99B8, symBinAddr: 0x10000D284, symSize: 0x50 }
  - { offsetInCU: 0x12AE5, offset: 0x12AE5, size: 0x8, addend: 0x0, symName: __ZNSt3__110__loadwordB8ue170006ImEET_PKv, symObjAddr: 0xA5D0, symBinAddr: 0x10000DE9C, symSize: 0x20 }
  - { offsetInCU: 0x12B28, offset: 0x12B28, size: 0x8, addend: 0x0, symName: __ZNSt3__14swapB8ue170006ImEENS_9enable_ifIXaasr21is_move_constructibleIT_EE5valuesr18is_move_assignableIS2_EE5valueEvE4typeERS2_S5_, symObjAddr: 0xA78C, symBinAddr: 0x10000E058, symSize: 0x3C }
  - { offsetInCU: 0x12B79, offset: 0x12B79, size: 0x8, addend: 0x0, symName: __ZNSt3__110__loadwordB8ue170006IjEET_PKv, symObjAddr: 0xA81C, symBinAddr: 0x10000E0E8, symSize: 0x20 }
  - { offsetInCU: 0x12C18, offset: 0x12C18, size: 0x8, addend: 0x0, symName: __ZNSt3__13getB8ue170006ILm0EJRKP7AddressEEERNS_13tuple_elementIXT_ENS_5tupleIJDpT0_EEEE4typeERS9_, symObjAddr: 0xAF98, symBinAddr: 0x10000E864, symSize: 0x24 }
  - { offsetInCU: 0x12C5B, offset: 0x12C5B, size: 0x8, addend: 0x0, symName: __ZNSt3__116__next_hash_pow2B8ue170006Em, symObjAddr: 0xB4B0, symBinAddr: 0x10000ED7C, symSize: 0x6C }
  - { offsetInCU: 0x12CA3, offset: 0x12CA3, size: 0x8, addend: 0x0, symName: __ZNSt3__112__libcpp_clzB8ue170006Em, symObjAddr: 0xB858, symBinAddr: 0x10000F124, symSize: 0x1C }
  - { offsetInCU: 0x12DAA, offset: 0x12DAA, size: 0x8, addend: 0x0, symName: __ZNSt3__1neB8ue170006IcNS_11char_traitsIcEENS_9allocatorIcEEEEbRKNS_12basic_stringIT_T0_T1_EESB_, symObjAddr: 0xD6B0, symBinAddr: 0x100010F7C, symSize: 0x34 }
  - { offsetInCU: 0x12E02, offset: 0x12E02, size: 0x8, addend: 0x0, symName: __ZNSt3__1neB8ue170006IPKNS_4pairI7AddressNS_6vectorINS1_IS2_dEENS_9allocatorIS4_EEEEEEEEbRKNS_11__wrap_iterIT_EESF_, symObjAddr: 0xD744, symBinAddr: 0x100011010, symSize: 0x34 }
  - { offsetInCU: 0x12E45, offset: 0x12E45, size: 0x8, addend: 0x0, symName: __ZNSt3__1neB8ue170006IPKNS_4pairI7AddressdEEEEbRKNS_11__wrap_iterIT_EESA_, symObjAddr: 0xD7F0, symBinAddr: 0x1000110BC, symSize: 0x34 }
  - { offsetInCU: 0x12E88, offset: 0x12E88, size: 0x8, addend: 0x0, symName: __ZNSt3__1eqB8ue170006IPKNS_4pairI7AddressNS_6vectorINS1_IS2_dEENS_9allocatorIS4_EEEEEEEEbRKNS_11__wrap_iterIT_EESF_, symObjAddr: 0xD900, symBinAddr: 0x1000111CC, symSize: 0x48 }
  - { offsetInCU: 0x12ECB, offset: 0x12ECB, size: 0x8, addend: 0x0, symName: __ZNSt3__1eqB8ue170006IPKNS_4pairI7AddressdEEEEbRKNS_11__wrap_iterIT_EESA_, symObjAddr: 0xD9E4, symBinAddr: 0x1000112B0, symSize: 0x48 }
  - { offsetInCU: 0x12F0E, offset: 0x12F0E, size: 0x8, addend: 0x0, symName: __ZNSt3__1neB8ue170006ERKNS_15__hash_iteratorIPNS_11__hash_nodeINS_17__hash_value_typeIP7AddressfEEPvEEEESB_, symObjAddr: 0xDB34, symBinAddr: 0x100011400, symSize: 0x34 }
  - { offsetInCU: 0x12F4B, offset: 0x12F4B, size: 0x8, addend: 0x0, symName: __ZNSt3__1eqB8ue170006ERKNS_15__hash_iteratorIPNS_11__hash_nodeINS_17__hash_value_typeIP7AddressfEEPvEEEESB_, symObjAddr: 0xDB68, symBinAddr: 0x100011434, symSize: 0x30 }
  - { offsetInCU: 0x13002, offset: 0x13002, size: 0x8, addend: 0x0, symName: __ZNSt3__116__pad_and_outputB8ue170006IcNS_11char_traitsIcEEEENS_19ostreambuf_iteratorIT_T0_EES6_PKS4_S8_S8_RNS_8ios_baseES4_, symObjAddr: 0xE7B4, symBinAddr: 0x100012080, symSize: 0x240 }
  - { offsetInCU: 0x130D1, offset: 0x130D1, size: 0x8, addend: 0x0, symName: __ZNSt3__19use_facetB8ue170006INS_5ctypeIcEEEERKT_RKNS_6localeE, symObjAddr: 0xEE38, symBinAddr: 0x100012704, symSize: 0x2C }
  - { offsetInCU: 0x1359E, offset: 0x1359E, size: 0x8, addend: 0x0, symName: __ZNSt3__118__constexpr_strlenB8ue170006EPKc, symObjAddr: 0xEF04, symBinAddr: 0x1000127D0, symSize: 0x24 }
  - { offsetInCU: 0x13936, offset: 0x13936, size: 0x8, addend: 0x0, symName: __ZSt28__throw_bad_array_new_lengthB8ue170006v, symObjAddr: 0x220C, symBinAddr: 0x100005AD8, symSize: 0x34 }
  - { offsetInCU: 0x13EBC, offset: 0x13EBC, size: 0x8, addend: 0x0, symName: __ZNSt3__16vectorI7AddressNS_9allocatorIS1_EEE26__swap_out_circular_bufferERNS_14__split_bufferIS1_RS3_EE, symObjAddr: 0x1A88, symBinAddr: 0x100005354, symSize: 0x110 }
  - { offsetInCU: 0x1428D, offset: 0x1428D, size: 0x8, addend: 0x0, symName: __ZNSt3__16vectorINS_4pairI7AddressNS0_INS1_IS2_dEENS_9allocatorIS3_EEEEEENS4_IS7_EEE26__swap_out_circular_bufferERNS_14__split_bufferIS7_RS8_EE, symObjAddr: 0x3CA8, symBinAddr: 0x100007574, symSize: 0x110 }
  - { offsetInCU: 0x14378, offset: 0x14378, size: 0x8, addend: 0x0, symName: __ZNSt3__16vectorINS_4pairI7AddressdEENS_9allocatorIS3_EEE26__swap_out_circular_bufferERNS_14__split_bufferIS3_RS5_EE, symObjAddr: 0x6E68, symBinAddr: 0x10000A734, symSize: 0x110 }
  - { offsetInCU: 0x171C5, offset: 0x171C5, size: 0x8, addend: 0x0, symName: _main, symObjAddr: 0x0, symBinAddr: 0x1000038CC, symSize: 0x618 }
  - { offsetInCU: 0x1731D, offset: 0x1731D, size: 0x8, addend: 0x0, symName: __ZN14AddressManagerC1Ev, symObjAddr: 0x618, symBinAddr: 0x100003EE4, symSize: 0x2C }
  - { offsetInCU: 0x17348, offset: 0x17348, size: 0x8, addend: 0x0, symName: __ZN14AddressManager10addAddressERKNSt3__112basic_stringIcNS0_11char_traitsIcEENS0_9allocatorIcEEEEii, symObjAddr: 0x644, symBinAddr: 0x100003F10, symSize: 0x80 }
  - { offsetInCU: 0x1739C, offset: 0x1739C, size: 0x8, addend: 0x0, symName: __ZNSt3__112basic_stringIcNS_11char_traitsIcEENS_9allocatorIcEEEC1B8ue170006ILi0EEEPKc, symObjAddr: 0x6C4, symBinAddr: 0x100003F90, symSize: 0x34 }
  - { offsetInCU: 0x173DA, offset: 0x173DA, size: 0x8, addend: 0x0, symName: __ZNK14AddressManager14printAddressesEv, symObjAddr: 0x740, symBinAddr: 0x10000400C, symSize: 0x78 }
  - { offsetInCU: 0x176E2, offset: 0x176E2, size: 0x8, addend: 0x0, symName: __ZN5GraphC1Ev, symObjAddr: 0x7B8, symBinAddr: 0x100004084, symSize: 0x2C }
  - { offsetInCU: 0x1770D, offset: 0x1770D, size: 0x8, addend: 0x0, symName: __ZN14AddressManager12getAddressesEv, symObjAddr: 0x7E4, symBinAddr: 0x1000040B0, symSize: 0x14 }
  - { offsetInCU: 0x17731, offset: 0x17731, size: 0x8, addend: 0x0, symName: __ZNSt3__16vectorI7AddressNS_9allocatorIS1_EEE5beginB8ue170006Ev, symObjAddr: 0x7F8, symBinAddr: 0x1000040C4, symSize: 0x30 }
  - { offsetInCU: 0x17757, offset: 0x17757, size: 0x8, addend: 0x0, symName: __ZNSt3__16vectorI7AddressNS_9allocatorIS1_EEE3endB8ue170006Ev, symObjAddr: 0x828, symBinAddr: 0x1000040F4, symSize: 0x30 }
  - { offsetInCU: 0x1777E, offset: 0x1777E, size: 0x8, addend: 0x0, symName: __ZNKSt3__111__wrap_iterIP7AddressEdeB8ue170006Ev, symObjAddr: 0x88C, symBinAddr: 0x100004158, symSize: 0x18 }
  - { offsetInCU: 0x177A3, offset: 0x177A3, size: 0x8, addend: 0x0, symName: __ZN5Graph7addNodeERK7Address, symObjAddr: 0x8A4, symBinAddr: 0x100004170, symSize: 0xAC }
  - { offsetInCU: 0x177D6, offset: 0x177D6, size: 0x8, addend: 0x0, symName: __ZNSt3__111__wrap_iterIP7AddressEppB8ue170006Ev, symObjAddr: 0x950, symBinAddr: 0x10000421C, symSize: 0x20 }
  - { offsetInCU: 0x177FB, offset: 0x177FB, size: 0x8, addend: 0x0, symName: __ZN5Graph7addEdgeERK7AddressS2_d, symObjAddr: 0x970, symBinAddr: 0x10000423C, symSize: 0xEC }
  - { offsetInCU: 0x1788B, offset: 0x1788B, size: 0x8, addend: 0x0, symName: __ZNSt3__16vectorI7AddressNS_9allocatorIS1_EEEixB8ue170006Em, symObjAddr: 0xA5C, symBinAddr: 0x100004328, symSize: 0x24 }
  - { offsetInCU: 0x178C1, offset: 0x178C1, size: 0x8, addend: 0x0, symName: __ZN7AddressC1ERKS_, symObjAddr: 0xA80, symBinAddr: 0x10000434C, symSize: 0x34 }
  - { offsetInCU: 0x178F5, offset: 0x178F5, size: 0x8, addend: 0x0, symName: __ZN5Graph8dijkstraEPK7AddressRPS0_, symObjAddr: 0xB00, symBinAddr: 0x1000043CC, symSize: 0x568 }
  - { offsetInCU: 0x17A47, offset: 0x17A47, size: 0x8, addend: 0x0, symName: __ZNK5StackI4NodeE7isEmptyEv, symObjAddr: 0x1068, symBinAddr: 0x100004934, symSize: 0x24 }
  - { offsetInCU: 0x17A6C, offset: 0x17A6C, size: 0x8, addend: 0x0, symName: __ZN5StackI4NodeE3popEv, symObjAddr: 0x108C, symBinAddr: 0x100004958, symSize: 0x5C }
  - { offsetInCU: 0x17A91, offset: 0x17A91, size: 0x8, addend: 0x0, symName: __ZNK4Node5printEv, symObjAddr: 0x10E8, symBinAddr: 0x1000049B4, symSize: 0x90 }
  - { offsetInCU: 0x17AB6, offset: 0x17AB6, size: 0x8, addend: 0x0, symName: __ZN5StackI4NodeED1Ev, symObjAddr: 0x1178, symBinAddr: 0x100004A44, symSize: 0x2C }
  - { offsetInCU: 0x17ADF, offset: 0x17ADF, size: 0x8, addend: 0x0, symName: __ZN7AddressD1Ev, symObjAddr: 0x11A4, symBinAddr: 0x100004A70, symSize: 0x2C }
  - { offsetInCU: 0x17B0A, offset: 0x17B0A, size: 0x8, addend: 0x0, symName: __ZN5GraphD1Ev, symObjAddr: 0x11D0, symBinAddr: 0x100004A9C, symSize: 0x2C }
  - { offsetInCU: 0x17B35, offset: 0x17B35, size: 0x8, addend: 0x0, symName: __ZN14AddressManagerD1Ev, symObjAddr: 0x11FC, symBinAddr: 0x100004AC8, symSize: 0x2C }
  - { offsetInCU: 0x17B60, offset: 0x17B60, size: 0x8, addend: 0x0, symName: __ZN14AddressManagerC2Ev, symObjAddr: 0x1228, symBinAddr: 0x100004AF4, symSize: 0x2C }
  - { offsetInCU: 0x17B8B, offset: 0x17B8B, size: 0x8, addend: 0x0, symName: __ZNSt3__16vectorI7AddressNS_9allocatorIS1_EEEC1B8ue170006Ev, symObjAddr: 0x1254, symBinAddr: 0x100004B20, symSize: 0x2C }
  - { offsetInCU: 0x17BB4, offset: 0x17BB4, size: 0x8, addend: 0x0, symName: __ZNSt3__16vectorI7AddressNS_9allocatorIS1_EEEC2B8ue170006Ev, symObjAddr: 0x1280, symBinAddr: 0x100004B4C, symSize: 0x4C }
  - { offsetInCU: 0x17BE7, offset: 0x17BE7, size: 0x8, addend: 0x0, symName: __ZNSt3__117__compressed_pairIP7AddressNS_9allocatorIS1_EEEC1B8ue170006IDnNS_18__default_init_tagEEEOT_OT0_, symObjAddr: 0x12CC, symBinAddr: 0x100004B98, symSize: 0x3C }
  - { offsetInCU: 0x17C3E, offset: 0x17C3E, size: 0x8, addend: 0x0, symName: __ZNSt3__117__compressed_pairIP7AddressNS_9allocatorIS1_EEEC2B8ue170006IDnNS_18__default_init_tagEEEOT_OT0_, symObjAddr: 0x1314, symBinAddr: 0x100004BE0, symSize: 0x40 }
  - { offsetInCU: 0x17C95, offset: 0x17C95, size: 0x8, addend: 0x0, symName: __ZNSt3__122__compressed_pair_elemIP7AddressLi0ELb0EEC2B8ue170006IDnvEEOT_, symObjAddr: 0x1354, symBinAddr: 0x100004C20, symSize: 0x1C }
  - { offsetInCU: 0x17CD6, offset: 0x17CD6, size: 0x8, addend: 0x0, symName: __ZNSt3__122__compressed_pair_elemINS_9allocatorI7AddressEELi1ELb1EEC2B8ue170006ENS_18__default_init_tagE, symObjAddr: 0x1370, symBinAddr: 0x100004C3C, symSize: 0x2C }
  - { offsetInCU: 0x17D0A, offset: 0x17D0A, size: 0x8, addend: 0x0, symName: __ZNSt3__19allocatorI7AddressEC2B8ue170006Ev, symObjAddr: 0x139C, symBinAddr: 0x100004C68, symSize: 0x2C }
  - { offsetInCU: 0x17D33, offset: 0x17D33, size: 0x8, addend: 0x0, symName: __ZNSt3__116__non_trivial_ifILb1ENS_9allocatorI7AddressEEEC2B8ue170006Ev, symObjAddr: 0x13C8, symBinAddr: 0x100004C94, symSize: 0x14 }
  - { offsetInCU: 0x17D5B, offset: 0x17D5B, size: 0x8, addend: 0x0, symName: __ZNSt3__16vectorI7AddressNS_9allocatorIS1_EEE9push_backB8ue170006EOS1_, symObjAddr: 0x13DC, symBinAddr: 0x100004CA8, symSize: 0x6C }
  - { offsetInCU: 0x17D91, offset: 0x17D91, size: 0x8, addend: 0x0, symName: __ZN7AddressC1ERKNSt3__112basic_stringIcNS0_11char_traitsIcEENS0_9allocatorIcEEEEii, symObjAddr: 0x1448, symBinAddr: 0x100004D14, symSize: 0x44 }
  - { offsetInCU: 0x17DE4, offset: 0x17DE4, size: 0x8, addend: 0x0, symName: __ZNSt3__16vectorI7AddressNS_9allocatorIS1_EEE9__end_capB8ue170006Ev, symObjAddr: 0x148C, symBinAddr: 0x100004D58, symSize: 0x28 }
  - { offsetInCU: 0x17E0E, offset: 0x17E0E, size: 0x8, addend: 0x0, symName: __ZNSt3__16vectorI7AddressNS_9allocatorIS1_EEE22__construct_one_at_endB8ue170006IJS1_EEEvDpOT_, symObjAddr: 0x14B4, symBinAddr: 0x100004D80, symSize: 0x90 }
  - { offsetInCU: 0x17E5B, offset: 0x17E5B, size: 0x8, addend: 0x0, symName: __ZNSt3__16vectorI7AddressNS_9allocatorIS1_EEE21__push_back_slow_pathIS1_EEvOT_, symObjAddr: 0x1544, symBinAddr: 0x100004E10, symSize: 0xD8 }
  - { offsetInCU: 0x17EB8, offset: 0x17EB8, size: 0x8, addend: 0x0, symName: __ZNSt3__117__compressed_pairIP7AddressNS_9allocatorIS1_EEE5firstB8ue170006Ev, symObjAddr: 0x161C, symBinAddr: 0x100004EE8, symSize: 0x24 }
  - { offsetInCU: 0x17EDD, offset: 0x17EDD, size: 0x8, addend: 0x0, symName: __ZNSt3__122__compressed_pair_elemIP7AddressLi0ELb0EE5__getB8ue170006Ev, symObjAddr: 0x1640, symBinAddr: 0x100004F0C, symSize: 0x14 }
  - { offsetInCU: 0x17F1B, offset: 0x17F1B, size: 0x8, addend: 0x0, symName: __ZNSt3__16vectorI7AddressNS_9allocatorIS1_EEE21_ConstructTransactionC1B8ue170006ERS4_m, symObjAddr: 0x1654, symBinAddr: 0x100004F20, symSize: 0x3C }
  - { offsetInCU: 0x17F62, offset: 0x17F62, size: 0x8, addend: 0x0, symName: __ZNSt3__116allocator_traitsINS_9allocatorI7AddressEEE9constructB8ue170006IS2_JS2_EvEEvRS3_PT_DpOT0_, symObjAddr: 0x1690, symBinAddr: 0x100004F5C, symSize: 0x34 }
  - { offsetInCU: 0x17FB9, offset: 0x17FB9, size: 0x8, addend: 0x0, symName: __ZNSt3__16vectorI7AddressNS_9allocatorIS1_EEE7__allocB8ue170006Ev, symObjAddr: 0x16C4, symBinAddr: 0x100004F90, symSize: 0x28 }
  - { offsetInCU: 0x17FDE, offset: 0x17FDE, size: 0x8, addend: 0x0, symName: __ZNSt3__16vectorI7AddressNS_9allocatorIS1_EEE21_ConstructTransactionD1B8ue170006Ev, symObjAddr: 0x1700, symBinAddr: 0x100004FCC, symSize: 0x2C }
  - { offsetInCU: 0x18007, offset: 0x18007, size: 0x8, addend: 0x0, symName: __ZNSt3__16vectorI7AddressNS_9allocatorIS1_EEE21_ConstructTransactionC2B8ue170006ERS4_m, symObjAddr: 0x172C, symBinAddr: 0x100004FF8, symSize: 0x44 }
  - { offsetInCU: 0x1804E, offset: 0x1804E, size: 0x8, addend: 0x0, symName: __ZNSt3__19allocatorI7AddressE9constructB8ue170006IS1_JS1_EEEvPT_DpOT0_, symObjAddr: 0x1770, symBinAddr: 0x10000503C, symSize: 0x30 }
  - { offsetInCU: 0x180A3, offset: 0x180A3, size: 0x8, addend: 0x0, symName: __ZN7AddressC1EOS_, symObjAddr: 0x17A0, symBinAddr: 0x10000506C, symSize: 0x34 }
  - { offsetInCU: 0x180D7, offset: 0x180D7, size: 0x8, addend: 0x0, symName: __ZN7AddressC2EOS_, symObjAddr: 0x17D4, symBinAddr: 0x1000050A0, symSize: 0x40 }
  - { offsetInCU: 0x1810B, offset: 0x1810B, size: 0x8, addend: 0x0, symName: __ZNSt3__112basic_stringIcNS_11char_traitsIcEENS_9allocatorIcEEEC1B8ue170006EOS5_, symObjAddr: 0x1814, symBinAddr: 0x1000050E0, symSize: 0x34 }
  - { offsetInCU: 0x18143, offset: 0x18143, size: 0x8, addend: 0x0, symName: __ZNSt3__112basic_stringIcNS_11char_traitsIcEENS_9allocatorIcEEEC2B8ue170006EOS5_, symObjAddr: 0x1848, symBinAddr: 0x100005114, symSize: 0x50 }
  - { offsetInCU: 0x1817B, offset: 0x1817B, size: 0x8, addend: 0x0, symName: __ZNSt3__112basic_stringIcNS_11char_traitsIcEENS_9allocatorIcEEE14__default_initB8ue170006Ev, symObjAddr: 0x1898, symBinAddr: 0x100005164, symSize: 0x40 }
  - { offsetInCU: 0x181A0, offset: 0x181A0, size: 0x8, addend: 0x0, symName: __ZNSt3__117__compressed_pairINS_12basic_stringIcNS_11char_traitsIcEENS_9allocatorIcEEE5__repES5_E5firstB8ue170006Ev, symObjAddr: 0x18D8, symBinAddr: 0x1000051A4, symSize: 0x24 }
  - { offsetInCU: 0x181C5, offset: 0x181C5, size: 0x8, addend: 0x0, symName: __ZNSt3__122__compressed_pair_elemINS_12basic_stringIcNS_11char_traitsIcEENS_9allocatorIcEEE5__repELi0ELb0EE5__getB8ue170006Ev, symObjAddr: 0x18FC, symBinAddr: 0x1000051C8, symSize: 0x14 }
  - { offsetInCU: 0x181EA, offset: 0x181EA, size: 0x8, addend: 0x0, symName: __ZNSt3__117__compressed_pairIP7AddressNS_9allocatorIS1_EEE6secondB8ue170006Ev, symObjAddr: 0x1910, symBinAddr: 0x1000051DC, symSize: 0x24 }
  - { offsetInCU: 0x1820F, offset: 0x1820F, size: 0x8, addend: 0x0, symName: __ZNSt3__122__compressed_pair_elemINS_9allocatorI7AddressEELi1ELb1EE5__getB8ue170006Ev, symObjAddr: 0x1934, symBinAddr: 0x100005200, symSize: 0x14 }
  - { offsetInCU: 0x18234, offset: 0x18234, size: 0x8, addend: 0x0, symName: __ZNSt3__16vectorI7AddressNS_9allocatorIS1_EEE21_ConstructTransactionD2B8ue170006Ev, symObjAddr: 0x1948, symBinAddr: 0x100005214, symSize: 0x20 }
  - { offsetInCU: 0x1825C, offset: 0x1825C, size: 0x8, addend: 0x0, symName: __ZNKSt3__16vectorI7AddressNS_9allocatorIS1_EEE11__recommendB8ue170006Em, symObjAddr: 0x1968, symBinAddr: 0x100005234, symSize: 0xB4 }
  - { offsetInCU: 0x182B0, offset: 0x182B0, size: 0x8, addend: 0x0, symName: __ZNKSt3__16vectorI7AddressNS_9allocatorIS1_EEE4sizeB8ue170006Ev, symObjAddr: 0x1A1C, symBinAddr: 0x1000052E8, symSize: 0x28 }
  - { offsetInCU: 0x182D5, offset: 0x182D5, size: 0x8, addend: 0x0, symName: __ZNSt3__114__split_bufferI7AddressRNS_9allocatorIS1_EEEC1EmmS4_, symObjAddr: 0x1A44, symBinAddr: 0x100005310, symSize: 0x44 }
  - { offsetInCU: 0x1832A, offset: 0x1832A, size: 0x8, addend: 0x0, symName: __ZNSt3__114__split_bufferI7AddressRNS_9allocatorIS1_EEED1Ev, symObjAddr: 0x1B98, symBinAddr: 0x100005464, symSize: 0x2C }
  - { offsetInCU: 0x18354, offset: 0x18354, size: 0x8, addend: 0x0, symName: __ZNKSt3__16vectorI7AddressNS_9allocatorIS1_EEE8max_sizeEv, symObjAddr: 0x1BC4, symBinAddr: 0x100005490, symSize: 0x60 }
  - { offsetInCU: 0x1837B, offset: 0x1837B, size: 0x8, addend: 0x0, symName: __ZNKSt3__16vectorI7AddressNS_9allocatorIS1_EEE20__throw_length_errorB8ue170006Ev, symObjAddr: 0x1C24, symBinAddr: 0x1000054F0, symSize: 0x1C }
  - { offsetInCU: 0x183A0, offset: 0x183A0, size: 0x8, addend: 0x0, symName: __ZNKSt3__16vectorI7AddressNS_9allocatorIS1_EEE8capacityB8ue170006Ev, symObjAddr: 0x1C40, symBinAddr: 0x10000550C, symSize: 0x40 }
  - { offsetInCU: 0x183CF, offset: 0x183CF, size: 0x8, addend: 0x0, symName: __ZNSt3__116allocator_traitsINS_9allocatorI7AddressEEE8max_sizeB8ue170006IS3_vEEmRKS3_, symObjAddr: 0x1CD8, symBinAddr: 0x1000055A4, symSize: 0x24 }
  - { offsetInCU: 0x183FD, offset: 0x183FD, size: 0x8, addend: 0x0, symName: __ZNKSt3__16vectorI7AddressNS_9allocatorIS1_EEE7__allocB8ue170006Ev, symObjAddr: 0x1CFC, symBinAddr: 0x1000055C8, symSize: 0x28 }
  - { offsetInCU: 0x18422, offset: 0x18422, size: 0x8, addend: 0x0, symName: __ZNSt3__114numeric_limitsIlE3maxB8ue170006Ev, symObjAddr: 0x1D24, symBinAddr: 0x1000055F0, symSize: 0x14 }
  - { offsetInCU: 0x18440, offset: 0x18440, size: 0x8, addend: 0x0, symName: __ZNKSt3__16__lessIvvEclB8ue170006ImmEEbRKT_RKT0_, symObjAddr: 0x1D8C, symBinAddr: 0x100005658, symSize: 0x34 }
  - { offsetInCU: 0x18493, offset: 0x18493, size: 0x8, addend: 0x0, symName: __ZNKSt3__19allocatorI7AddressE8max_sizeB8ue170006Ev, symObjAddr: 0x1DC0, symBinAddr: 0x10000568C, symSize: 0x14 }
  - { offsetInCU: 0x184B8, offset: 0x184B8, size: 0x8, addend: 0x0, symName: __ZNKSt3__117__compressed_pairIP7AddressNS_9allocatorIS1_EEE6secondB8ue170006Ev, symObjAddr: 0x1DD4, symBinAddr: 0x1000056A0, symSize: 0x24 }
  - { offsetInCU: 0x184DD, offset: 0x184DD, size: 0x8, addend: 0x0, symName: __ZNKSt3__122__compressed_pair_elemINS_9allocatorI7AddressEELi1ELb1EE5__getB8ue170006Ev, symObjAddr: 0x1DF8, symBinAddr: 0x1000056C4, symSize: 0x14 }
  - { offsetInCU: 0x18502, offset: 0x18502, size: 0x8, addend: 0x0, symName: __ZNSt3__123__libcpp_numeric_limitsIlLb1EE3maxB8ue170006Ev, symObjAddr: 0x1E0C, symBinAddr: 0x1000056D8, symSize: 0x8 }
  - { offsetInCU: 0x18516, offset: 0x18516, size: 0x8, addend: 0x0, symName: __ZNSt12length_errorC1B8ue170006EPKc, symObjAddr: 0x1E78, symBinAddr: 0x100005744, symSize: 0x34 }
  - { offsetInCU: 0x1854D, offset: 0x1854D, size: 0x8, addend: 0x0, symName: __ZNSt12length_errorC2B8ue170006EPKc, symObjAddr: 0x1EAC, symBinAddr: 0x100005778, symSize: 0x4C }
  - { offsetInCU: 0x18584, offset: 0x18584, size: 0x8, addend: 0x0, symName: __ZNKSt3__16vectorI7AddressNS_9allocatorIS1_EEE9__end_capB8ue170006Ev, symObjAddr: 0x1EF8, symBinAddr: 0x1000057C4, symSize: 0x28 }
  - { offsetInCU: 0x185A9, offset: 0x185A9, size: 0x8, addend: 0x0, symName: __ZNKSt3__117__compressed_pairIP7AddressNS_9allocatorIS1_EEE5firstB8ue170006Ev, symObjAddr: 0x1F20, symBinAddr: 0x1000057EC, symSize: 0x24 }
  - { offsetInCU: 0x185CE, offset: 0x185CE, size: 0x8, addend: 0x0, symName: __ZNKSt3__122__compressed_pair_elemIP7AddressLi0ELb0EE5__getB8ue170006Ev, symObjAddr: 0x1F44, symBinAddr: 0x100005810, symSize: 0x14 }
  - { offsetInCU: 0x185F3, offset: 0x185F3, size: 0x8, addend: 0x0, symName: __ZNSt3__114__split_bufferI7AddressRNS_9allocatorIS1_EEEC2EmmS4_, symObjAddr: 0x1FAC, symBinAddr: 0x100005878, symSize: 0xD4 }
  - { offsetInCU: 0x18666, offset: 0x18666, size: 0x8, addend: 0x0, symName: __ZNSt3__117__compressed_pairIP7AddressRNS_9allocatorIS1_EEEC1B8ue170006IDnS5_EEOT_OT0_, symObjAddr: 0x2080, symBinAddr: 0x10000594C, symSize: 0x3C }
  - { offsetInCU: 0x186BD, offset: 0x186BD, size: 0x8, addend: 0x0, symName: __ZNSt3__114__split_bufferI7AddressRNS_9allocatorIS1_EEE7__allocB8ue170006Ev, symObjAddr: 0x20FC, symBinAddr: 0x1000059C8, symSize: 0x28 }
  - { offsetInCU: 0x186E2, offset: 0x186E2, size: 0x8, addend: 0x0, symName: __ZNSt3__114__split_bufferI7AddressRNS_9allocatorIS1_EEE9__end_capB8ue170006Ev, symObjAddr: 0x2124, symBinAddr: 0x1000059F0, symSize: 0x28 }
  - { offsetInCU: 0x18707, offset: 0x18707, size: 0x8, addend: 0x0, symName: __ZNSt3__117__compressed_pairIP7AddressRNS_9allocatorIS1_EEEC2B8ue170006IDnS5_EEOT_OT0_, symObjAddr: 0x214C, symBinAddr: 0x100005A18, symSize: 0x48 }
  - { offsetInCU: 0x1875E, offset: 0x1875E, size: 0x8, addend: 0x0, symName: __ZNSt3__122__compressed_pair_elemIRNS_9allocatorI7AddressEELi1ELb0EEC2B8ue170006IS4_vEEOT_, symObjAddr: 0x2194, symBinAddr: 0x100005A60, symSize: 0x20 }
  - { offsetInCU: 0x1879F, offset: 0x1879F, size: 0x8, addend: 0x0, symName: __ZNSt3__19allocatorI7AddressE8allocateB8ue170006Em, symObjAddr: 0x21B4, symBinAddr: 0x100005A80, symSize: 0x58 }
  - { offsetInCU: 0x187D2, offset: 0x187D2, size: 0x8, addend: 0x0, symName: __ZNSt3__117__compressed_pairIP7AddressRNS_9allocatorIS1_EEE6secondB8ue170006Ev, symObjAddr: 0x228C, symBinAddr: 0x100005B58, symSize: 0x28 }
  - { offsetInCU: 0x187F7, offset: 0x187F7, size: 0x8, addend: 0x0, symName: __ZNSt3__122__compressed_pair_elemIRNS_9allocatorI7AddressEELi1ELb0EE5__getB8ue170006Ev, symObjAddr: 0x22B4, symBinAddr: 0x100005B80, symSize: 0x18 }
  - { offsetInCU: 0x1881C, offset: 0x1881C, size: 0x8, addend: 0x0, symName: __ZNSt3__117__compressed_pairIP7AddressRNS_9allocatorIS1_EEE5firstB8ue170006Ev, symObjAddr: 0x22CC, symBinAddr: 0x100005B98, symSize: 0x24 }
  - { offsetInCU: 0x18841, offset: 0x18841, size: 0x8, addend: 0x0, symName: __ZNKSt3__16vectorI7AddressNS_9allocatorIS1_EEE17__annotate_deleteB8ue170006Ev, symObjAddr: 0x22F0, symBinAddr: 0x100005BBC, symSize: 0xB8 }
  - { offsetInCU: 0x18866, offset: 0x18866, size: 0x8, addend: 0x0, symName: __ZNSt3__116reverse_iteratorIP7AddressEC1B8ue170006ES2_, symObjAddr: 0x24D4, symBinAddr: 0x100005DA0, symSize: 0x34 }
  - { offsetInCU: 0x1889D, offset: 0x1889D, size: 0x8, addend: 0x0, symName: __ZNKSt3__116reverse_iteratorIP7AddressE4baseB8ue170006Ev, symObjAddr: 0x2508, symBinAddr: 0x100005DD4, symSize: 0x18 }
  - { offsetInCU: 0x188C2, offset: 0x188C2, size: 0x8, addend: 0x0, symName: __ZNKSt3__16vectorI7AddressNS_9allocatorIS1_EEE14__annotate_newB8ue170006Em, symObjAddr: 0x255C, symBinAddr: 0x100005E28, symSize: 0xAC }
  - { offsetInCU: 0x188F6, offset: 0x188F6, size: 0x8, addend: 0x0, symName: __ZNKSt3__16vectorI7AddressNS_9allocatorIS1_EEE31__annotate_contiguous_containerB8ue170006EPKvS6_S6_S6_, symObjAddr: 0x2608, symBinAddr: 0x100005ED4, symSize: 0x20 }
  - { offsetInCU: 0x1894B, offset: 0x1894B, size: 0x8, addend: 0x0, symName: __ZNKSt3__16vectorI7AddressNS_9allocatorIS1_EEE4dataB8ue170006Ev, symObjAddr: 0x2628, symBinAddr: 0x100005EF4, symSize: 0x28 }
  - { offsetInCU: 0x18970, offset: 0x18970, size: 0x8, addend: 0x0, symName: __ZNSt3__129_AllocatorDestroyRangeReverseINS_9allocatorI7AddressEENS_16reverse_iteratorIPS2_EEEC1B8ue170006ERS3_RS6_S9_, symObjAddr: 0x269C, symBinAddr: 0x100005F68, symSize: 0x44 }
  - { offsetInCU: 0x189C6, offset: 0x189C6, size: 0x8, addend: 0x0, symName: __ZNKSt3__116reverse_iteratorIP7AddressEdeB8ue170006Ev, symObjAddr: 0x274C, symBinAddr: 0x100006018, symSize: 0x28 }
  - { offsetInCU: 0x189F9, offset: 0x189F9, size: 0x8, addend: 0x0, symName: __ZNSt3__116reverse_iteratorIP7AddressEppB8ue170006Ev, symObjAddr: 0x2774, symBinAddr: 0x100006040, symSize: 0x20 }
  - { offsetInCU: 0x18A1E, offset: 0x18A1E, size: 0x8, addend: 0x0, symName: __ZNSt3__128__exception_guard_exceptionsINS_29_AllocatorDestroyRangeReverseINS_9allocatorI7AddressEENS_16reverse_iteratorIPS3_EEEEE10__completeB8ue170006Ev, symObjAddr: 0x2794, symBinAddr: 0x100006060, symSize: 0x1C }
  - { offsetInCU: 0x18A43, offset: 0x18A43, size: 0x8, addend: 0x0, symName: __ZNSt3__128__exception_guard_exceptionsINS_29_AllocatorDestroyRangeReverseINS_9allocatorI7AddressEENS_16reverse_iteratorIPS3_EEEEED1B8ue170006Ev, symObjAddr: 0x27B0, symBinAddr: 0x10000607C, symSize: 0x2C }
  - { offsetInCU: 0x18A6C, offset: 0x18A6C, size: 0x8, addend: 0x0, symName: __ZNSt3__128__exception_guard_exceptionsINS_29_AllocatorDestroyRangeReverseINS_9allocatorI7AddressEENS_16reverse_iteratorIPS3_EEEEEC1B8ue170006ES8_, symObjAddr: 0x27DC, symBinAddr: 0x1000060A8, symSize: 0x34 }
  - { offsetInCU: 0x18AA4, offset: 0x18AA4, size: 0x8, addend: 0x0, symName: __ZNSt3__128__exception_guard_exceptionsINS_29_AllocatorDestroyRangeReverseINS_9allocatorI7AddressEENS_16reverse_iteratorIPS3_EEEEEC2B8ue170006ES8_, symObjAddr: 0x2810, symBinAddr: 0x1000060DC, symSize: 0x30 }
  - { offsetInCU: 0x18ADC, offset: 0x18ADC, size: 0x8, addend: 0x0, symName: __ZNSt3__129_AllocatorDestroyRangeReverseINS_9allocatorI7AddressEENS_16reverse_iteratorIPS2_EEEC2B8ue170006ERS3_RS6_S9_, symObjAddr: 0x2840, symBinAddr: 0x10000610C, symSize: 0x38 }
  - { offsetInCU: 0x18B37, offset: 0x18B37, size: 0x8, addend: 0x0, symName: __ZNSt3__119__to_address_helperINS_16reverse_iteratorIP7AddressEEvE6__callB8ue170006ERKS4_, symObjAddr: 0x2878, symBinAddr: 0x100006144, symSize: 0x38 }
  - { offsetInCU: 0x18B5A, offset: 0x18B5A, size: 0x8, addend: 0x0, symName: __ZNKSt3__116reverse_iteratorIP7AddressEptB8ue170006Ev, symObjAddr: 0x28B0, symBinAddr: 0x10000617C, symSize: 0x24 }
  - { offsetInCU: 0x18B7F, offset: 0x18B7F, size: 0x8, addend: 0x0, symName: __ZNSt3__128__exception_guard_exceptionsINS_29_AllocatorDestroyRangeReverseINS_9allocatorI7AddressEENS_16reverse_iteratorIPS3_EEEEED2B8ue170006Ev, symObjAddr: 0x28D4, symBinAddr: 0x1000061A0, symSize: 0x50 }
  - { offsetInCU: 0x18BA8, offset: 0x18BA8, size: 0x8, addend: 0x0, symName: __ZNKSt3__129_AllocatorDestroyRangeReverseINS_9allocatorI7AddressEENS_16reverse_iteratorIPS2_EEEclB8ue170006Ev, symObjAddr: 0x2924, symBinAddr: 0x1000061F0, symSize: 0xB4 }
  - { offsetInCU: 0x18BCE, offset: 0x18BCE, size: 0x8, addend: 0x0, symName: __ZNSt3__116reverse_iteratorINS0_IP7AddressEEEC1B8ue170006ES3_, symObjAddr: 0x2A48, symBinAddr: 0x100006314, symSize: 0x3C }
  - { offsetInCU: 0x18C05, offset: 0x18C05, size: 0x8, addend: 0x0, symName: __ZNSt3__116allocator_traitsINS_9allocatorI7AddressEEE7destroyB8ue170006IS2_vEEvRS3_PT_, symObjAddr: 0x2AE4, symBinAddr: 0x1000063B0, symSize: 0x2C }
  - { offsetInCU: 0x18C42, offset: 0x18C42, size: 0x8, addend: 0x0, symName: __ZNSt3__116reverse_iteratorINS0_IP7AddressEEEppB8ue170006Ev, symObjAddr: 0x2B34, symBinAddr: 0x100006400, symSize: 0x30 }
  - { offsetInCU: 0x18C67, offset: 0x18C67, size: 0x8, addend: 0x0, symName: __ZNKSt3__116reverse_iteratorINS0_IP7AddressEEE4baseB8ue170006Ev, symObjAddr: 0x2B64, symBinAddr: 0x100006430, symSize: 0x24 }
  - { offsetInCU: 0x18C8C, offset: 0x18C8C, size: 0x8, addend: 0x0, symName: __ZNSt3__19allocatorI7AddressE7destroyB8ue170006EPS1_, symObjAddr: 0x2B88, symBinAddr: 0x100006454, symSize: 0x28 }
  - { offsetInCU: 0x18CC4, offset: 0x18CC4, size: 0x8, addend: 0x0, symName: __ZNSt3__119__to_address_helperINS_16reverse_iteratorINS1_IP7AddressEEEEvE6__callB8ue170006ERKS5_, symObjAddr: 0x2BB0, symBinAddr: 0x10000647C, symSize: 0x38 }
  - { offsetInCU: 0x18CE7, offset: 0x18CE7, size: 0x8, addend: 0x0, symName: __ZNKSt3__116reverse_iteratorINS0_IP7AddressEEEptB8ue170006Ev, symObjAddr: 0x2BE8, symBinAddr: 0x1000064B4, symSize: 0x24 }
  - { offsetInCU: 0x18D0C, offset: 0x18D0C, size: 0x8, addend: 0x0, symName: __ZNKSt3__116reverse_iteratorINS0_IP7AddressEEEdeB8ue170006Ev, symObjAddr: 0x2C0C, symBinAddr: 0x1000064D8, symSize: 0x34 }
  - { offsetInCU: 0x18D3F, offset: 0x18D3F, size: 0x8, addend: 0x0, symName: __ZNSt3__116reverse_iteratorIP7AddressEmmB8ue170006Ev, symObjAddr: 0x2C40, symBinAddr: 0x10000650C, symSize: 0x20 }
  - { offsetInCU: 0x18D64, offset: 0x18D64, size: 0x8, addend: 0x0, symName: __ZNSt3__116reverse_iteratorINS0_IP7AddressEEEC2B8ue170006ES3_, symObjAddr: 0x2C60, symBinAddr: 0x10000652C, symSize: 0x2C }
  - { offsetInCU: 0x18D9B, offset: 0x18D9B, size: 0x8, addend: 0x0, symName: __ZNSt3__116reverse_iteratorIP7AddressEC2B8ue170006ES2_, symObjAddr: 0x2C8C, symBinAddr: 0x100006558, symSize: 0x28 }
  - { offsetInCU: 0x18DD2, offset: 0x18DD2, size: 0x8, addend: 0x0, symName: __ZNSt3__114__split_bufferI7AddressRNS_9allocatorIS1_EEED2Ev, symObjAddr: 0x2CB4, symBinAddr: 0x100006580, symSize: 0x8C }
  - { offsetInCU: 0x18DFD, offset: 0x18DFD, size: 0x8, addend: 0x0, symName: __ZNSt3__114__split_bufferI7AddressRNS_9allocatorIS1_EEE5clearB8ue170006Ev, symObjAddr: 0x2D40, symBinAddr: 0x10000660C, symSize: 0x28 }
  - { offsetInCU: 0x18E22, offset: 0x18E22, size: 0x8, addend: 0x0, symName: __ZNSt3__116allocator_traitsINS_9allocatorI7AddressEEE10deallocateB8ue170006ERS3_PS2_m, symObjAddr: 0x2D68, symBinAddr: 0x100006634, symSize: 0x34 }
  - { offsetInCU: 0x18E64, offset: 0x18E64, size: 0x8, addend: 0x0, symName: __ZNKSt3__114__split_bufferI7AddressRNS_9allocatorIS1_EEE8capacityB8ue170006Ev, symObjAddr: 0x2D9C, symBinAddr: 0x100006668, symSize: 0x40 }
  - { offsetInCU: 0x18E89, offset: 0x18E89, size: 0x8, addend: 0x0, symName: __ZNSt3__114__split_bufferI7AddressRNS_9allocatorIS1_EEE17__destruct_at_endB8ue170006EPS1_, symObjAddr: 0x2DDC, symBinAddr: 0x1000066A8, symSize: 0x2C }
  - { offsetInCU: 0x18EBB, offset: 0x18EBB, size: 0x8, addend: 0x0, symName: __ZNSt3__114__split_bufferI7AddressRNS_9allocatorIS1_EEE17__destruct_at_endB8ue170006EPS1_NS_17integral_constantIbLb0EEE, symObjAddr: 0x2E08, symBinAddr: 0x1000066D4, symSize: 0x80 }
  - { offsetInCU: 0x18EFB, offset: 0x18EFB, size: 0x8, addend: 0x0, symName: __ZNSt3__19allocatorI7AddressE10deallocateB8ue170006EPS1_m, symObjAddr: 0x2E88, symBinAddr: 0x100006754, symSize: 0x40 }
  - { offsetInCU: 0x18F3C, offset: 0x18F3C, size: 0x8, addend: 0x0, symName: __ZNKSt3__114__split_bufferI7AddressRNS_9allocatorIS1_EEE9__end_capB8ue170006Ev, symObjAddr: 0x2F44, symBinAddr: 0x100006810, symSize: 0x28 }
  - { offsetInCU: 0x18F61, offset: 0x18F61, size: 0x8, addend: 0x0, symName: __ZNKSt3__117__compressed_pairIP7AddressRNS_9allocatorIS1_EEE5firstB8ue170006Ev, symObjAddr: 0x2F6C, symBinAddr: 0x100006838, symSize: 0x24 }
  - { offsetInCU: 0x18F86, offset: 0x18F86, size: 0x8, addend: 0x0, symName: __ZN7AddressC2ERKNSt3__112basic_stringIcNS0_11char_traitsIcEENS0_9allocatorIcEEEEii, symObjAddr: 0x2F90, symBinAddr: 0x10000685C, symSize: 0x4C }
  - { offsetInCU: 0x18FD8, offset: 0x18FD8, size: 0x8, addend: 0x0, symName: __ZNKSt3__16vectorI7AddressNS_9allocatorIS1_EEE5beginB8ue170006Ev, symObjAddr: 0x2FDC, symBinAddr: 0x1000068A8, symSize: 0x30 }
  - { offsetInCU: 0x18FFE, offset: 0x18FFE, size: 0x8, addend: 0x0, symName: __ZNKSt3__16vectorI7AddressNS_9allocatorIS1_EEE3endB8ue170006Ev, symObjAddr: 0x300C, symBinAddr: 0x1000068D8, symSize: 0x30 }
  - { offsetInCU: 0x19025, offset: 0x19025, size: 0x8, addend: 0x0, symName: __ZNKSt3__111__wrap_iterIPK7AddressEdeB8ue170006Ev, symObjAddr: 0x3070, symBinAddr: 0x10000693C, symSize: 0x18 }
  - { offsetInCU: 0x1904A, offset: 0x1904A, size: 0x8, addend: 0x0, symName: __ZNK7Address5printEv, symObjAddr: 0x3088, symBinAddr: 0x100006954, symSize: 0x6C }
  - { offsetInCU: 0x1906F, offset: 0x1906F, size: 0x8, addend: 0x0, symName: __ZNSt3__111__wrap_iterIPK7AddressEppB8ue170006Ev, symObjAddr: 0x30F4, symBinAddr: 0x1000069C0, symSize: 0x20 }
  - { offsetInCU: 0x19094, offset: 0x19094, size: 0x8, addend: 0x0, symName: __ZNKSt3__16vectorI7AddressNS_9allocatorIS1_EEE11__make_iterB8ue170006EPKS1_, symObjAddr: 0x3114, symBinAddr: 0x1000069E0, symSize: 0x30 }
  - { offsetInCU: 0x190C8, offset: 0x190C8, size: 0x8, addend: 0x0, symName: __ZNSt3__111__wrap_iterIPK7AddressEC1B8ue170006ES3_, symObjAddr: 0x3144, symBinAddr: 0x100006A10, symSize: 0x34 }
  - { offsetInCU: 0x190FF, offset: 0x190FF, size: 0x8, addend: 0x0, symName: __ZNSt3__111__wrap_iterIPK7AddressEC2B8ue170006ES3_, symObjAddr: 0x3178, symBinAddr: 0x100006A44, symSize: 0x20 }
  - { offsetInCU: 0x19136, offset: 0x19136, size: 0x8, addend: 0x0, symName: __ZNKSt3__111__wrap_iterIPK7AddressE4baseB8ue170006Ev, symObjAddr: 0x31E0, symBinAddr: 0x100006AAC, symSize: 0x18 }
  - { offsetInCU: 0x1915B, offset: 0x1915B, size: 0x8, addend: 0x0, symName: __ZN5GraphC2Ev, symObjAddr: 0x31F8, symBinAddr: 0x100006AC4, symSize: 0x2C }
  - { offsetInCU: 0x19186, offset: 0x19186, size: 0x8, addend: 0x0, symName: __ZNSt3__16vectorINS_4pairI7AddressNS0_INS1_IS2_dEENS_9allocatorIS3_EEEEEENS4_IS7_EEEC1B8ue170006Ev, symObjAddr: 0x3224, symBinAddr: 0x100006AF0, symSize: 0x2C }
  - { offsetInCU: 0x191AF, offset: 0x191AF, size: 0x8, addend: 0x0, symName: __ZNSt3__16vectorINS_4pairI7AddressNS0_INS1_IS2_dEENS_9allocatorIS3_EEEEEENS4_IS7_EEEC2B8ue170006Ev, symObjAddr: 0x3250, symBinAddr: 0x100006B1C, symSize: 0x4C }
  - { offsetInCU: 0x191D8, offset: 0x191D8, size: 0x8, addend: 0x0, symName: __ZNSt3__117__compressed_pairIPNS_4pairI7AddressNS_6vectorINS1_IS2_dEENS_9allocatorIS4_EEEEEENS5_IS8_EEEC1B8ue170006IDnNS_18__default_init_tagEEEOT_OT0_, symObjAddr: 0x329C, symBinAddr: 0x100006B68, symSize: 0x3C }
  - { offsetInCU: 0x1922F, offset: 0x1922F, size: 0x8, addend: 0x0, symName: __ZNSt3__117__compressed_pairIPNS_4pairI7AddressNS_6vectorINS1_IS2_dEENS_9allocatorIS4_EEEEEENS5_IS8_EEEC2B8ue170006IDnNS_18__default_init_tagEEEOT_OT0_, symObjAddr: 0x32D8, symBinAddr: 0x100006BA4, symSize: 0x40 }
  - { offsetInCU: 0x19286, offset: 0x19286, size: 0x8, addend: 0x0, symName: __ZNSt3__122__compressed_pair_elemIPNS_4pairI7AddressNS_6vectorINS1_IS2_dEENS_9allocatorIS4_EEEEEELi0ELb0EEC2B8ue170006IDnvEEOT_, symObjAddr: 0x3318, symBinAddr: 0x100006BE4, symSize: 0x1C }
  - { offsetInCU: 0x192C7, offset: 0x192C7, size: 0x8, addend: 0x0, symName: __ZNSt3__122__compressed_pair_elemINS_9allocatorINS_4pairI7AddressNS_6vectorINS2_IS3_dEENS1_IS5_EEEEEEEELi1ELb1EEC2B8ue170006ENS_18__default_init_tagE, symObjAddr: 0x3334, symBinAddr: 0x100006C00, symSize: 0x2C }
  - { offsetInCU: 0x192FB, offset: 0x192FB, size: 0x8, addend: 0x0, symName: __ZNSt3__19allocatorINS_4pairI7AddressNS_6vectorINS1_IS2_dEENS0_IS4_EEEEEEEC2B8ue170006Ev, symObjAddr: 0x3360, symBinAddr: 0x100006C2C, symSize: 0x2C }
  - { offsetInCU: 0x19324, offset: 0x19324, size: 0x8, addend: 0x0, symName: __ZNSt3__116__non_trivial_ifILb1ENS_9allocatorINS_4pairI7AddressNS_6vectorINS2_IS3_dEENS1_IS5_EEEEEEEEEC2B8ue170006Ev, symObjAddr: 0x338C, symBinAddr: 0x100006C58, symSize: 0x14 }
  - { offsetInCU: 0x1934D, offset: 0x1934D, size: 0x8, addend: 0x0, symName: __ZNKSt3__111__wrap_iterIP7AddressE4baseB8ue170006Ev, symObjAddr: 0x33E8, symBinAddr: 0x100006CB4, symSize: 0x18 }
  - { offsetInCU: 0x19371, offset: 0x19371, size: 0x8, addend: 0x0, symName: __ZNSt3__16vectorINS_4pairI7AddressNS0_INS1_IS2_dEENS_9allocatorIS3_EEEEEENS4_IS7_EEE9push_backB8ue170006EOS7_, symObjAddr: 0x3400, symBinAddr: 0x100006CCC, symSize: 0x6C }
  - { offsetInCU: 0x193A7, offset: 0x193A7, size: 0x8, addend: 0x0, symName: __ZNSt3__16vectorINS_4pairI7AddressdEENS_9allocatorIS3_EEEC1B8ue170006Ev, symObjAddr: 0x346C, symBinAddr: 0x100006D38, symSize: 0x2C }
  - { offsetInCU: 0x193D0, offset: 0x193D0, size: 0x8, addend: 0x0, symName: __ZNSt3__14pairI7AddressNS_6vectorINS0_IS1_dEENS_9allocatorIS3_EEEEEC1B8ue170006ILb1ELPv0EEERKS1_RKS6_, symObjAddr: 0x3498, symBinAddr: 0x100006D64, symSize: 0x3C }
  - { offsetInCU: 0x19425, offset: 0x19425, size: 0x8, addend: 0x0, symName: __ZNSt3__14pairI7AddressNS_6vectorINS0_IS1_dEENS_9allocatorIS3_EEEEED1Ev, symObjAddr: 0x34D4, symBinAddr: 0x100006DA0, symSize: 0x2C }
  - { offsetInCU: 0x19450, offset: 0x19450, size: 0x8, addend: 0x0, symName: __ZNSt3__16vectorINS_4pairI7AddressdEENS_9allocatorIS3_EEED1B8ue170006Ev, symObjAddr: 0x3500, symBinAddr: 0x100006DCC, symSize: 0x2C }
  - { offsetInCU: 0x19479, offset: 0x19479, size: 0x8, addend: 0x0, symName: __ZNSt3__16vectorINS_4pairI7AddressNS0_INS1_IS2_dEENS_9allocatorIS3_EEEEEENS4_IS7_EEE9__end_capB8ue170006Ev, symObjAddr: 0x352C, symBinAddr: 0x100006DF8, symSize: 0x28 }
  - { offsetInCU: 0x1949E, offset: 0x1949E, size: 0x8, addend: 0x0, symName: __ZNSt3__16vectorINS_4pairI7AddressNS0_INS1_IS2_dEENS_9allocatorIS3_EEEEEENS4_IS7_EEE22__construct_one_at_endB8ue170006IJS7_EEEvDpOT_, symObjAddr: 0x3554, symBinAddr: 0x100006E20, symSize: 0x90 }
  - { offsetInCU: 0x194EB, offset: 0x194EB, size: 0x8, addend: 0x0, symName: __ZNSt3__16vectorINS_4pairI7AddressNS0_INS1_IS2_dEENS_9allocatorIS3_EEEEEENS4_IS7_EEE21__push_back_slow_pathIS7_EEvOT_, symObjAddr: 0x35E4, symBinAddr: 0x100006EB0, symSize: 0xD8 }
  - { offsetInCU: 0x19548, offset: 0x19548, size: 0x8, addend: 0x0, symName: __ZNSt3__117__compressed_pairIPNS_4pairI7AddressNS_6vectorINS1_IS2_dEENS_9allocatorIS4_EEEEEENS5_IS8_EEE5firstB8ue170006Ev, symObjAddr: 0x36BC, symBinAddr: 0x100006F88, symSize: 0x24 }
  - { offsetInCU: 0x1956D, offset: 0x1956D, size: 0x8, addend: 0x0, symName: __ZNSt3__122__compressed_pair_elemIPNS_4pairI7AddressNS_6vectorINS1_IS2_dEENS_9allocatorIS4_EEEEEELi0ELb0EE5__getB8ue170006Ev, symObjAddr: 0x36E0, symBinAddr: 0x100006FAC, symSize: 0x14 }
  - { offsetInCU: 0x195AB, offset: 0x195AB, size: 0x8, addend: 0x0, symName: __ZNSt3__16vectorINS_4pairI7AddressNS0_INS1_IS2_dEENS_9allocatorIS3_EEEEEENS4_IS7_EEE21_ConstructTransactionC1B8ue170006ERS9_m, symObjAddr: 0x36F4, symBinAddr: 0x100006FC0, symSize: 0x3C }
  - { offsetInCU: 0x195F2, offset: 0x195F2, size: 0x8, addend: 0x0, symName: __ZNSt3__116allocator_traitsINS_9allocatorINS_4pairI7AddressNS_6vectorINS2_IS3_dEENS1_IS5_EEEEEEEEE9constructB8ue170006IS8_JS8_EvEEvRS9_PT_DpOT0_, symObjAddr: 0x3730, symBinAddr: 0x100006FFC, symSize: 0x34 }
  - { offsetInCU: 0x19649, offset: 0x19649, size: 0x8, addend: 0x0, symName: __ZNSt3__16vectorINS_4pairI7AddressNS0_INS1_IS2_dEENS_9allocatorIS3_EEEEEENS4_IS7_EEE7__allocB8ue170006Ev, symObjAddr: 0x3764, symBinAddr: 0x100007030, symSize: 0x28 }
  - { offsetInCU: 0x1966E, offset: 0x1966E, size: 0x8, addend: 0x0, symName: __ZNSt3__16vectorINS_4pairI7AddressNS0_INS1_IS2_dEENS_9allocatorIS3_EEEEEENS4_IS7_EEE21_ConstructTransactionD1B8ue170006Ev, symObjAddr: 0x37A0, symBinAddr: 0x10000706C, symSize: 0x2C }
  - { offsetInCU: 0x19697, offset: 0x19697, size: 0x8, addend: 0x0, symName: __ZNSt3__16vectorINS_4pairI7AddressNS0_INS1_IS2_dEENS_9allocatorIS3_EEEEEENS4_IS7_EEE21_ConstructTransactionC2B8ue170006ERS9_m, symObjAddr: 0x37CC, symBinAddr: 0x100007098, symSize: 0x4C }
  - { offsetInCU: 0x196DE, offset: 0x196DE, size: 0x8, addend: 0x0, symName: __ZNSt3__19allocatorINS_4pairI7AddressNS_6vectorINS1_IS2_dEENS0_IS4_EEEEEEE9constructB8ue170006IS7_JS7_EEEvPT_DpOT0_, symObjAddr: 0x3818, symBinAddr: 0x1000070E4, symSize: 0x30 }
  - { offsetInCU: 0x19733, offset: 0x19733, size: 0x8, addend: 0x0, symName: __ZNSt3__14pairI7AddressNS_6vectorINS0_IS1_dEENS_9allocatorIS3_EEEEEC1B8ue170006EOS7_, symObjAddr: 0x3848, symBinAddr: 0x100007114, symSize: 0x34 }
  - { offsetInCU: 0x19767, offset: 0x19767, size: 0x8, addend: 0x0, symName: __ZNSt3__14pairI7AddressNS_6vectorINS0_IS1_dEENS_9allocatorIS3_EEEEEC2B8ue170006EOS7_, symObjAddr: 0x387C, symBinAddr: 0x100007148, symSize: 0x48 }
  - { offsetInCU: 0x1979B, offset: 0x1979B, size: 0x8, addend: 0x0, symName: __ZNSt3__16vectorINS_4pairI7AddressdEENS_9allocatorIS3_EEEC1B8ue170006EOS6_, symObjAddr: 0x38C4, symBinAddr: 0x100007190, symSize: 0x34 }
  - { offsetInCU: 0x197D5, offset: 0x197D5, size: 0x8, addend: 0x0, symName: __ZNSt3__16vectorINS_4pairI7AddressdEENS_9allocatorIS3_EEEC2B8ue170006EOS6_, symObjAddr: 0x38F8, symBinAddr: 0x1000071C4, symSize: 0xC4 }
  - { offsetInCU: 0x1980F, offset: 0x1980F, size: 0x8, addend: 0x0, symName: __ZNSt3__16vectorINS_4pairI7AddressdEENS_9allocatorIS3_EEE7__allocB8ue170006Ev, symObjAddr: 0x39BC, symBinAddr: 0x100007288, symSize: 0x28 }
  - { offsetInCU: 0x19839, offset: 0x19839, size: 0x8, addend: 0x0, symName: __ZNSt3__117__compressed_pairIPNS_4pairI7AddressdEENS_9allocatorIS3_EEEC1B8ue170006IDnS6_EEOT_OT0_, symObjAddr: 0x39E4, symBinAddr: 0x1000072B0, symSize: 0x3C }
  - { offsetInCU: 0x19890, offset: 0x19890, size: 0x8, addend: 0x0, symName: __ZNSt3__16vectorINS_4pairI7AddressdEENS_9allocatorIS3_EEE9__end_capB8ue170006Ev, symObjAddr: 0x3A20, symBinAddr: 0x1000072EC, symSize: 0x28 }
  - { offsetInCU: 0x198B5, offset: 0x198B5, size: 0x8, addend: 0x0, symName: __ZNSt3__117__compressed_pairIPNS_4pairI7AddressdEENS_9allocatorIS3_EEE6secondB8ue170006Ev, symObjAddr: 0x3A48, symBinAddr: 0x100007314, symSize: 0x24 }
  - { offsetInCU: 0x198DA, offset: 0x198DA, size: 0x8, addend: 0x0, symName: __ZNSt3__122__compressed_pair_elemINS_9allocatorINS_4pairI7AddressdEEEELi1ELb1EE5__getB8ue170006Ev, symObjAddr: 0x3A6C, symBinAddr: 0x100007338, symSize: 0x14 }
  - { offsetInCU: 0x198FF, offset: 0x198FF, size: 0x8, addend: 0x0, symName: __ZNSt3__117__compressed_pairIPNS_4pairI7AddressdEENS_9allocatorIS3_EEEC2B8ue170006IDnS6_EEOT_OT0_, symObjAddr: 0x3A80, symBinAddr: 0x10000734C, symSize: 0x44 }
  - { offsetInCU: 0x19956, offset: 0x19956, size: 0x8, addend: 0x0, symName: __ZNSt3__122__compressed_pair_elemIPNS_4pairI7AddressdEELi0ELb0EEC2B8ue170006IDnvEEOT_, symObjAddr: 0x3AC4, symBinAddr: 0x100007390, symSize: 0x1C }
  - { offsetInCU: 0x19997, offset: 0x19997, size: 0x8, addend: 0x0, symName: __ZNSt3__122__compressed_pair_elemINS_9allocatorINS_4pairI7AddressdEEEELi1ELb1EEC2B8ue170006IS5_vEEOT_, symObjAddr: 0x3AE0, symBinAddr: 0x1000073AC, symSize: 0x18 }
  - { offsetInCU: 0x199D8, offset: 0x199D8, size: 0x8, addend: 0x0, symName: __ZNSt3__117__compressed_pairIPNS_4pairI7AddressdEENS_9allocatorIS3_EEE5firstB8ue170006Ev, symObjAddr: 0x3AF8, symBinAddr: 0x1000073C4, symSize: 0x24 }
  - { offsetInCU: 0x199FD, offset: 0x199FD, size: 0x8, addend: 0x0, symName: __ZNSt3__122__compressed_pair_elemIPNS_4pairI7AddressdEELi0ELb0EE5__getB8ue170006Ev, symObjAddr: 0x3B1C, symBinAddr: 0x1000073E8, symSize: 0x14 }
  - { offsetInCU: 0x19A22, offset: 0x19A22, size: 0x8, addend: 0x0, symName: __ZNSt3__117__compressed_pairIPNS_4pairI7AddressNS_6vectorINS1_IS2_dEENS_9allocatorIS4_EEEEEENS5_IS8_EEE6secondB8ue170006Ev, symObjAddr: 0x3B30, symBinAddr: 0x1000073FC, symSize: 0x24 }
  - { offsetInCU: 0x19A47, offset: 0x19A47, size: 0x8, addend: 0x0, symName: __ZNSt3__122__compressed_pair_elemINS_9allocatorINS_4pairI7AddressNS_6vectorINS2_IS3_dEENS1_IS5_EEEEEEEELi1ELb1EE5__getB8ue170006Ev, symObjAddr: 0x3B54, symBinAddr: 0x100007420, symSize: 0x14 }
  - { offsetInCU: 0x19A6C, offset: 0x19A6C, size: 0x8, addend: 0x0, symName: __ZNSt3__16vectorINS_4pairI7AddressNS0_INS1_IS2_dEENS_9allocatorIS3_EEEEEENS4_IS7_EEE21_ConstructTransactionD2B8ue170006Ev, symObjAddr: 0x3B68, symBinAddr: 0x100007434, symSize: 0x20 }
  - { offsetInCU: 0x19A94, offset: 0x19A94, size: 0x8, addend: 0x0, symName: __ZNKSt3__16vectorINS_4pairI7AddressNS0_INS1_IS2_dEENS_9allocatorIS3_EEEEEENS4_IS7_EEE11__recommendB8ue170006Em, symObjAddr: 0x3B88, symBinAddr: 0x100007454, symSize: 0xB4 }
  - { offsetInCU: 0x19AE8, offset: 0x19AE8, size: 0x8, addend: 0x0, symName: __ZNKSt3__16vectorINS_4pairI7AddressNS0_INS1_IS2_dEENS_9allocatorIS3_EEEEEENS4_IS7_EEE4sizeB8ue170006Ev, symObjAddr: 0x3C3C, symBinAddr: 0x100007508, symSize: 0x28 }
  - { offsetInCU: 0x19B0D, offset: 0x19B0D, size: 0x8, addend: 0x0, symName: __ZNSt3__114__split_bufferINS_4pairI7AddressNS_6vectorINS1_IS2_dEENS_9allocatorIS4_EEEEEERNS5_IS8_EEEC1EmmSA_, symObjAddr: 0x3C64, symBinAddr: 0x100007530, symSize: 0x44 }
  - { offsetInCU: 0x19B62, offset: 0x19B62, size: 0x8, addend: 0x0, symName: __ZNSt3__114__split_bufferINS_4pairI7AddressNS_6vectorINS1_IS2_dEENS_9allocatorIS4_EEEEEERNS5_IS8_EEED1Ev, symObjAddr: 0x3DB8, symBinAddr: 0x100007684, symSize: 0x2C }
  - { offsetInCU: 0x19B8C, offset: 0x19B8C, size: 0x8, addend: 0x0, symName: __ZNKSt3__16vectorINS_4pairI7AddressNS0_INS1_IS2_dEENS_9allocatorIS3_EEEEEENS4_IS7_EEE8max_sizeEv, symObjAddr: 0x3DE4, symBinAddr: 0x1000076B0, symSize: 0x60 }
  - { offsetInCU: 0x19BB3, offset: 0x19BB3, size: 0x8, addend: 0x0, symName: __ZNKSt3__16vectorINS_4pairI7AddressNS0_INS1_IS2_dEENS_9allocatorIS3_EEEEEENS4_IS7_EEE20__throw_length_errorB8ue170006Ev, symObjAddr: 0x3E44, symBinAddr: 0x100007710, symSize: 0x1C }
  - { offsetInCU: 0x19BD8, offset: 0x19BD8, size: 0x8, addend: 0x0, symName: __ZNKSt3__16vectorINS_4pairI7AddressNS0_INS1_IS2_dEENS_9allocatorIS3_EEEEEENS4_IS7_EEE8capacityB8ue170006Ev, symObjAddr: 0x3E60, symBinAddr: 0x10000772C, symSize: 0x40 }
  - { offsetInCU: 0x19C07, offset: 0x19C07, size: 0x8, addend: 0x0, symName: __ZNSt3__116allocator_traitsINS_9allocatorINS_4pairI7AddressNS_6vectorINS2_IS3_dEENS1_IS5_EEEEEEEEE8max_sizeB8ue170006IS9_vEEmRKS9_, symObjAddr: 0x3EA0, symBinAddr: 0x10000776C, symSize: 0x24 }
  - { offsetInCU: 0x19C35, offset: 0x19C35, size: 0x8, addend: 0x0, symName: __ZNKSt3__16vectorINS_4pairI7AddressNS0_INS1_IS2_dEENS_9allocatorIS3_EEEEEENS4_IS7_EEE7__allocB8ue170006Ev, symObjAddr: 0x3EC4, symBinAddr: 0x100007790, symSize: 0x28 }
  - { offsetInCU: 0x19C5A, offset: 0x19C5A, size: 0x8, addend: 0x0, symName: __ZNKSt3__19allocatorINS_4pairI7AddressNS_6vectorINS1_IS2_dEENS0_IS4_EEEEEEE8max_sizeB8ue170006Ev, symObjAddr: 0x3EEC, symBinAddr: 0x1000077B8, symSize: 0x20 }
  - { offsetInCU: 0x19C7F, offset: 0x19C7F, size: 0x8, addend: 0x0, symName: __ZNKSt3__117__compressed_pairIPNS_4pairI7AddressNS_6vectorINS1_IS2_dEENS_9allocatorIS4_EEEEEENS5_IS8_EEE6secondB8ue170006Ev, symObjAddr: 0x3F0C, symBinAddr: 0x1000077D8, symSize: 0x24 }
  - { offsetInCU: 0x19CA4, offset: 0x19CA4, size: 0x8, addend: 0x0, symName: __ZNKSt3__122__compressed_pair_elemINS_9allocatorINS_4pairI7AddressNS_6vectorINS2_IS3_dEENS1_IS5_EEEEEEEELi1ELb1EE5__getB8ue170006Ev, symObjAddr: 0x3F30, symBinAddr: 0x1000077FC, symSize: 0x14 }
  - { offsetInCU: 0x19CC9, offset: 0x19CC9, size: 0x8, addend: 0x0, symName: __ZNKSt3__16vectorINS_4pairI7AddressNS0_INS1_IS2_dEENS_9allocatorIS3_EEEEEENS4_IS7_EEE9__end_capB8ue170006Ev, symObjAddr: 0x3F44, symBinAddr: 0x100007810, symSize: 0x28 }
  - { offsetInCU: 0x19CEE, offset: 0x19CEE, size: 0x8, addend: 0x0, symName: __ZNKSt3__117__compressed_pairIPNS_4pairI7AddressNS_6vectorINS1_IS2_dEENS_9allocatorIS4_EEEEEENS5_IS8_EEE5firstB8ue170006Ev, symObjAddr: 0x3F6C, symBinAddr: 0x100007838, symSize: 0x24 }
  - { offsetInCU: 0x19D13, offset: 0x19D13, size: 0x8, addend: 0x0, symName: __ZNKSt3__122__compressed_pair_elemIPNS_4pairI7AddressNS_6vectorINS1_IS2_dEENS_9allocatorIS4_EEEEEELi0ELb0EE5__getB8ue170006Ev, symObjAddr: 0x3F90, symBinAddr: 0x10000785C, symSize: 0x14 }
  - { offsetInCU: 0x19D38, offset: 0x19D38, size: 0x8, addend: 0x0, symName: __ZNSt3__114__split_bufferINS_4pairI7AddressNS_6vectorINS1_IS2_dEENS_9allocatorIS4_EEEEEERNS5_IS8_EEEC2EmmSA_, symObjAddr: 0x3FA4, symBinAddr: 0x100007870, symSize: 0xE0 }
  - { offsetInCU: 0x19DAB, offset: 0x19DAB, size: 0x8, addend: 0x0, symName: __ZNSt3__117__compressed_pairIPNS_4pairI7AddressNS_6vectorINS1_IS2_dEENS_9allocatorIS4_EEEEEERNS5_IS8_EEEC1B8ue170006IDnSB_EEOT_OT0_, symObjAddr: 0x4084, symBinAddr: 0x100007950, symSize: 0x3C }
  - { offsetInCU: 0x19E02, offset: 0x19E02, size: 0x8, addend: 0x0, symName: __ZNSt3__114__split_bufferINS_4pairI7AddressNS_6vectorINS1_IS2_dEENS_9allocatorIS4_EEEEEERNS5_IS8_EEE7__allocB8ue170006Ev, symObjAddr: 0x4100, symBinAddr: 0x1000079CC, symSize: 0x28 }
  - { offsetInCU: 0x19E27, offset: 0x19E27, size: 0x8, addend: 0x0, symName: __ZNSt3__114__split_bufferINS_4pairI7AddressNS_6vectorINS1_IS2_dEENS_9allocatorIS4_EEEEEERNS5_IS8_EEE9__end_capB8ue170006Ev, symObjAddr: 0x4128, symBinAddr: 0x1000079F4, symSize: 0x28 }
  - { offsetInCU: 0x19E4C, offset: 0x19E4C, size: 0x8, addend: 0x0, symName: __ZNSt3__117__compressed_pairIPNS_4pairI7AddressNS_6vectorINS1_IS2_dEENS_9allocatorIS4_EEEEEERNS5_IS8_EEEC2B8ue170006IDnSB_EEOT_OT0_, symObjAddr: 0x4150, symBinAddr: 0x100007A1C, symSize: 0x48 }
  - { offsetInCU: 0x19EA3, offset: 0x19EA3, size: 0x8, addend: 0x0, symName: __ZNSt3__122__compressed_pair_elemIRNS_9allocatorINS_4pairI7AddressNS_6vectorINS2_IS3_dEENS1_IS5_EEEEEEEELi1ELb0EEC2B8ue170006ISA_vEEOT_, symObjAddr: 0x4198, symBinAddr: 0x100007A64, symSize: 0x20 }
  - { offsetInCU: 0x19EE4, offset: 0x19EE4, size: 0x8, addend: 0x0, symName: __ZNSt3__19allocatorINS_4pairI7AddressNS_6vectorINS1_IS2_dEENS0_IS4_EEEEEEE8allocateB8ue170006Em, symObjAddr: 0x41B8, symBinAddr: 0x100007A84, symSize: 0x5C }
  - { offsetInCU: 0x19F17, offset: 0x19F17, size: 0x8, addend: 0x0, symName: __ZNSt3__117__compressed_pairIPNS_4pairI7AddressNS_6vectorINS1_IS2_dEENS_9allocatorIS4_EEEEEERNS5_IS8_EEE6secondB8ue170006Ev, symObjAddr: 0x4214, symBinAddr: 0x100007AE0, symSize: 0x28 }
  - { offsetInCU: 0x19F3C, offset: 0x19F3C, size: 0x8, addend: 0x0, symName: __ZNSt3__122__compressed_pair_elemIRNS_9allocatorINS_4pairI7AddressNS_6vectorINS2_IS3_dEENS1_IS5_EEEEEEEELi1ELb0EE5__getB8ue170006Ev, symObjAddr: 0x423C, symBinAddr: 0x100007B08, symSize: 0x18 }
  - { offsetInCU: 0x19F61, offset: 0x19F61, size: 0x8, addend: 0x0, symName: __ZNSt3__117__compressed_pairIPNS_4pairI7AddressNS_6vectorINS1_IS2_dEENS_9allocatorIS4_EEEEEERNS5_IS8_EEE5firstB8ue170006Ev, symObjAddr: 0x4254, symBinAddr: 0x100007B20, symSize: 0x24 }
  - { offsetInCU: 0x19F86, offset: 0x19F86, size: 0x8, addend: 0x0, symName: __ZNKSt3__16vectorINS_4pairI7AddressNS0_INS1_IS2_dEENS_9allocatorIS3_EEEEEENS4_IS7_EEE17__annotate_deleteB8ue170006Ev, symObjAddr: 0x4278, symBinAddr: 0x100007B44, symSize: 0xD4 }
  - { offsetInCU: 0x19FAB, offset: 0x19FAB, size: 0x8, addend: 0x0, symName: __ZNSt3__116reverse_iteratorIPNS_4pairI7AddressNS_6vectorINS1_IS2_dEENS_9allocatorIS4_EEEEEEEC1B8ue170006ES9_, symObjAddr: 0x4478, symBinAddr: 0x100007D44, symSize: 0x34 }
  - { offsetInCU: 0x19FE2, offset: 0x19FE2, size: 0x8, addend: 0x0, symName: __ZNKSt3__116reverse_iteratorIPNS_4pairI7AddressNS_6vectorINS1_IS2_dEENS_9allocatorIS4_EEEEEEE4baseB8ue170006Ev, symObjAddr: 0x44AC, symBinAddr: 0x100007D78, symSize: 0x18 }
  - { offsetInCU: 0x1A007, offset: 0x1A007, size: 0x8, addend: 0x0, symName: __ZNKSt3__16vectorINS_4pairI7AddressNS0_INS1_IS2_dEENS_9allocatorIS3_EEEEEENS4_IS7_EEE14__annotate_newB8ue170006Em, symObjAddr: 0x4500, symBinAddr: 0x100007DCC, symSize: 0xC8 }
  - { offsetInCU: 0x1A03B, offset: 0x1A03B, size: 0x8, addend: 0x0, symName: __ZNKSt3__16vectorINS_4pairI7AddressNS0_INS1_IS2_dEENS_9allocatorIS3_EEEEEENS4_IS7_EEE31__annotate_contiguous_containerB8ue170006EPKvSB_SB_SB_, symObjAddr: 0x45C8, symBinAddr: 0x100007E94, symSize: 0x20 }
  - { offsetInCU: 0x1A090, offset: 0x1A090, size: 0x8, addend: 0x0, symName: __ZNKSt3__16vectorINS_4pairI7AddressNS0_INS1_IS2_dEENS_9allocatorIS3_EEEEEENS4_IS7_EEE4dataB8ue170006Ev, symObjAddr: 0x45E8, symBinAddr: 0x100007EB4, symSize: 0x28 }
  - { offsetInCU: 0x1A0B5, offset: 0x1A0B5, size: 0x8, addend: 0x0, symName: __ZNSt3__129_AllocatorDestroyRangeReverseINS_9allocatorINS_4pairI7AddressNS_6vectorINS2_IS3_dEENS1_IS5_EEEEEEEENS_16reverse_iteratorIPS8_EEEC1B8ue170006ERS9_RSC_SF_, symObjAddr: 0x465C, symBinAddr: 0x100007F28, symSize: 0x44 }
  - { offsetInCU: 0x1A10B, offset: 0x1A10B, size: 0x8, addend: 0x0, symName: __ZNKSt3__116reverse_iteratorIPNS_4pairI7AddressNS_6vectorINS1_IS2_dEENS_9allocatorIS4_EEEEEEEdeB8ue170006Ev, symObjAddr: 0x470C, symBinAddr: 0x100007FD8, symSize: 0x28 }
  - { offsetInCU: 0x1A13E, offset: 0x1A13E, size: 0x8, addend: 0x0, symName: __ZNSt3__116reverse_iteratorIPNS_4pairI7AddressNS_6vectorINS1_IS2_dEENS_9allocatorIS4_EEEEEEEppB8ue170006Ev, symObjAddr: 0x4734, symBinAddr: 0x100008000, symSize: 0x20 }
  - { offsetInCU: 0x1A163, offset: 0x1A163, size: 0x8, addend: 0x0, symName: __ZNSt3__128__exception_guard_exceptionsINS_29_AllocatorDestroyRangeReverseINS_9allocatorINS_4pairI7AddressNS_6vectorINS3_IS4_dEENS2_IS6_EEEEEEEENS_16reverse_iteratorIPS9_EEEEE10__completeB8ue170006Ev, symObjAddr: 0x4754, symBinAddr: 0x100008020, symSize: 0x1C }
  - { offsetInCU: 0x1A188, offset: 0x1A188, size: 0x8, addend: 0x0, symName: __ZNSt3__128__exception_guard_exceptionsINS_29_AllocatorDestroyRangeReverseINS_9allocatorINS_4pairI7AddressNS_6vectorINS3_IS4_dEENS2_IS6_EEEEEEEENS_16reverse_iteratorIPS9_EEEEED1B8ue170006Ev, symObjAddr: 0x4770, symBinAddr: 0x10000803C, symSize: 0x2C }
  - { offsetInCU: 0x1A1B1, offset: 0x1A1B1, size: 0x8, addend: 0x0, symName: __ZNSt3__128__exception_guard_exceptionsINS_29_AllocatorDestroyRangeReverseINS_9allocatorINS_4pairI7AddressNS_6vectorINS3_IS4_dEENS2_IS6_EEEEEEEENS_16reverse_iteratorIPS9_EEEEEC1B8ue170006ESE_, symObjAddr: 0x479C, symBinAddr: 0x100008068, symSize: 0x34 }
  - { offsetInCU: 0x1A1E9, offset: 0x1A1E9, size: 0x8, addend: 0x0, symName: __ZNSt3__128__exception_guard_exceptionsINS_29_AllocatorDestroyRangeReverseINS_9allocatorINS_4pairI7AddressNS_6vectorINS3_IS4_dEENS2_IS6_EEEEEEEENS_16reverse_iteratorIPS9_EEEEEC2B8ue170006ESE_, symObjAddr: 0x47D0, symBinAddr: 0x10000809C, symSize: 0x30 }
  - { offsetInCU: 0x1A221, offset: 0x1A221, size: 0x8, addend: 0x0, symName: __ZNSt3__129_AllocatorDestroyRangeReverseINS_9allocatorINS_4pairI7AddressNS_6vectorINS2_IS3_dEENS1_IS5_EEEEEEEENS_16reverse_iteratorIPS8_EEEC2B8ue170006ERS9_RSC_SF_, symObjAddr: 0x4800, symBinAddr: 0x1000080CC, symSize: 0x38 }
  - { offsetInCU: 0x1A27C, offset: 0x1A27C, size: 0x8, addend: 0x0, symName: __ZNSt3__119__to_address_helperINS_16reverse_iteratorIPNS_4pairI7AddressNS_6vectorINS2_IS3_dEENS_9allocatorIS5_EEEEEEEEvE6__callB8ue170006ERKSB_, symObjAddr: 0x4838, symBinAddr: 0x100008104, symSize: 0x38 }
  - { offsetInCU: 0x1A29F, offset: 0x1A29F, size: 0x8, addend: 0x0, symName: __ZNKSt3__116reverse_iteratorIPNS_4pairI7AddressNS_6vectorINS1_IS2_dEENS_9allocatorIS4_EEEEEEEptB8ue170006Ev, symObjAddr: 0x4870, symBinAddr: 0x10000813C, symSize: 0x24 }
  - { offsetInCU: 0x1A2C4, offset: 0x1A2C4, size: 0x8, addend: 0x0, symName: __ZNSt3__128__exception_guard_exceptionsINS_29_AllocatorDestroyRangeReverseINS_9allocatorINS_4pairI7AddressNS_6vectorINS3_IS4_dEENS2_IS6_EEEEEEEENS_16reverse_iteratorIPS9_EEEEED2B8ue170006Ev, symObjAddr: 0x4894, symBinAddr: 0x100008160, symSize: 0x50 }
  - { offsetInCU: 0x1A2ED, offset: 0x1A2ED, size: 0x8, addend: 0x0, symName: __ZNKSt3__129_AllocatorDestroyRangeReverseINS_9allocatorINS_4pairI7AddressNS_6vectorINS2_IS3_dEENS1_IS5_EEEEEEEENS_16reverse_iteratorIPS8_EEEclB8ue170006Ev, symObjAddr: 0x48E4, symBinAddr: 0x1000081B0, symSize: 0xB4 }
  - { offsetInCU: 0x1A313, offset: 0x1A313, size: 0x8, addend: 0x0, symName: __ZNSt3__116reverse_iteratorINS0_IPNS_4pairI7AddressNS_6vectorINS1_IS2_dEENS_9allocatorIS4_EEEEEEEEEC1B8ue170006ESA_, symObjAddr: 0x4A08, symBinAddr: 0x1000082D4, symSize: 0x3C }
  - { offsetInCU: 0x1A34A, offset: 0x1A34A, size: 0x8, addend: 0x0, symName: __ZNSt3__116allocator_traitsINS_9allocatorINS_4pairI7AddressNS_6vectorINS2_IS3_dEENS1_IS5_EEEEEEEEE7destroyB8ue170006IS8_vEEvRS9_PT_, symObjAddr: 0x4AA4, symBinAddr: 0x100008370, symSize: 0x2C }
  - { offsetInCU: 0x1A387, offset: 0x1A387, size: 0x8, addend: 0x0, symName: __ZNSt3__116reverse_iteratorINS0_IPNS_4pairI7AddressNS_6vectorINS1_IS2_dEENS_9allocatorIS4_EEEEEEEEEppB8ue170006Ev, symObjAddr: 0x4AF4, symBinAddr: 0x1000083C0, symSize: 0x30 }
  - { offsetInCU: 0x1A3AC, offset: 0x1A3AC, size: 0x8, addend: 0x0, symName: __ZNKSt3__116reverse_iteratorINS0_IPNS_4pairI7AddressNS_6vectorINS1_IS2_dEENS_9allocatorIS4_EEEEEEEEE4baseB8ue170006Ev, symObjAddr: 0x4B24, symBinAddr: 0x1000083F0, symSize: 0x24 }
  - { offsetInCU: 0x1A3D1, offset: 0x1A3D1, size: 0x8, addend: 0x0, symName: __ZNSt3__19allocatorINS_4pairI7AddressNS_6vectorINS1_IS2_dEENS0_IS4_EEEEEEE7destroyB8ue170006EPS7_, symObjAddr: 0x4B48, symBinAddr: 0x100008414, symSize: 0x28 }
  - { offsetInCU: 0x1A409, offset: 0x1A409, size: 0x8, addend: 0x0, symName: __ZNSt3__119__to_address_helperINS_16reverse_iteratorINS1_IPNS_4pairI7AddressNS_6vectorINS2_IS3_dEENS_9allocatorIS5_EEEEEEEEEEvE6__callB8ue170006ERKSC_, symObjAddr: 0x4B70, symBinAddr: 0x10000843C, symSize: 0x38 }
  - { offsetInCU: 0x1A42C, offset: 0x1A42C, size: 0x8, addend: 0x0, symName: __ZNKSt3__116reverse_iteratorINS0_IPNS_4pairI7AddressNS_6vectorINS1_IS2_dEENS_9allocatorIS4_EEEEEEEEEptB8ue170006Ev, symObjAddr: 0x4BA8, symBinAddr: 0x100008474, symSize: 0x24 }
  - { offsetInCU: 0x1A451, offset: 0x1A451, size: 0x8, addend: 0x0, symName: __ZNKSt3__116reverse_iteratorINS0_IPNS_4pairI7AddressNS_6vectorINS1_IS2_dEENS_9allocatorIS4_EEEEEEEEEdeB8ue170006Ev, symObjAddr: 0x4BCC, symBinAddr: 0x100008498, symSize: 0x34 }
  - { offsetInCU: 0x1A484, offset: 0x1A484, size: 0x8, addend: 0x0, symName: __ZNSt3__116reverse_iteratorIPNS_4pairI7AddressNS_6vectorINS1_IS2_dEENS_9allocatorIS4_EEEEEEEmmB8ue170006Ev, symObjAddr: 0x4C00, symBinAddr: 0x1000084CC, symSize: 0x20 }
  - { offsetInCU: 0x1A4A9, offset: 0x1A4A9, size: 0x8, addend: 0x0, symName: __ZNSt3__116reverse_iteratorINS0_IPNS_4pairI7AddressNS_6vectorINS1_IS2_dEENS_9allocatorIS4_EEEEEEEEEC2B8ue170006ESA_, symObjAddr: 0x4C20, symBinAddr: 0x1000084EC, symSize: 0x2C }
  - { offsetInCU: 0x1A4E0, offset: 0x1A4E0, size: 0x8, addend: 0x0, symName: __ZNSt3__116reverse_iteratorIPNS_4pairI7AddressNS_6vectorINS1_IS2_dEENS_9allocatorIS4_EEEEEEEC2B8ue170006ES9_, symObjAddr: 0x4C4C, symBinAddr: 0x100008518, symSize: 0x28 }
  - { offsetInCU: 0x1A517, offset: 0x1A517, size: 0x8, addend: 0x0, symName: __ZNSt3__114__split_bufferINS_4pairI7AddressNS_6vectorINS1_IS2_dEENS_9allocatorIS4_EEEEEERNS5_IS8_EEED2Ev, symObjAddr: 0x4C74, symBinAddr: 0x100008540, symSize: 0x8C }
  - { offsetInCU: 0x1A542, offset: 0x1A542, size: 0x8, addend: 0x0, symName: __ZNSt3__114__split_bufferINS_4pairI7AddressNS_6vectorINS1_IS2_dEENS_9allocatorIS4_EEEEEERNS5_IS8_EEE5clearB8ue170006Ev, symObjAddr: 0x4D00, symBinAddr: 0x1000085CC, symSize: 0x28 }
  - { offsetInCU: 0x1A567, offset: 0x1A567, size: 0x8, addend: 0x0, symName: __ZNSt3__116allocator_traitsINS_9allocatorINS_4pairI7AddressNS_6vectorINS2_IS3_dEENS1_IS5_EEEEEEEEE10deallocateB8ue170006ERS9_PS8_m, symObjAddr: 0x4D28, symBinAddr: 0x1000085F4, symSize: 0x34 }
  - { offsetInCU: 0x1A5A9, offset: 0x1A5A9, size: 0x8, addend: 0x0, symName: __ZNKSt3__114__split_bufferINS_4pairI7AddressNS_6vectorINS1_IS2_dEENS_9allocatorIS4_EEEEEERNS5_IS8_EEE8capacityB8ue170006Ev, symObjAddr: 0x4D5C, symBinAddr: 0x100008628, symSize: 0x40 }
  - { offsetInCU: 0x1A5CE, offset: 0x1A5CE, size: 0x8, addend: 0x0, symName: __ZNSt3__114__split_bufferINS_4pairI7AddressNS_6vectorINS1_IS2_dEENS_9allocatorIS4_EEEEEERNS5_IS8_EEE17__destruct_at_endB8ue170006EPS8_, symObjAddr: 0x4D9C, symBinAddr: 0x100008668, symSize: 0x2C }
  - { offsetInCU: 0x1A600, offset: 0x1A600, size: 0x8, addend: 0x0, symName: __ZNSt3__114__split_bufferINS_4pairI7AddressNS_6vectorINS1_IS2_dEENS_9allocatorIS4_EEEEEERNS5_IS8_EEE17__destruct_at_endB8ue170006EPS8_NS_17integral_constantIbLb0EEE, symObjAddr: 0x4DC8, symBinAddr: 0x100008694, symSize: 0x80 }
  - { offsetInCU: 0x1A640, offset: 0x1A640, size: 0x8, addend: 0x0, symName: __ZNSt3__19allocatorINS_4pairI7AddressNS_6vectorINS1_IS2_dEENS0_IS4_EEEEEEE10deallocateB8ue170006EPS7_m, symObjAddr: 0x4E48, symBinAddr: 0x100008714, symSize: 0x44 }
  - { offsetInCU: 0x1A681, offset: 0x1A681, size: 0x8, addend: 0x0, symName: __ZNKSt3__114__split_bufferINS_4pairI7AddressNS_6vectorINS1_IS2_dEENS_9allocatorIS4_EEEEEERNS5_IS8_EEE9__end_capB8ue170006Ev, symObjAddr: 0x4E8C, symBinAddr: 0x100008758, symSize: 0x28 }
  - { offsetInCU: 0x1A6A6, offset: 0x1A6A6, size: 0x8, addend: 0x0, symName: __ZNKSt3__117__compressed_pairIPNS_4pairI7AddressNS_6vectorINS1_IS2_dEENS_9allocatorIS4_EEEEEERNS5_IS8_EEE5firstB8ue170006Ev, symObjAddr: 0x4EB4, symBinAddr: 0x100008780, symSize: 0x24 }
  - { offsetInCU: 0x1A6CB, offset: 0x1A6CB, size: 0x8, addend: 0x0, symName: __ZNSt3__16vectorINS_4pairI7AddressdEENS_9allocatorIS3_EEEC2B8ue170006Ev, symObjAddr: 0x4ED8, symBinAddr: 0x1000087A4, symSize: 0x4C }
  - { offsetInCU: 0x1A6F4, offset: 0x1A6F4, size: 0x8, addend: 0x0, symName: __ZNSt3__117__compressed_pairIPNS_4pairI7AddressdEENS_9allocatorIS3_EEEC1B8ue170006IDnNS_18__default_init_tagEEEOT_OT0_, symObjAddr: 0x4F24, symBinAddr: 0x1000087F0, symSize: 0x3C }
  - { offsetInCU: 0x1A74B, offset: 0x1A74B, size: 0x8, addend: 0x0, symName: __ZNSt3__117__compressed_pairIPNS_4pairI7AddressdEENS_9allocatorIS3_EEEC2B8ue170006IDnNS_18__default_init_tagEEEOT_OT0_, symObjAddr: 0x4F60, symBinAddr: 0x10000882C, symSize: 0x40 }
  - { offsetInCU: 0x1A7A2, offset: 0x1A7A2, size: 0x8, addend: 0x0, symName: __ZNSt3__122__compressed_pair_elemINS_9allocatorINS_4pairI7AddressdEEEELi1ELb1EEC2B8ue170006ENS_18__default_init_tagE, symObjAddr: 0x4FA0, symBinAddr: 0x10000886C, symSize: 0x2C }
  - { offsetInCU: 0x1A7D6, offset: 0x1A7D6, size: 0x8, addend: 0x0, symName: __ZNSt3__19allocatorINS_4pairI7AddressdEEEC2B8ue170006Ev, symObjAddr: 0x4FCC, symBinAddr: 0x100008898, symSize: 0x2C }
  - { offsetInCU: 0x1A7FF, offset: 0x1A7FF, size: 0x8, addend: 0x0, symName: __ZNSt3__116__non_trivial_ifILb1ENS_9allocatorINS_4pairI7AddressdEEEEEC2B8ue170006Ev, symObjAddr: 0x4FF8, symBinAddr: 0x1000088C4, symSize: 0x14 }
  - { offsetInCU: 0x1A828, offset: 0x1A828, size: 0x8, addend: 0x0, symName: __ZNSt3__14pairI7AddressNS_6vectorINS0_IS1_dEENS_9allocatorIS3_EEEEEC2B8ue170006ILb1ELPv0EEERKS1_RKS6_, symObjAddr: 0x500C, symBinAddr: 0x1000088D8, symSize: 0x70 }
  - { offsetInCU: 0x1A87D, offset: 0x1A87D, size: 0x8, addend: 0x0, symName: __ZNSt3__16vectorINS_4pairI7AddressdEENS_9allocatorIS3_EEEC1ERKS6_, symObjAddr: 0x507C, symBinAddr: 0x100008948, symSize: 0x34 }
  - { offsetInCU: 0x1A8B7, offset: 0x1A8B7, size: 0x8, addend: 0x0, symName: __ZNSt3__16vectorINS_4pairI7AddressdEENS_9allocatorIS3_EEEC2ERKS6_, symObjAddr: 0x50B0, symBinAddr: 0x10000897C, symSize: 0x94 }
  - { offsetInCU: 0x1A8FB, offset: 0x1A8FB, size: 0x8, addend: 0x0, symName: __ZNSt3__116allocator_traitsINS_9allocatorINS_4pairI7AddressdEEEEE37select_on_container_copy_constructionB8ue170006IS5_vvEES5_RKS5_, symObjAddr: 0x5144, symBinAddr: 0x100008A10, symSize: 0x10 }
  - { offsetInCU: 0x1A92A, offset: 0x1A92A, size: 0x8, addend: 0x0, symName: __ZNKSt3__16vectorINS_4pairI7AddressdEENS_9allocatorIS3_EEE7__allocB8ue170006Ev, symObjAddr: 0x5154, symBinAddr: 0x100008A20, symSize: 0x28 }
  - { offsetInCU: 0x1A94F, offset: 0x1A94F, size: 0x8, addend: 0x0, symName: __ZNSt3__16vectorINS_4pairI7AddressdEENS_9allocatorIS3_EEE16__init_with_sizeB8ue170006IPS3_S8_EEvT_T0_m, symObjAddr: 0x517C, symBinAddr: 0x100008A48, symSize: 0xB8 }
  - { offsetInCU: 0x1A9C2, offset: 0x1A9C2, size: 0x8, addend: 0x0, symName: __ZNKSt3__16vectorINS_4pairI7AddressdEENS_9allocatorIS3_EEE4sizeB8ue170006Ev, symObjAddr: 0x5234, symBinAddr: 0x100008B00, symSize: 0x28 }
  - { offsetInCU: 0x1A9E7, offset: 0x1A9E7, size: 0x8, addend: 0x0, symName: __ZNKSt3__117__compressed_pairIPNS_4pairI7AddressdEENS_9allocatorIS3_EEE6secondB8ue170006Ev, symObjAddr: 0x525C, symBinAddr: 0x100008B28, symSize: 0x24 }
  - { offsetInCU: 0x1AA0C, offset: 0x1AA0C, size: 0x8, addend: 0x0, symName: __ZNKSt3__122__compressed_pair_elemINS_9allocatorINS_4pairI7AddressdEEEELi1ELb1EE5__getB8ue170006Ev, symObjAddr: 0x5280, symBinAddr: 0x100008B4C, symSize: 0x14 }
  - { offsetInCU: 0x1AA31, offset: 0x1AA31, size: 0x8, addend: 0x0, symName: __ZNSt3__16vectorINS_4pairI7AddressdEENS_9allocatorIS3_EEE16__destroy_vectorC1B8ue170006ERS6_, symObjAddr: 0x52D4, symBinAddr: 0x100008BA0, symSize: 0x34 }
  - { offsetInCU: 0x1AA69, offset: 0x1AA69, size: 0x8, addend: 0x0, symName: __ZNSt3__16vectorINS_4pairI7AddressdEENS_9allocatorIS3_EEE11__vallocateB8ue170006Em, symObjAddr: 0x5308, symBinAddr: 0x100008BD4, symSize: 0xB4 }
  - { offsetInCU: 0x1AAAB, offset: 0x1AAAB, size: 0x8, addend: 0x0, symName: __ZNSt3__16vectorINS_4pairI7AddressdEENS_9allocatorIS3_EEE18__construct_at_endIPS3_S8_EEvT_T0_m, symObjAddr: 0x53BC, symBinAddr: 0x100008C88, symSize: 0x8C }
  - { offsetInCU: 0x1AB20, offset: 0x1AB20, size: 0x8, addend: 0x0, symName: __ZNSt3__128__exception_guard_exceptionsINS_6vectorINS_4pairI7AddressdEENS_9allocatorIS4_EEE16__destroy_vectorEE10__completeB8ue170006Ev, symObjAddr: 0x5448, symBinAddr: 0x100008D14, symSize: 0x1C }
  - { offsetInCU: 0x1AB45, offset: 0x1AB45, size: 0x8, addend: 0x0, symName: __ZNSt3__128__exception_guard_exceptionsINS_6vectorINS_4pairI7AddressdEENS_9allocatorIS4_EEE16__destroy_vectorEED1B8ue170006Ev, symObjAddr: 0x5464, symBinAddr: 0x100008D30, symSize: 0x2C }
  - { offsetInCU: 0x1AB6E, offset: 0x1AB6E, size: 0x8, addend: 0x0, symName: __ZNSt3__128__exception_guard_exceptionsINS_6vectorINS_4pairI7AddressdEENS_9allocatorIS4_EEE16__destroy_vectorEEC1B8ue170006ES8_, symObjAddr: 0x5490, symBinAddr: 0x100008D5C, symSize: 0x34 }
  - { offsetInCU: 0x1ABA5, offset: 0x1ABA5, size: 0x8, addend: 0x0, symName: __ZNSt3__128__exception_guard_exceptionsINS_6vectorINS_4pairI7AddressdEENS_9allocatorIS4_EEE16__destroy_vectorEEC2B8ue170006ES8_, symObjAddr: 0x54C4, symBinAddr: 0x100008D90, symSize: 0x24 }
  - { offsetInCU: 0x1ABDC, offset: 0x1ABDC, size: 0x8, addend: 0x0, symName: __ZNSt3__16vectorINS_4pairI7AddressdEENS_9allocatorIS3_EEE16__destroy_vectorC2B8ue170006ERS6_, symObjAddr: 0x54E8, symBinAddr: 0x100008DB4, symSize: 0x20 }
  - { offsetInCU: 0x1AC13, offset: 0x1AC13, size: 0x8, addend: 0x0, symName: __ZNKSt3__16vectorINS_4pairI7AddressdEENS_9allocatorIS3_EEE8max_sizeEv, symObjAddr: 0x5508, symBinAddr: 0x100008DD4, symSize: 0x60 }
  - { offsetInCU: 0x1AC3A, offset: 0x1AC3A, size: 0x8, addend: 0x0, symName: __ZNKSt3__16vectorINS_4pairI7AddressdEENS_9allocatorIS3_EEE20__throw_length_errorB8ue170006Ev, symObjAddr: 0x5568, symBinAddr: 0x100008E34, symSize: 0x1C }
  - { offsetInCU: 0x1AC5F, offset: 0x1AC5F, size: 0x8, addend: 0x0, symName: __ZNKSt3__16vectorINS_4pairI7AddressdEENS_9allocatorIS3_EEE14__annotate_newB8ue170006Em, symObjAddr: 0x55C4, symBinAddr: 0x100008E90, symSize: 0xC8 }
  - { offsetInCU: 0x1AC93, offset: 0x1AC93, size: 0x8, addend: 0x0, symName: __ZNSt3__116allocator_traitsINS_9allocatorINS_4pairI7AddressdEEEEE8max_sizeB8ue170006IS5_vEEmRKS5_, symObjAddr: 0x568C, symBinAddr: 0x100008F58, symSize: 0x24 }
  - { offsetInCU: 0x1ACC1, offset: 0x1ACC1, size: 0x8, addend: 0x0, symName: __ZNKSt3__19allocatorINS_4pairI7AddressdEEE8max_sizeB8ue170006Ev, symObjAddr: 0x56B0, symBinAddr: 0x100008F7C, symSize: 0x18 }
  - { offsetInCU: 0x1ACE6, offset: 0x1ACE6, size: 0x8, addend: 0x0, symName: __ZNSt3__19allocatorINS_4pairI7AddressdEEE8allocateB8ue170006Em, symObjAddr: 0x56C8, symBinAddr: 0x100008F94, symSize: 0x5C }
  - { offsetInCU: 0x1AD19, offset: 0x1AD19, size: 0x8, addend: 0x0, symName: __ZNKSt3__16vectorINS_4pairI7AddressdEENS_9allocatorIS3_EEE31__annotate_contiguous_containerB8ue170006EPKvS8_S8_S8_, symObjAddr: 0x5724, symBinAddr: 0x100008FF0, symSize: 0x20 }
  - { offsetInCU: 0x1AD6E, offset: 0x1AD6E, size: 0x8, addend: 0x0, symName: __ZNKSt3__16vectorINS_4pairI7AddressdEENS_9allocatorIS3_EEE4dataB8ue170006Ev, symObjAddr: 0x5744, symBinAddr: 0x100009010, symSize: 0x28 }
  - { offsetInCU: 0x1AD93, offset: 0x1AD93, size: 0x8, addend: 0x0, symName: __ZNKSt3__16vectorINS_4pairI7AddressdEENS_9allocatorIS3_EEE8capacityB8ue170006Ev, symObjAddr: 0x576C, symBinAddr: 0x100009038, symSize: 0x40 }
  - { offsetInCU: 0x1ADB8, offset: 0x1ADB8, size: 0x8, addend: 0x0, symName: __ZNKSt3__16vectorINS_4pairI7AddressdEENS_9allocatorIS3_EEE9__end_capB8ue170006Ev, symObjAddr: 0x57C0, symBinAddr: 0x10000908C, symSize: 0x28 }
  - { offsetInCU: 0x1ADDD, offset: 0x1ADDD, size: 0x8, addend: 0x0, symName: __ZNKSt3__117__compressed_pairIPNS_4pairI7AddressdEENS_9allocatorIS3_EEE5firstB8ue170006Ev, symObjAddr: 0x57E8, symBinAddr: 0x1000090B4, symSize: 0x24 }
  - { offsetInCU: 0x1AE02, offset: 0x1AE02, size: 0x8, addend: 0x0, symName: __ZNKSt3__122__compressed_pair_elemIPNS_4pairI7AddressdEELi0ELb0EE5__getB8ue170006Ev, symObjAddr: 0x580C, symBinAddr: 0x1000090D8, symSize: 0x14 }
  - { offsetInCU: 0x1AE40, offset: 0x1AE40, size: 0x8, addend: 0x0, symName: __ZNSt3__16vectorINS_4pairI7AddressdEENS_9allocatorIS3_EEE21_ConstructTransactionC1B8ue170006ERS6_m, symObjAddr: 0x5820, symBinAddr: 0x1000090EC, symSize: 0x3C }
  - { offsetInCU: 0x1AE87, offset: 0x1AE87, size: 0x8, addend: 0x0, symName: __ZNSt3__16vectorINS_4pairI7AddressdEENS_9allocatorIS3_EEE21_ConstructTransactionD1B8ue170006Ev, symObjAddr: 0x58DC, symBinAddr: 0x1000091A8, symSize: 0x2C }
  - { offsetInCU: 0x1AEB0, offset: 0x1AEB0, size: 0x8, addend: 0x0, symName: __ZNSt3__16vectorINS_4pairI7AddressdEENS_9allocatorIS3_EEE21_ConstructTransactionC2B8ue170006ERS6_m, symObjAddr: 0x5908, symBinAddr: 0x1000091D4, symSize: 0x4C }
  - { offsetInCU: 0x1AF15, offset: 0x1AF15, size: 0x8, addend: 0x0, symName: __ZNSt3__14pairIPNS0_I7AddressdEES3_EC1B8ue170006IS3_S3_LPv0EEEOT_OT0_, symObjAddr: 0x5B40, symBinAddr: 0x10000940C, symSize: 0x3C }
  - { offsetInCU: 0x1AF72, offset: 0x1AF72, size: 0x8, addend: 0x0, symName: __ZNSt3__14pairIPNS0_I7AddressdEES3_EC2B8ue170006IS3_S3_LPv0EEEOT_OT0_, symObjAddr: 0x5B7C, symBinAddr: 0x100009448, symSize: 0x34 }
  - { offsetInCU: 0x1AFCF, offset: 0x1AFCF, size: 0x8, addend: 0x0, symName: __ZNSt3__129_AllocatorDestroyRangeReverseINS_9allocatorINS_4pairI7AddressdEEEEPS4_EC1B8ue170006ERS5_RS6_S9_, symObjAddr: 0x5BFC, symBinAddr: 0x1000094C8, symSize: 0x44 }
  - { offsetInCU: 0x1B025, offset: 0x1B025, size: 0x8, addend: 0x0, symName: __ZNSt3__116allocator_traitsINS_9allocatorINS_4pairI7AddressdEEEEE9constructB8ue170006IS4_JRS4_EvEEvRS5_PT_DpOT0_, symObjAddr: 0x5C40, symBinAddr: 0x10000950C, symSize: 0x34 }
  - { offsetInCU: 0x1B07C, offset: 0x1B07C, size: 0x8, addend: 0x0, symName: __ZNSt3__128__exception_guard_exceptionsINS_29_AllocatorDestroyRangeReverseINS_9allocatorINS_4pairI7AddressdEEEEPS5_EEE10__completeB8ue170006Ev, symObjAddr: 0x5C74, symBinAddr: 0x100009540, symSize: 0x1C }
  - { offsetInCU: 0x1B0A1, offset: 0x1B0A1, size: 0x8, addend: 0x0, symName: __ZNSt3__128__exception_guard_exceptionsINS_29_AllocatorDestroyRangeReverseINS_9allocatorINS_4pairI7AddressdEEEEPS5_EEED1B8ue170006Ev, symObjAddr: 0x5C90, symBinAddr: 0x10000955C, symSize: 0x2C }
  - { offsetInCU: 0x1B0CA, offset: 0x1B0CA, size: 0x8, addend: 0x0, symName: __ZNSt3__128__exception_guard_exceptionsINS_29_AllocatorDestroyRangeReverseINS_9allocatorINS_4pairI7AddressdEEEEPS5_EEEC1B8ue170006ES8_, symObjAddr: 0x5CBC, symBinAddr: 0x100009588, symSize: 0x34 }
  - { offsetInCU: 0x1B102, offset: 0x1B102, size: 0x8, addend: 0x0, symName: __ZNSt3__128__exception_guard_exceptionsINS_29_AllocatorDestroyRangeReverseINS_9allocatorINS_4pairI7AddressdEEEEPS5_EEEC2B8ue170006ES8_, symObjAddr: 0x5CF0, symBinAddr: 0x1000095BC, symSize: 0x30 }
  - { offsetInCU: 0x1B13A, offset: 0x1B13A, size: 0x8, addend: 0x0, symName: __ZNSt3__129_AllocatorDestroyRangeReverseINS_9allocatorINS_4pairI7AddressdEEEEPS4_EC2B8ue170006ERS5_RS6_S9_, symObjAddr: 0x5D20, symBinAddr: 0x1000095EC, symSize: 0x38 }
  - { offsetInCU: 0x1B190, offset: 0x1B190, size: 0x8, addend: 0x0, symName: __ZNSt3__19allocatorINS_4pairI7AddressdEEE9constructB8ue170006IS3_JRS3_EEEvPT_DpOT0_, symObjAddr: 0x5D58, symBinAddr: 0x100009624, symSize: 0x30 }
  - { offsetInCU: 0x1B1E5, offset: 0x1B1E5, size: 0x8, addend: 0x0, symName: __ZNSt3__14pairI7AddressdEC1B8ue170006ERKS2_, symObjAddr: 0x5D88, symBinAddr: 0x100009654, symSize: 0x34 }
  - { offsetInCU: 0x1B219, offset: 0x1B219, size: 0x8, addend: 0x0, symName: __ZNSt3__14pairI7AddressdEC2B8ue170006ERKS2_, symObjAddr: 0x5DBC, symBinAddr: 0x100009688, symSize: 0x40 }
  - { offsetInCU: 0x1B24D, offset: 0x1B24D, size: 0x8, addend: 0x0, symName: __ZNSt3__128__exception_guard_exceptionsINS_29_AllocatorDestroyRangeReverseINS_9allocatorINS_4pairI7AddressdEEEEPS5_EEED2B8ue170006Ev, symObjAddr: 0x5DFC, symBinAddr: 0x1000096C8, symSize: 0x50 }
  - { offsetInCU: 0x1B276, offset: 0x1B276, size: 0x8, addend: 0x0, symName: __ZNKSt3__129_AllocatorDestroyRangeReverseINS_9allocatorINS_4pairI7AddressdEEEEPS4_EclB8ue170006Ev, symObjAddr: 0x5E4C, symBinAddr: 0x100009718, symSize: 0x68 }
  - { offsetInCU: 0x1B29B, offset: 0x1B29B, size: 0x8, addend: 0x0, symName: __ZNSt3__116reverse_iteratorIPNS_4pairI7AddressdEEEC1B8ue170006ES4_, symObjAddr: 0x5F24, symBinAddr: 0x1000097F0, symSize: 0x34 }
  - { offsetInCU: 0x1B2D2, offset: 0x1B2D2, size: 0x8, addend: 0x0, symName: __ZNSt3__116allocator_traitsINS_9allocatorINS_4pairI7AddressdEEEEE7destroyB8ue170006IS4_vEEvRS5_PT_, symObjAddr: 0x5FA0, symBinAddr: 0x10000986C, symSize: 0x2C }
  - { offsetInCU: 0x1B30F, offset: 0x1B30F, size: 0x8, addend: 0x0, symName: __ZNSt3__116reverse_iteratorIPNS_4pairI7AddressdEEEppB8ue170006Ev, symObjAddr: 0x5FF0, symBinAddr: 0x1000098BC, symSize: 0x20 }
  - { offsetInCU: 0x1B334, offset: 0x1B334, size: 0x8, addend: 0x0, symName: __ZNKSt3__116reverse_iteratorIPNS_4pairI7AddressdEEE4baseB8ue170006Ev, symObjAddr: 0x6010, symBinAddr: 0x1000098DC, symSize: 0x18 }
  - { offsetInCU: 0x1B359, offset: 0x1B359, size: 0x8, addend: 0x0, symName: __ZNSt3__19allocatorINS_4pairI7AddressdEEE7destroyB8ue170006EPS3_, symObjAddr: 0x6028, symBinAddr: 0x1000098F4, symSize: 0x28 }
  - { offsetInCU: 0x1B38C, offset: 0x1B38C, size: 0x8, addend: 0x0, symName: __ZNSt3__14pairI7AddressdED1Ev, symObjAddr: 0x6050, symBinAddr: 0x10000991C, symSize: 0x2C }
  - { offsetInCU: 0x1B3B7, offset: 0x1B3B7, size: 0x8, addend: 0x0, symName: __ZNSt3__14pairI7AddressdED2Ev, symObjAddr: 0x607C, symBinAddr: 0x100009948, symSize: 0x2C }
  - { offsetInCU: 0x1B3E7, offset: 0x1B3E7, size: 0x8, addend: 0x0, symName: __ZNSt3__119__to_address_helperINS_16reverse_iteratorIPNS_4pairI7AddressdEEEEvE6__callB8ue170006ERKS6_, symObjAddr: 0x60A8, symBinAddr: 0x100009974, symSize: 0x38 }
  - { offsetInCU: 0x1B40A, offset: 0x1B40A, size: 0x8, addend: 0x0, symName: __ZNKSt3__116reverse_iteratorIPNS_4pairI7AddressdEEEptB8ue170006Ev, symObjAddr: 0x60E0, symBinAddr: 0x1000099AC, symSize: 0x24 }
  - { offsetInCU: 0x1B42F, offset: 0x1B42F, size: 0x8, addend: 0x0, symName: __ZNKSt3__116reverse_iteratorIPNS_4pairI7AddressdEEEdeB8ue170006Ev, symObjAddr: 0x6104, symBinAddr: 0x1000099D0, symSize: 0x28 }
  - { offsetInCU: 0x1B462, offset: 0x1B462, size: 0x8, addend: 0x0, symName: __ZNSt3__116reverse_iteratorIPNS_4pairI7AddressdEEEC2B8ue170006ES4_, symObjAddr: 0x612C, symBinAddr: 0x1000099F8, symSize: 0x28 }
  - { offsetInCU: 0x1B499, offset: 0x1B499, size: 0x8, addend: 0x0, symName: __ZNSt3__118__unwrap_iter_implIPNS_4pairI7AddressdEELb1EE8__unwrapB8ue170006ES4_, symObjAddr: 0x6154, symBinAddr: 0x100009A20, symSize: 0x24 }
  - { offsetInCU: 0x1B4BC, offset: 0x1B4BC, size: 0x8, addend: 0x0, symName: __ZNSt3__118__unwrap_iter_implIPNS_4pairI7AddressdEELb1EE8__rewrapB8ue170006ES4_S4_, symObjAddr: 0x6178, symBinAddr: 0x100009A44, symSize: 0x58 }
  - { offsetInCU: 0x1B4ED, offset: 0x1B4ED, size: 0x8, addend: 0x0, symName: __ZNSt3__16vectorINS_4pairI7AddressdEENS_9allocatorIS3_EEE21_ConstructTransactionD2B8ue170006Ev, symObjAddr: 0x61D0, symBinAddr: 0x100009A9C, symSize: 0x20 }
  - { offsetInCU: 0x1B516, offset: 0x1B516, size: 0x8, addend: 0x0, symName: __ZNSt3__128__exception_guard_exceptionsINS_6vectorINS_4pairI7AddressdEENS_9allocatorIS4_EEE16__destroy_vectorEED2B8ue170006Ev, symObjAddr: 0x61F0, symBinAddr: 0x100009ABC, symSize: 0x50 }
  - { offsetInCU: 0x1B53F, offset: 0x1B53F, size: 0x8, addend: 0x0, symName: __ZNSt3__16vectorINS_4pairI7AddressdEENS_9allocatorIS3_EEE16__destroy_vectorclB8ue170006Ev, symObjAddr: 0x6240, symBinAddr: 0x100009B0C, symSize: 0x90 }
  - { offsetInCU: 0x1B564, offset: 0x1B564, size: 0x8, addend: 0x0, symName: __ZNSt3__16vectorINS_4pairI7AddressdEENS_9allocatorIS3_EEE7__clearB8ue170006Ev, symObjAddr: 0x62D0, symBinAddr: 0x100009B9C, symSize: 0x28 }
  - { offsetInCU: 0x1B589, offset: 0x1B589, size: 0x8, addend: 0x0, symName: __ZNKSt3__16vectorINS_4pairI7AddressdEENS_9allocatorIS3_EEE17__annotate_deleteB8ue170006Ev, symObjAddr: 0x62F8, symBinAddr: 0x100009BC4, symSize: 0xD4 }
  - { offsetInCU: 0x1B5AE, offset: 0x1B5AE, size: 0x8, addend: 0x0, symName: __ZNSt3__116allocator_traitsINS_9allocatorINS_4pairI7AddressdEEEEE10deallocateB8ue170006ERS5_PS4_m, symObjAddr: 0x63CC, symBinAddr: 0x100009C98, symSize: 0x34 }
  - { offsetInCU: 0x1B5F0, offset: 0x1B5F0, size: 0x8, addend: 0x0, symName: __ZNSt3__16vectorINS_4pairI7AddressdEENS_9allocatorIS3_EEE22__base_destruct_at_endB8ue170006EPS3_, symObjAddr: 0x6400, symBinAddr: 0x100009CCC, symSize: 0x8C }
  - { offsetInCU: 0x1B633, offset: 0x1B633, size: 0x8, addend: 0x0, symName: __ZNSt3__19allocatorINS_4pairI7AddressdEEE10deallocateB8ue170006EPS3_m, symObjAddr: 0x648C, symBinAddr: 0x100009D58, symSize: 0x44 }
  - { offsetInCU: 0x1B674, offset: 0x1B674, size: 0x8, addend: 0x0, symName: __ZNSt3__14pairI7AddressNS_6vectorINS0_IS1_dEENS_9allocatorIS3_EEEEED2Ev, symObjAddr: 0x64D0, symBinAddr: 0x100009D9C, symSize: 0x38 }
  - { offsetInCU: 0x1B69F, offset: 0x1B69F, size: 0x8, addend: 0x0, symName: __ZNSt3__16vectorINS_4pairI7AddressdEENS_9allocatorIS3_EEED2B8ue170006Ev, symObjAddr: 0x6508, symBinAddr: 0x100009DD4, symSize: 0x40 }
  - { offsetInCU: 0x1B6C7, offset: 0x1B6C7, size: 0x8, addend: 0x0, symName: __ZNSt3__16vectorINS_4pairI7AddressNS0_INS1_IS2_dEENS_9allocatorIS3_EEEEEENS4_IS7_EEE5beginB8ue170006Ev, symObjAddr: 0x6548, symBinAddr: 0x100009E14, symSize: 0x30 }
  - { offsetInCU: 0x1B6ED, offset: 0x1B6ED, size: 0x8, addend: 0x0, symName: __ZNSt3__16vectorINS_4pairI7AddressNS0_INS1_IS2_dEENS_9allocatorIS3_EEEEEENS4_IS7_EEE3endB8ue170006Ev, symObjAddr: 0x6578, symBinAddr: 0x100009E44, symSize: 0x30 }
  - { offsetInCU: 0x1B714, offset: 0x1B714, size: 0x8, addend: 0x0, symName: __ZNKSt3__111__wrap_iterIPNS_4pairI7AddressNS_6vectorINS1_IS2_dEENS_9allocatorIS4_EEEEEEEdeB8ue170006Ev, symObjAddr: 0x65DC, symBinAddr: 0x100009EA8, symSize: 0x18 }
  - { offsetInCU: 0x1B738, offset: 0x1B738, size: 0x8, addend: 0x0, symName: __ZNSt3__16vectorINS_4pairI7AddressdEENS_9allocatorIS3_EEE9push_backB8ue170006EOS3_, symObjAddr: 0x673C, symBinAddr: 0x10000A008, symSize: 0x6C }
  - { offsetInCU: 0x1B773, offset: 0x1B773, size: 0x8, addend: 0x0, symName: __ZNSt3__14pairI7AddressdEC1B8ue170006IRKS1_RdLPv0EEEOT_OT0_, symObjAddr: 0x67A8, symBinAddr: 0x10000A074, symSize: 0x3C }
  - { offsetInCU: 0x1B7D0, offset: 0x1B7D0, size: 0x8, addend: 0x0, symName: __ZNSt3__111__wrap_iterIPNS_4pairI7AddressNS_6vectorINS1_IS2_dEENS_9allocatorIS4_EEEEEEEppB8ue170006Ev, symObjAddr: 0x67E4, symBinAddr: 0x10000A0B0, symSize: 0x20 }
  - { offsetInCU: 0x1B7F5, offset: 0x1B7F5, size: 0x8, addend: 0x0, symName: __ZNSt3__16vectorINS_4pairI7AddressNS0_INS1_IS2_dEENS_9allocatorIS3_EEEEEENS4_IS7_EEE11__make_iterB8ue170006EPS7_, symObjAddr: 0x6804, symBinAddr: 0x10000A0D0, symSize: 0x30 }
  - { offsetInCU: 0x1B829, offset: 0x1B829, size: 0x8, addend: 0x0, symName: __ZNSt3__111__wrap_iterIPNS_4pairI7AddressNS_6vectorINS1_IS2_dEENS_9allocatorIS4_EEEEEEEC1B8ue170006ES9_, symObjAddr: 0x6834, symBinAddr: 0x10000A100, symSize: 0x34 }
  - { offsetInCU: 0x1B860, offset: 0x1B860, size: 0x8, addend: 0x0, symName: __ZNSt3__111__wrap_iterIPNS_4pairI7AddressNS_6vectorINS1_IS2_dEENS_9allocatorIS4_EEEEEEEC2B8ue170006ES9_, symObjAddr: 0x6868, symBinAddr: 0x10000A134, symSize: 0x20 }
  - { offsetInCU: 0x1B897, offset: 0x1B897, size: 0x8, addend: 0x0, symName: __ZNKSt3__111__wrap_iterIPNS_4pairI7AddressNS_6vectorINS1_IS2_dEENS_9allocatorIS4_EEEEEEE4baseB8ue170006Ev, symObjAddr: 0x68D0, symBinAddr: 0x10000A19C, symSize: 0x18 }
  - { offsetInCU: 0x1B8BC, offset: 0x1B8BC, size: 0x8, addend: 0x0, symName: __ZNKSt3__112basic_stringIcNS_11char_traitsIcEENS_9allocatorIcEEE4sizeB8ue170006Ev, symObjAddr: 0x68E8, symBinAddr: 0x10000A1B4, symSize: 0x54 }
  - { offsetInCU: 0x1B8E1, offset: 0x1B8E1, size: 0x8, addend: 0x0, symName: __ZNKSt3__112basic_stringIcNS_11char_traitsIcEENS_9allocatorIcEEE4dataB8ue170006Ev, symObjAddr: 0x693C, symBinAddr: 0x10000A208, symSize: 0x28 }
  - { offsetInCU: 0x1B906, offset: 0x1B906, size: 0x8, addend: 0x0, symName: __ZNKSt3__112basic_stringIcNS_11char_traitsIcEENS_9allocatorIcEEE9__is_longB8ue170006Ev, symObjAddr: 0x6964, symBinAddr: 0x10000A230, symSize: 0x38 }
  - { offsetInCU: 0x1B92B, offset: 0x1B92B, size: 0x8, addend: 0x0, symName: __ZNSt3__111char_traitsIcE7compareB8ue170006EPKcS3_m, symObjAddr: 0x699C, symBinAddr: 0x10000A268, symSize: 0x34 }
  - { offsetInCU: 0x1B96A, offset: 0x1B96A, size: 0x8, addend: 0x0, symName: __ZNKSt3__112basic_stringIcNS_11char_traitsIcEENS_9allocatorIcEEE15__get_long_sizeB8ue170006Ev, symObjAddr: 0x69D0, symBinAddr: 0x10000A29C, symSize: 0x28 }
  - { offsetInCU: 0x1B98F, offset: 0x1B98F, size: 0x8, addend: 0x0, symName: __ZNKSt3__112basic_stringIcNS_11char_traitsIcEENS_9allocatorIcEEE16__get_short_sizeB8ue170006Ev, symObjAddr: 0x69F8, symBinAddr: 0x10000A2C4, symSize: 0x34 }
  - { offsetInCU: 0x1B9B4, offset: 0x1B9B4, size: 0x8, addend: 0x0, symName: __ZNKSt3__117__compressed_pairINS_12basic_stringIcNS_11char_traitsIcEENS_9allocatorIcEEE5__repES5_E5firstB8ue170006Ev, symObjAddr: 0x6A2C, symBinAddr: 0x10000A2F8, symSize: 0x24 }
  - { offsetInCU: 0x1B9D9, offset: 0x1B9D9, size: 0x8, addend: 0x0, symName: __ZNKSt3__122__compressed_pair_elemINS_12basic_stringIcNS_11char_traitsIcEENS_9allocatorIcEEE5__repELi0ELb0EE5__getB8ue170006Ev, symObjAddr: 0x6A50, symBinAddr: 0x10000A31C, symSize: 0x14 }
  - { offsetInCU: 0x1B9FE, offset: 0x1B9FE, size: 0x8, addend: 0x0, symName: __ZNKSt3__112basic_stringIcNS_11char_traitsIcEENS_9allocatorIcEEE13__get_pointerB8ue170006Ev, symObjAddr: 0x6A78, symBinAddr: 0x10000A344, symSize: 0x54 }
  - { offsetInCU: 0x1BA23, offset: 0x1BA23, size: 0x8, addend: 0x0, symName: __ZNKSt3__112basic_stringIcNS_11char_traitsIcEENS_9allocatorIcEEE18__get_long_pointerB8ue170006Ev, symObjAddr: 0x6ACC, symBinAddr: 0x10000A398, symSize: 0x28 }
  - { offsetInCU: 0x1BA48, offset: 0x1BA48, size: 0x8, addend: 0x0, symName: __ZNKSt3__112basic_stringIcNS_11char_traitsIcEENS_9allocatorIcEEE19__get_short_pointerB8ue170006Ev, symObjAddr: 0x6AF4, symBinAddr: 0x10000A3C0, symSize: 0x28 }
  - { offsetInCU: 0x1BA6D, offset: 0x1BA6D, size: 0x8, addend: 0x0, symName: __ZNSt3__114pointer_traitsIPKcE10pointer_toB8ue170006ERS1_, symObjAddr: 0x6B1C, symBinAddr: 0x10000A3E8, symSize: 0x14 }
  - { offsetInCU: 0x1BA90, offset: 0x1BA90, size: 0x8, addend: 0x0, symName: __ZNSt3__16vectorINS_4pairI7AddressdEENS_9allocatorIS3_EEE22__construct_one_at_endB8ue170006IJS3_EEEvDpOT_, symObjAddr: 0x6B30, symBinAddr: 0x10000A3FC, symSize: 0x90 }
  - { offsetInCU: 0x1BADD, offset: 0x1BADD, size: 0x8, addend: 0x0, symName: __ZNSt3__16vectorINS_4pairI7AddressdEENS_9allocatorIS3_EEE21__push_back_slow_pathIS3_EEvOT_, symObjAddr: 0x6BC0, symBinAddr: 0x10000A48C, symSize: 0xD8 }
  - { offsetInCU: 0x1BB3A, offset: 0x1BB3A, size: 0x8, addend: 0x0, symName: __ZNSt3__116allocator_traitsINS_9allocatorINS_4pairI7AddressdEEEEE9constructB8ue170006IS4_JS4_EvEEvRS5_PT_DpOT0_, symObjAddr: 0x6C98, symBinAddr: 0x10000A564, symSize: 0x34 }
  - { offsetInCU: 0x1BB91, offset: 0x1BB91, size: 0x8, addend: 0x0, symName: __ZNSt3__19allocatorINS_4pairI7AddressdEEE9constructB8ue170006IS3_JS3_EEEvPT_DpOT0_, symObjAddr: 0x6CCC, symBinAddr: 0x10000A598, symSize: 0x30 }
  - { offsetInCU: 0x1BBE6, offset: 0x1BBE6, size: 0x8, addend: 0x0, symName: __ZNSt3__14pairI7AddressdEC1B8ue170006EOS2_, symObjAddr: 0x6CFC, symBinAddr: 0x10000A5C8, symSize: 0x34 }
  - { offsetInCU: 0x1BC1A, offset: 0x1BC1A, size: 0x8, addend: 0x0, symName: __ZNSt3__14pairI7AddressdEC2B8ue170006EOS2_, symObjAddr: 0x6D30, symBinAddr: 0x10000A5FC, symSize: 0x40 }
  - { offsetInCU: 0x1BC4D, offset: 0x1BC4D, size: 0x8, addend: 0x0, symName: __ZNKSt3__16vectorINS_4pairI7AddressdEENS_9allocatorIS3_EEE11__recommendB8ue170006Em, symObjAddr: 0x6D70, symBinAddr: 0x10000A63C, symSize: 0xB4 }
  - { offsetInCU: 0x1BCA1, offset: 0x1BCA1, size: 0x8, addend: 0x0, symName: __ZNSt3__114__split_bufferINS_4pairI7AddressdEERNS_9allocatorIS3_EEEC1EmmS6_, symObjAddr: 0x6E24, symBinAddr: 0x10000A6F0, symSize: 0x44 }
  - { offsetInCU: 0x1BCF6, offset: 0x1BCF6, size: 0x8, addend: 0x0, symName: __ZNSt3__114__split_bufferINS_4pairI7AddressdEERNS_9allocatorIS3_EEED1Ev, symObjAddr: 0x6F78, symBinAddr: 0x10000A844, symSize: 0x2C }
  - { offsetInCU: 0x1BD21, offset: 0x1BD21, size: 0x8, addend: 0x0, symName: __ZNSt3__114__split_bufferINS_4pairI7AddressdEERNS_9allocatorIS3_EEEC2EmmS6_, symObjAddr: 0x6FA4, symBinAddr: 0x10000A870, symSize: 0xE0 }
  - { offsetInCU: 0x1BD94, offset: 0x1BD94, size: 0x8, addend: 0x0, symName: __ZNSt3__117__compressed_pairIPNS_4pairI7AddressdEERNS_9allocatorIS3_EEEC1B8ue170006IDnS7_EEOT_OT0_, symObjAddr: 0x7084, symBinAddr: 0x10000A950, symSize: 0x3C }
  - { offsetInCU: 0x1BDEB, offset: 0x1BDEB, size: 0x8, addend: 0x0, symName: __ZNSt3__114__split_bufferINS_4pairI7AddressdEERNS_9allocatorIS3_EEE7__allocB8ue170006Ev, symObjAddr: 0x70C0, symBinAddr: 0x10000A98C, symSize: 0x28 }
  - { offsetInCU: 0x1BE10, offset: 0x1BE10, size: 0x8, addend: 0x0, symName: __ZNSt3__114__split_bufferINS_4pairI7AddressdEERNS_9allocatorIS3_EEE9__end_capB8ue170006Ev, symObjAddr: 0x70E8, symBinAddr: 0x10000A9B4, symSize: 0x28 }
  - { offsetInCU: 0x1BE35, offset: 0x1BE35, size: 0x8, addend: 0x0, symName: __ZNSt3__117__compressed_pairIPNS_4pairI7AddressdEERNS_9allocatorIS3_EEEC2B8ue170006IDnS7_EEOT_OT0_, symObjAddr: 0x7110, symBinAddr: 0x10000A9DC, symSize: 0x48 }
  - { offsetInCU: 0x1BE8C, offset: 0x1BE8C, size: 0x8, addend: 0x0, symName: __ZNSt3__122__compressed_pair_elemIRNS_9allocatorINS_4pairI7AddressdEEEELi1ELb0EEC2B8ue170006IS6_vEEOT_, symObjAddr: 0x7158, symBinAddr: 0x10000AA24, symSize: 0x20 }
  - { offsetInCU: 0x1BECD, offset: 0x1BECD, size: 0x8, addend: 0x0, symName: __ZNSt3__117__compressed_pairIPNS_4pairI7AddressdEERNS_9allocatorIS3_EEE6secondB8ue170006Ev, symObjAddr: 0x7178, symBinAddr: 0x10000AA44, symSize: 0x28 }
  - { offsetInCU: 0x1BEF2, offset: 0x1BEF2, size: 0x8, addend: 0x0, symName: __ZNSt3__122__compressed_pair_elemIRNS_9allocatorINS_4pairI7AddressdEEEELi1ELb0EE5__getB8ue170006Ev, symObjAddr: 0x71A0, symBinAddr: 0x10000AA6C, symSize: 0x18 }
  - { offsetInCU: 0x1BF17, offset: 0x1BF17, size: 0x8, addend: 0x0, symName: __ZNSt3__117__compressed_pairIPNS_4pairI7AddressdEERNS_9allocatorIS3_EEE5firstB8ue170006Ev, symObjAddr: 0x71B8, symBinAddr: 0x10000AA84, symSize: 0x24 }
  - { offsetInCU: 0x1BF3C, offset: 0x1BF3C, size: 0x8, addend: 0x0, symName: __ZNSt3__129_AllocatorDestroyRangeReverseINS_9allocatorINS_4pairI7AddressdEEEENS_16reverse_iteratorIPS4_EEEC1B8ue170006ERS5_RS8_SB_, symObjAddr: 0x7380, symBinAddr: 0x10000AC4C, symSize: 0x44 }
  - { offsetInCU: 0x1BF92, offset: 0x1BF92, size: 0x8, addend: 0x0, symName: __ZNSt3__128__exception_guard_exceptionsINS_29_AllocatorDestroyRangeReverseINS_9allocatorINS_4pairI7AddressdEEEENS_16reverse_iteratorIPS5_EEEEE10__completeB8ue170006Ev, symObjAddr: 0x73C4, symBinAddr: 0x10000AC90, symSize: 0x1C }
  - { offsetInCU: 0x1BFB7, offset: 0x1BFB7, size: 0x8, addend: 0x0, symName: __ZNSt3__128__exception_guard_exceptionsINS_29_AllocatorDestroyRangeReverseINS_9allocatorINS_4pairI7AddressdEEEENS_16reverse_iteratorIPS5_EEEEED1B8ue170006Ev, symObjAddr: 0x73E0, symBinAddr: 0x10000ACAC, symSize: 0x2C }
  - { offsetInCU: 0x1BFE0, offset: 0x1BFE0, size: 0x8, addend: 0x0, symName: __ZNSt3__128__exception_guard_exceptionsINS_29_AllocatorDestroyRangeReverseINS_9allocatorINS_4pairI7AddressdEEEENS_16reverse_iteratorIPS5_EEEEEC1B8ue170006ESA_, symObjAddr: 0x740C, symBinAddr: 0x10000ACD8, symSize: 0x34 }
  - { offsetInCU: 0x1C018, offset: 0x1C018, size: 0x8, addend: 0x0, symName: __ZNSt3__128__exception_guard_exceptionsINS_29_AllocatorDestroyRangeReverseINS_9allocatorINS_4pairI7AddressdEEEENS_16reverse_iteratorIPS5_EEEEEC2B8ue170006ESA_, symObjAddr: 0x7440, symBinAddr: 0x10000AD0C, symSize: 0x30 }
  - { offsetInCU: 0x1C050, offset: 0x1C050, size: 0x8, addend: 0x0, symName: __ZNSt3__129_AllocatorDestroyRangeReverseINS_9allocatorINS_4pairI7AddressdEEEENS_16reverse_iteratorIPS4_EEEC2B8ue170006ERS5_RS8_SB_, symObjAddr: 0x7470, symBinAddr: 0x10000AD3C, symSize: 0x38 }
  - { offsetInCU: 0x1C0A6, offset: 0x1C0A6, size: 0x8, addend: 0x0, symName: __ZNSt3__128__exception_guard_exceptionsINS_29_AllocatorDestroyRangeReverseINS_9allocatorINS_4pairI7AddressdEEEENS_16reverse_iteratorIPS5_EEEEED2B8ue170006Ev, symObjAddr: 0x74A8, symBinAddr: 0x10000AD74, symSize: 0x50 }
  - { offsetInCU: 0x1C0CF, offset: 0x1C0CF, size: 0x8, addend: 0x0, symName: __ZNKSt3__129_AllocatorDestroyRangeReverseINS_9allocatorINS_4pairI7AddressdEEEENS_16reverse_iteratorIPS4_EEEclB8ue170006Ev, symObjAddr: 0x74F8, symBinAddr: 0x10000ADC4, symSize: 0xB4 }
  - { offsetInCU: 0x1C0F5, offset: 0x1C0F5, size: 0x8, addend: 0x0, symName: __ZNSt3__116reverse_iteratorINS0_IPNS_4pairI7AddressdEEEEEC1B8ue170006ES5_, symObjAddr: 0x761C, symBinAddr: 0x10000AEE8, symSize: 0x3C }
  - { offsetInCU: 0x1C12C, offset: 0x1C12C, size: 0x8, addend: 0x0, symName: __ZNSt3__116reverse_iteratorINS0_IPNS_4pairI7AddressdEEEEEppB8ue170006Ev, symObjAddr: 0x76DC, symBinAddr: 0x10000AFA8, symSize: 0x30 }
  - { offsetInCU: 0x1C151, offset: 0x1C151, size: 0x8, addend: 0x0, symName: __ZNKSt3__116reverse_iteratorINS0_IPNS_4pairI7AddressdEEEEE4baseB8ue170006Ev, symObjAddr: 0x770C, symBinAddr: 0x10000AFD8, symSize: 0x24 }
  - { offsetInCU: 0x1C17B, offset: 0x1C17B, size: 0x8, addend: 0x0, symName: __ZNSt3__119__to_address_helperINS_16reverse_iteratorINS1_IPNS_4pairI7AddressdEEEEEEvE6__callB8ue170006ERKS7_, symObjAddr: 0x7730, symBinAddr: 0x10000AFFC, symSize: 0x38 }
  - { offsetInCU: 0x1C19E, offset: 0x1C19E, size: 0x8, addend: 0x0, symName: __ZNKSt3__116reverse_iteratorINS0_IPNS_4pairI7AddressdEEEEEptB8ue170006Ev, symObjAddr: 0x7768, symBinAddr: 0x10000B034, symSize: 0x24 }
  - { offsetInCU: 0x1C1C3, offset: 0x1C1C3, size: 0x8, addend: 0x0, symName: __ZNKSt3__116reverse_iteratorINS0_IPNS_4pairI7AddressdEEEEEdeB8ue170006Ev, symObjAddr: 0x778C, symBinAddr: 0x10000B058, symSize: 0x34 }
  - { offsetInCU: 0x1C1F6, offset: 0x1C1F6, size: 0x8, addend: 0x0, symName: __ZNSt3__116reverse_iteratorIPNS_4pairI7AddressdEEEmmB8ue170006Ev, symObjAddr: 0x77C0, symBinAddr: 0x10000B08C, symSize: 0x20 }
  - { offsetInCU: 0x1C21B, offset: 0x1C21B, size: 0x8, addend: 0x0, symName: __ZNSt3__116reverse_iteratorINS0_IPNS_4pairI7AddressdEEEEEC2B8ue170006ES5_, symObjAddr: 0x77E0, symBinAddr: 0x10000B0AC, symSize: 0x2C }
  - { offsetInCU: 0x1C252, offset: 0x1C252, size: 0x8, addend: 0x0, symName: __ZNSt3__114__split_bufferINS_4pairI7AddressdEERNS_9allocatorIS3_EEED2Ev, symObjAddr: 0x780C, symBinAddr: 0x10000B0D8, symSize: 0x8C }
  - { offsetInCU: 0x1C27D, offset: 0x1C27D, size: 0x8, addend: 0x0, symName: __ZNSt3__114__split_bufferINS_4pairI7AddressdEERNS_9allocatorIS3_EEE5clearB8ue170006Ev, symObjAddr: 0x7898, symBinAddr: 0x10000B164, symSize: 0x28 }
  - { offsetInCU: 0x1C2A2, offset: 0x1C2A2, size: 0x8, addend: 0x0, symName: __ZNKSt3__114__split_bufferINS_4pairI7AddressdEERNS_9allocatorIS3_EEE8capacityB8ue170006Ev, symObjAddr: 0x78C0, symBinAddr: 0x10000B18C, symSize: 0x40 }
  - { offsetInCU: 0x1C2C7, offset: 0x1C2C7, size: 0x8, addend: 0x0, symName: __ZNSt3__114__split_bufferINS_4pairI7AddressdEERNS_9allocatorIS3_EEE17__destruct_at_endB8ue170006EPS3_, symObjAddr: 0x7900, symBinAddr: 0x10000B1CC, symSize: 0x2C }
  - { offsetInCU: 0x1C2F9, offset: 0x1C2F9, size: 0x8, addend: 0x0, symName: __ZNSt3__114__split_bufferINS_4pairI7AddressdEERNS_9allocatorIS3_EEE17__destruct_at_endB8ue170006EPS3_NS_17integral_constantIbLb0EEE, symObjAddr: 0x792C, symBinAddr: 0x10000B1F8, symSize: 0x80 }
  - { offsetInCU: 0x1C339, offset: 0x1C339, size: 0x8, addend: 0x0, symName: __ZNKSt3__114__split_bufferINS_4pairI7AddressdEERNS_9allocatorIS3_EEE9__end_capB8ue170006Ev, symObjAddr: 0x79AC, symBinAddr: 0x10000B278, symSize: 0x28 }
  - { offsetInCU: 0x1C35E, offset: 0x1C35E, size: 0x8, addend: 0x0, symName: __ZNKSt3__117__compressed_pairIPNS_4pairI7AddressdEERNS_9allocatorIS3_EEE5firstB8ue170006Ev, symObjAddr: 0x79D4, symBinAddr: 0x10000B2A0, symSize: 0x24 }
  - { offsetInCU: 0x1C383, offset: 0x1C383, size: 0x8, addend: 0x0, symName: __ZNSt3__14pairI7AddressdEC2B8ue170006IRKS1_RdLPv0EEEOT_OT0_, symObjAddr: 0x79F8, symBinAddr: 0x10000B2C4, symSize: 0x44 }
  - { offsetInCU: 0x1C3E0, offset: 0x1C3E0, size: 0x8, addend: 0x0, symName: __ZN7AddressC2ERKS_, symObjAddr: 0x7A3C, symBinAddr: 0x10000B308, symSize: 0x40 }
  - { offsetInCU: 0x1C414, offset: 0x1C414, size: 0x8, addend: 0x0, symName: __ZN10LinkedListI4NodeEC1Ev, symObjAddr: 0x7A7C, symBinAddr: 0x10000B348, symSize: 0x2C }
  - { offsetInCU: 0x1C43D, offset: 0x1C43D, size: 0x8, addend: 0x0, symName: __ZN4NodeC1EP7Address, symObjAddr: 0x7AA8, symBinAddr: 0x10000B374, symSize: 0x34 }
  - { offsetInCU: 0x1C474, offset: 0x1C474, size: 0x8, addend: 0x0, symName: __ZN10LinkedListI4NodeE6insertEPS0_, symObjAddr: 0x7ADC, symBinAddr: 0x10000B3A8, symSize: 0x2C }
  - { offsetInCU: 0x1C547, offset: 0x1C547, size: 0x8, addend: 0x0, symName: __ZNSt3__113unordered_mapIP7AddressfNS_4hashIS2_EENS_8equal_toIS2_EENS_9allocatorINS_4pairIKS2_fEEEEEC1B8ue170006Ev, symObjAddr: 0x7B08, symBinAddr: 0x10000B3D4, symSize: 0x2C }
  - { offsetInCU: 0x1C5F7, offset: 0x1C5F7, size: 0x8, addend: 0x0, symName: __ZNSt3__113unordered_mapIP7AddressP4NodeNS_4hashIS2_EENS_8equal_toIS2_EENS_9allocatorINS_4pairIKS2_S4_EEEEEC1B8ue170006Ev, symObjAddr: 0x7B34, symBinAddr: 0x10000B400, symSize: 0x2C }
  - { offsetInCU: 0x1C61F, offset: 0x1C61F, size: 0x8, addend: 0x0, symName: __ZNSt3__113unordered_mapIP7AddressfNS_4hashIS2_EENS_8equal_toIS2_EENS_9allocatorINS_4pairIKS2_fEEEEEixERS9_, symObjAddr: 0x7B60, symBinAddr: 0x10000B42C, symSize: 0x80 }
  - { offsetInCU: 0x1C654, offset: 0x1C654, size: 0x8, addend: 0x0, symName: __ZNSt3__113unordered_mapIP7AddressP4NodeNS_4hashIS2_EENS_8equal_toIS2_EENS_9allocatorINS_4pairIKS2_S4_EEEEEixERSB_, symObjAddr: 0x7BE0, symBinAddr: 0x10000B4AC, symSize: 0x80 }
  - { offsetInCU: 0x1C68A, offset: 0x1C68A, size: 0x8, addend: 0x0, symName: __ZNK10LinkedListI4NodeE7isEmptyEv, symObjAddr: 0x7C60, symBinAddr: 0x10000B52C, symSize: 0x24 }
  - { offsetInCU: 0x1C6AF, offset: 0x1C6AF, size: 0x8, addend: 0x0, symName: __ZN10LinkedListI4NodeE18findLowestCostNodeEv, symObjAddr: 0x7C84, symBinAddr: 0x10000B550, symSize: 0xAC }
  - { offsetInCU: 0x1C6F0, offset: 0x1C6F0, size: 0x8, addend: 0x0, symName: __ZN10LinkedListI4NodeE6removeEPS0_, symObjAddr: 0x7D30, symBinAddr: 0x10000B5FC, symSize: 0xEC }
  - { offsetInCU: 0x1C73F, offset: 0x1C73F, size: 0x8, addend: 0x0, symName: __ZNK5Graph16getAdjacentNodesEPK7Address, symObjAddr: 0x7E1C, symBinAddr: 0x10000B6E8, symSize: 0x1D4 }
  - { offsetInCU: 0x1C81A, offset: 0x1C81A, size: 0x8, addend: 0x0, symName: __ZNK5Graph13getEdgeWeightEPK7AddressS2_, symObjAddr: 0x7FF0, symBinAddr: 0x10000B8BC, symSize: 0x120 }
  - { offsetInCU: 0x1C901, offset: 0x1C901, size: 0x8, addend: 0x0, symName: __ZNK10LinkedListI4NodeE8containsEPS0_, symObjAddr: 0x8110, symBinAddr: 0x10000B9DC, symSize: 0x98 }
  - { offsetInCU: 0x1C942, offset: 0x1C942, size: 0x8, addend: 0x0, symName: __ZNSt3__113unordered_mapIP7AddressfNS_4hashIS2_EENS_8equal_toIS2_EENS_9allocatorINS_4pairIKS2_fEEEEE5beginB8ue170006Ev, symObjAddr: 0x81A8, symBinAddr: 0x10000BA74, symSize: 0x38 }
  - { offsetInCU: 0x1C967, offset: 0x1C967, size: 0x8, addend: 0x0, symName: __ZNSt3__113unordered_mapIP7AddressfNS_4hashIS2_EENS_8equal_toIS2_EENS_9allocatorINS_4pairIKS2_fEEEEE3endB8ue170006Ev, symObjAddr: 0x81E0, symBinAddr: 0x10000BAAC, symSize: 0x38 }
  - { offsetInCU: 0x1C98C, offset: 0x1C98C, size: 0x8, addend: 0x0, symName: __ZNKSt3__119__hash_map_iteratorINS_15__hash_iteratorIPNS_11__hash_nodeINS_17__hash_value_typeIP7AddressfEEPvEEEEEdeB8ue170006Ev, symObjAddr: 0x8248, symBinAddr: 0x10000BB14, symSize: 0x28 }
  - { offsetInCU: 0x1C9B1, offset: 0x1C9B1, size: 0x8, addend: 0x0, symName: __ZNSt3__119__hash_map_iteratorINS_15__hash_iteratorIPNS_11__hash_nodeINS_17__hash_value_typeIP7AddressfEEPvEEEEEppB8ue170006Ev, symObjAddr: 0x82B8, symBinAddr: 0x10000BB84, symSize: 0x2C }
  - { offsetInCU: 0x1C9D6, offset: 0x1C9D6, size: 0x8, addend: 0x0, symName: __ZN5Graph15reconstructPathEP4Node, symObjAddr: 0x82E4, symBinAddr: 0x10000BBB0, symSize: 0xC4 }
  - { offsetInCU: 0x1CA25, offset: 0x1CA25, size: 0x8, addend: 0x0, symName: __ZNSt3__113unordered_mapIP7AddressP4NodeNS_4hashIS2_EENS_8equal_toIS2_EENS_9allocatorINS_4pairIKS2_S4_EEEEED1B8ue170006Ev, symObjAddr: 0x83A8, symBinAddr: 0x10000BC74, symSize: 0x2C }
  - { offsetInCU: 0x1CA4E, offset: 0x1CA4E, size: 0x8, addend: 0x0, symName: __ZNSt3__113unordered_mapIP7AddressfNS_4hashIS2_EENS_8equal_toIS2_EENS_9allocatorINS_4pairIKS2_fEEEEED1B8ue170006Ev, symObjAddr: 0x83D4, symBinAddr: 0x10000BCA0, symSize: 0x2C }
  - { offsetInCU: 0x1CA77, offset: 0x1CA77, size: 0x8, addend: 0x0, symName: __ZN10LinkedListI4NodeEC2Ev, symObjAddr: 0x8400, symBinAddr: 0x10000BCCC, symSize: 0x18 }
  - { offsetInCU: 0x1CAA0, offset: 0x1CAA0, size: 0x8, addend: 0x0, symName: __ZN4NodeC2EP7Address, symObjAddr: 0x8418, symBinAddr: 0x10000BCE4, symSize: 0x30 }
  - { offsetInCU: 0x1CAD7, offset: 0x1CAD7, size: 0x8, addend: 0x0, symName: __ZNSt3__113unordered_mapIP7AddressfNS_4hashIS2_EENS_8equal_toIS2_EENS_9allocatorINS_4pairIKS2_fEEEEEC2B8ue170006Ev, symObjAddr: 0x8448, symBinAddr: 0x10000BD14, symSize: 0x2C }
  - { offsetInCU: 0x1CB00, offset: 0x1CB00, size: 0x8, addend: 0x0, symName: __ZNSt3__112__hash_tableINS_17__hash_value_typeIP7AddressfEENS_22__unordered_map_hasherIS3_S4_NS_4hashIS3_EENS_8equal_toIS3_EELb1EEENS_21__unordered_map_equalIS3_S4_S9_S7_Lb1EEENS_9allocatorIS4_EEEC1Ev, symObjAddr: 0x8474, symBinAddr: 0x10000BD40, symSize: 0x2C }
  - { offsetInCU: 0x1CB2B, offset: 0x1CB2B, size: 0x8, addend: 0x0, symName: __ZNSt3__112__hash_tableINS_17__hash_value_typeIP7AddressfEENS_22__unordered_map_hasherIS3_S4_NS_4hashIS3_EENS_8equal_toIS3_EELb1EEENS_21__unordered_map_equalIS3_S4_S9_S7_Lb1EEENS_9allocatorIS4_EEEC2Ev, symObjAddr: 0x84A0, symBinAddr: 0x10000BD6C, symSize: 0x7C }
  - { offsetInCU: 0x1CB56, offset: 0x1CB56, size: 0x8, addend: 0x0, symName: __ZNSt3__110unique_ptrIA_PNS_16__hash_node_baseIPNS_11__hash_nodeINS_17__hash_value_typeIP7AddressfEEPvEEEENS_25__bucket_list_deallocatorINS_9allocatorISB_EEEEEC1B8ue170006ILb1EvEEv, symObjAddr: 0x851C, symBinAddr: 0x10000BDE8, symSize: 0x2C }
  - { offsetInCU: 0x1CB8A, offset: 0x1CB8A, size: 0x8, addend: 0x0, symName: __ZNSt3__117__compressed_pairINS_16__hash_node_baseIPNS_11__hash_nodeINS_17__hash_value_typeIP7AddressfEEPvEEEENS_9allocatorIS8_EEEC1B8ue170006ILb1EvEEv, symObjAddr: 0x8548, symBinAddr: 0x10000BE14, symSize: 0x2C }
  - { offsetInCU: 0x1CBC3, offset: 0x1CBC3, size: 0x8, addend: 0x0, symName: __ZNSt3__117__compressed_pairImNS_22__unordered_map_hasherIP7AddressNS_17__hash_value_typeIS3_fEENS_4hashIS3_EENS_8equal_toIS3_EELb1EEEEC1B8ue170006IiNS_18__default_init_tagEEEOT_OT0_, symObjAddr: 0x8574, symBinAddr: 0x10000BE40, symSize: 0x3C }
  - { offsetInCU: 0x1CC1F, offset: 0x1CC1F, size: 0x8, addend: 0x0, symName: __ZNSt3__117__compressed_pairIfNS_21__unordered_map_equalIP7AddressNS_17__hash_value_typeIS3_fEENS_8equal_toIS3_EENS_4hashIS3_EELb1EEEEC1B8ue170006IfNS_18__default_init_tagEEEOT_OT0_, symObjAddr: 0x85B0, symBinAddr: 0x10000BE7C, symSize: 0x3C }
  - { offsetInCU: 0x1CC76, offset: 0x1CC76, size: 0x8, addend: 0x0, symName: __ZNSt3__110unique_ptrIA_PNS_16__hash_node_baseIPNS_11__hash_nodeINS_17__hash_value_typeIP7AddressfEEPvEEEENS_25__bucket_list_deallocatorINS_9allocatorISB_EEEEEC2B8ue170006ILb1EvEEv, symObjAddr: 0x85EC, symBinAddr: 0x10000BEB8, symSize: 0x3C }
  - { offsetInCU: 0x1CCAF, offset: 0x1CCAF, size: 0x8, addend: 0x0, symName: __ZNSt3__117__compressed_pairIPPNS_16__hash_node_baseIPNS_11__hash_nodeINS_17__hash_value_typeIP7AddressfEEPvEEEENS_25__bucket_list_deallocatorINS_9allocatorISB_EEEEEC1B8ue170006INS_16__value_init_tagESJ_EEOT_OT0_, symObjAddr: 0x8628, symBinAddr: 0x10000BEF4, symSize: 0x3C }
  - { offsetInCU: 0x1CD06, offset: 0x1CD06, size: 0x8, addend: 0x0, symName: __ZNSt3__117__compressed_pairIPPNS_16__hash_node_baseIPNS_11__hash_nodeINS_17__hash_value_typeIP7AddressfEEPvEEEENS_25__bucket_list_deallocatorINS_9allocatorISB_EEEEEC2B8ue170006INS_16__value_init_tagESJ_EEOT_OT0_, symObjAddr: 0x8664, symBinAddr: 0x10000BF30, symSize: 0x40 }
  - { offsetInCU: 0x1CD5D, offset: 0x1CD5D, size: 0x8, addend: 0x0, symName: __ZNSt3__122__compressed_pair_elemIPPNS_16__hash_node_baseIPNS_11__hash_nodeINS_17__hash_value_typeIP7AddressfEEPvEEEELi0ELb0EEC2B8ue170006ENS_16__value_init_tagE, symObjAddr: 0x86A4, symBinAddr: 0x10000BF70, symSize: 0x18 }
  - { offsetInCU: 0x1CD91, offset: 0x1CD91, size: 0x8, addend: 0x0, symName: __ZNSt3__122__compressed_pair_elemINS_25__bucket_list_deallocatorINS_9allocatorIPNS_16__hash_node_baseIPNS_11__hash_nodeINS_17__hash_value_typeIP7AddressfEEPvEEEEEEEELi1ELb0EEC2B8ue170006ENS_16__value_init_tagE, symObjAddr: 0x86BC, symBinAddr: 0x10000BF88, symSize: 0x2C }
  - { offsetInCU: 0x1CDC5, offset: 0x1CDC5, size: 0x8, addend: 0x0, symName: __ZNSt3__125__bucket_list_deallocatorINS_9allocatorIPNS_16__hash_node_baseIPNS_11__hash_nodeINS_17__hash_value_typeIP7AddressfEEPvEEEEEEEC1B8ue170006Ev, symObjAddr: 0x86E8, symBinAddr: 0x10000BFB4, symSize: 0x2C }
  - { offsetInCU: 0x1CDEE, offset: 0x1CDEE, size: 0x8, addend: 0x0, symName: __ZNSt3__125__bucket_list_deallocatorINS_9allocatorIPNS_16__hash_node_baseIPNS_11__hash_nodeINS_17__hash_value_typeIP7AddressfEEPvEEEEEEEC2B8ue170006Ev, symObjAddr: 0x8714, symBinAddr: 0x10000BFE0, symSize: 0x40 }
  - { offsetInCU: 0x1CE17, offset: 0x1CE17, size: 0x8, addend: 0x0, symName: __ZNSt3__117__compressed_pairImNS_9allocatorIPNS_16__hash_node_baseIPNS_11__hash_nodeINS_17__hash_value_typeIP7AddressfEEPvEEEEEEEC1B8ue170006IiNS_18__default_init_tagEEEOT_OT0_, symObjAddr: 0x8754, symBinAddr: 0x10000C020, symSize: 0x3C }
  - { offsetInCU: 0x1CE6E, offset: 0x1CE6E, size: 0x8, addend: 0x0, symName: __ZNSt3__117__compressed_pairImNS_9allocatorIPNS_16__hash_node_baseIPNS_11__hash_nodeINS_17__hash_value_typeIP7AddressfEEPvEEEEEEEC2B8ue170006IiNS_18__default_init_tagEEEOT_OT0_, symObjAddr: 0x8790, symBinAddr: 0x10000C05C, symSize: 0x40 }
  - { offsetInCU: 0x1CEC5, offset: 0x1CEC5, size: 0x8, addend: 0x0, symName: __ZNSt3__122__compressed_pair_elemImLi0ELb0EEC2B8ue170006IivEEOT_, symObjAddr: 0x87D0, symBinAddr: 0x10000C09C, symSize: 0x24 }
  - { offsetInCU: 0x1CF06, offset: 0x1CF06, size: 0x8, addend: 0x0, symName: __ZNSt3__122__compressed_pair_elemINS_9allocatorIPNS_16__hash_node_baseIPNS_11__hash_nodeINS_17__hash_value_typeIP7AddressfEEPvEEEEEELi1ELb1EEC2B8ue170006ENS_18__default_init_tagE, symObjAddr: 0x87F4, symBinAddr: 0x10000C0C0, symSize: 0x2C }
  - { offsetInCU: 0x1CF3A, offset: 0x1CF3A, size: 0x8, addend: 0x0, symName: __ZNSt3__19allocatorIPNS_16__hash_node_baseIPNS_11__hash_nodeINS_17__hash_value_typeIP7AddressfEEPvEEEEEC2B8ue170006Ev, symObjAddr: 0x8820, symBinAddr: 0x10000C0EC, symSize: 0x2C }
  - { offsetInCU: 0x1CF63, offset: 0x1CF63, size: 0x8, addend: 0x0, symName: __ZNSt3__116__non_trivial_ifILb1ENS_9allocatorIPNS_16__hash_node_baseIPNS_11__hash_nodeINS_17__hash_value_typeIP7AddressfEEPvEEEEEEEC2B8ue170006Ev, symObjAddr: 0x884C, symBinAddr: 0x10000C118, symSize: 0x14 }
  - { offsetInCU: 0x1CF8C, offset: 0x1CF8C, size: 0x8, addend: 0x0, symName: __ZNSt3__117__compressed_pairINS_16__hash_node_baseIPNS_11__hash_nodeINS_17__hash_value_typeIP7AddressfEEPvEEEENS_9allocatorIS8_EEEC2B8ue170006ILb1EvEEv, symObjAddr: 0x8860, symBinAddr: 0x10000C12C, symSize: 0x34 }
  - { offsetInCU: 0x1CFC0, offset: 0x1CFC0, size: 0x8, addend: 0x0, symName: __ZNSt3__122__compressed_pair_elemINS_16__hash_node_baseIPNS_11__hash_nodeINS_17__hash_value_typeIP7AddressfEEPvEEEELi0ELb0EEC2B8ue170006ENS_16__value_init_tagE, symObjAddr: 0x8894, symBinAddr: 0x10000C160, symSize: 0x2C }
  - { offsetInCU: 0x1CFF4, offset: 0x1CFF4, size: 0x8, addend: 0x0, symName: __ZNSt3__122__compressed_pair_elemINS_9allocatorINS_11__hash_nodeINS_17__hash_value_typeIP7AddressfEEPvEEEELi1ELb1EEC2B8ue170006ENS_16__value_init_tagE, symObjAddr: 0x88C0, symBinAddr: 0x10000C18C, symSize: 0x2C }
  - { offsetInCU: 0x1D028, offset: 0x1D028, size: 0x8, addend: 0x0, symName: __ZNSt3__116__hash_node_baseIPNS_11__hash_nodeINS_17__hash_value_typeIP7AddressfEEPvEEEC1B8ue170006Ev, symObjAddr: 0x88EC, symBinAddr: 0x10000C1B8, symSize: 0x2C }
  - { offsetInCU: 0x1D051, offset: 0x1D051, size: 0x8, addend: 0x0, symName: __ZNSt3__116__hash_node_baseIPNS_11__hash_nodeINS_17__hash_value_typeIP7AddressfEEPvEEEC2B8ue170006Ev, symObjAddr: 0x8918, symBinAddr: 0x10000C1E4, symSize: 0x18 }
  - { offsetInCU: 0x1D07A, offset: 0x1D07A, size: 0x8, addend: 0x0, symName: __ZNSt3__19allocatorINS_11__hash_nodeINS_17__hash_value_typeIP7AddressfEEPvEEEC2B8ue170006Ev, symObjAddr: 0x8930, symBinAddr: 0x10000C1FC, symSize: 0x2C }
  - { offsetInCU: 0x1D0A3, offset: 0x1D0A3, size: 0x8, addend: 0x0, symName: __ZNSt3__116__non_trivial_ifILb1ENS_9allocatorINS_11__hash_nodeINS_17__hash_value_typeIP7AddressfEEPvEEEEEC2B8ue170006Ev, symObjAddr: 0x895C, symBinAddr: 0x10000C228, symSize: 0x14 }
  - { offsetInCU: 0x1D0CC, offset: 0x1D0CC, size: 0x8, addend: 0x0, symName: __ZNSt3__117__compressed_pairImNS_22__unordered_map_hasherIP7AddressNS_17__hash_value_typeIS3_fEENS_4hashIS3_EENS_8equal_toIS3_EELb1EEEEC2B8ue170006IiNS_18__default_init_tagEEEOT_OT0_, symObjAddr: 0x8970, symBinAddr: 0x10000C23C, symSize: 0x40 }
  - { offsetInCU: 0x1D123, offset: 0x1D123, size: 0x8, addend: 0x0, symName: __ZNSt3__122__compressed_pair_elemINS_22__unordered_map_hasherIP7AddressNS_17__hash_value_typeIS3_fEENS_4hashIS3_EENS_8equal_toIS3_EELb1EEELi1ELb1EEC2B8ue170006ENS_18__default_init_tagE, symObjAddr: 0x89B0, symBinAddr: 0x10000C27C, symSize: 0x2C }
  - { offsetInCU: 0x1D157, offset: 0x1D157, size: 0x8, addend: 0x0, symName: __ZNSt3__122__unordered_map_hasherIP7AddressNS_17__hash_value_typeIS2_fEENS_4hashIS2_EENS_8equal_toIS2_EELb1EEC2B8ue170006Ev, symObjAddr: 0x89DC, symBinAddr: 0x10000C2A8, symSize: 0x14 }
  - { offsetInCU: 0x1D180, offset: 0x1D180, size: 0x8, addend: 0x0, symName: __ZNSt3__117__compressed_pairIfNS_21__unordered_map_equalIP7AddressNS_17__hash_value_typeIS3_fEENS_8equal_toIS3_EENS_4hashIS3_EELb1EEEEC2B8ue170006IfNS_18__default_init_tagEEEOT_OT0_, symObjAddr: 0x89F0, symBinAddr: 0x10000C2BC, symSize: 0x40 }
  - { offsetInCU: 0x1D1D7, offset: 0x1D1D7, size: 0x8, addend: 0x0, symName: __ZNSt3__122__compressed_pair_elemIfLi0ELb0EEC2B8ue170006IfvEEOT_, symObjAddr: 0x8A30, symBinAddr: 0x10000C2FC, symSize: 0x24 }
  - { offsetInCU: 0x1D218, offset: 0x1D218, size: 0x8, addend: 0x0, symName: __ZNSt3__122__compressed_pair_elemINS_21__unordered_map_equalIP7AddressNS_17__hash_value_typeIS3_fEENS_8equal_toIS3_EENS_4hashIS3_EELb1EEELi1ELb1EEC2B8ue170006ENS_18__default_init_tagE, symObjAddr: 0x8A54, symBinAddr: 0x10000C320, symSize: 0x2C }
  - { offsetInCU: 0x1D24C, offset: 0x1D24C, size: 0x8, addend: 0x0, symName: __ZNSt3__121__unordered_map_equalIP7AddressNS_17__hash_value_typeIS2_fEENS_8equal_toIS2_EENS_4hashIS2_EELb1EEC2B8ue170006Ev, symObjAddr: 0x8A80, symBinAddr: 0x10000C34C, symSize: 0x14 }
  - { offsetInCU: 0x1D275, offset: 0x1D275, size: 0x8, addend: 0x0, symName: __ZNSt3__113unordered_mapIP7AddressP4NodeNS_4hashIS2_EENS_8equal_toIS2_EENS_9allocatorINS_4pairIKS2_S4_EEEEEC2B8ue170006Ev, symObjAddr: 0x8A94, symBinAddr: 0x10000C360, symSize: 0x2C }
  - { offsetInCU: 0x1D29E, offset: 0x1D29E, size: 0x8, addend: 0x0, symName: __ZNSt3__112__hash_tableINS_17__hash_value_typeIP7AddressP4NodeEENS_22__unordered_map_hasherIS3_S6_NS_4hashIS3_EENS_8equal_toIS3_EELb1EEENS_21__unordered_map_equalIS3_S6_SB_S9_Lb1EEENS_9allocatorIS6_EEEC1Ev, symObjAddr: 0x8AC0, symBinAddr: 0x10000C38C, symSize: 0x2C }
  - { offsetInCU: 0x1D2C9, offset: 0x1D2C9, size: 0x8, addend: 0x0, symName: __ZNSt3__112__hash_tableINS_17__hash_value_typeIP7AddressP4NodeEENS_22__unordered_map_hasherIS3_S6_NS_4hashIS3_EENS_8equal_toIS3_EELb1EEENS_21__unordered_map_equalIS3_S6_SB_S9_Lb1EEENS_9allocatorIS6_EEEC2Ev, symObjAddr: 0x8AEC, symBinAddr: 0x10000C3B8, symSize: 0x7C }
  - { offsetInCU: 0x1D2F4, offset: 0x1D2F4, size: 0x8, addend: 0x0, symName: __ZNSt3__110unique_ptrIA_PNS_16__hash_node_baseIPNS_11__hash_nodeINS_17__hash_value_typeIP7AddressP4NodeEEPvEEEENS_25__bucket_list_deallocatorINS_9allocatorISD_EEEEEC1B8ue170006ILb1EvEEv, symObjAddr: 0x8B68, symBinAddr: 0x10000C434, symSize: 0x2C }
  - { offsetInCU: 0x1D328, offset: 0x1D328, size: 0x8, addend: 0x0, symName: __ZNSt3__117__compressed_pairINS_16__hash_node_baseIPNS_11__hash_nodeINS_17__hash_value_typeIP7AddressP4NodeEEPvEEEENS_9allocatorISA_EEEC1B8ue170006ILb1EvEEv, symObjAddr: 0x8B94, symBinAddr: 0x10000C460, symSize: 0x2C }
  - { offsetInCU: 0x1D35C, offset: 0x1D35C, size: 0x8, addend: 0x0, symName: __ZNSt3__117__compressed_pairImNS_22__unordered_map_hasherIP7AddressNS_17__hash_value_typeIS3_P4NodeEENS_4hashIS3_EENS_8equal_toIS3_EELb1EEEEC1B8ue170006IiNS_18__default_init_tagEEEOT_OT0_, symObjAddr: 0x8BC0, symBinAddr: 0x10000C48C, symSize: 0x3C }
  - { offsetInCU: 0x1D3B3, offset: 0x1D3B3, size: 0x8, addend: 0x0, symName: __ZNSt3__117__compressed_pairIfNS_21__unordered_map_equalIP7AddressNS_17__hash_value_typeIS3_P4NodeEENS_8equal_toIS3_EENS_4hashIS3_EELb1EEEEC1B8ue170006IfNS_18__default_init_tagEEEOT_OT0_, symObjAddr: 0x8BFC, symBinAddr: 0x10000C4C8, symSize: 0x3C }
  - { offsetInCU: 0x1D40A, offset: 0x1D40A, size: 0x8, addend: 0x0, symName: __ZNSt3__110unique_ptrIA_PNS_16__hash_node_baseIPNS_11__hash_nodeINS_17__hash_value_typeIP7AddressP4NodeEEPvEEEENS_25__bucket_list_deallocatorINS_9allocatorISD_EEEEEC2B8ue170006ILb1EvEEv, symObjAddr: 0x8C38, symBinAddr: 0x10000C504, symSize: 0x3C }
  - { offsetInCU: 0x1D43E, offset: 0x1D43E, size: 0x8, addend: 0x0, symName: __ZNSt3__117__compressed_pairIPPNS_16__hash_node_baseIPNS_11__hash_nodeINS_17__hash_value_typeIP7AddressP4NodeEEPvEEEENS_25__bucket_list_deallocatorINS_9allocatorISD_EEEEEC1B8ue170006INS_16__value_init_tagESL_EEOT_OT0_, symObjAddr: 0x8C74, symBinAddr: 0x10000C540, symSize: 0x3C }
  - { offsetInCU: 0x1D495, offset: 0x1D495, size: 0x8, addend: 0x0, symName: __ZNSt3__117__compressed_pairIPPNS_16__hash_node_baseIPNS_11__hash_nodeINS_17__hash_value_typeIP7AddressP4NodeEEPvEEEENS_25__bucket_list_deallocatorINS_9allocatorISD_EEEEEC2B8ue170006INS_16__value_init_tagESL_EEOT_OT0_, symObjAddr: 0x8CB0, symBinAddr: 0x10000C57C, symSize: 0x40 }
  - { offsetInCU: 0x1D4EC, offset: 0x1D4EC, size: 0x8, addend: 0x0, symName: __ZNSt3__122__compressed_pair_elemIPPNS_16__hash_node_baseIPNS_11__hash_nodeINS_17__hash_value_typeIP7AddressP4NodeEEPvEEEELi0ELb0EEC2B8ue170006ENS_16__value_init_tagE, symObjAddr: 0x8CF0, symBinAddr: 0x10000C5BC, symSize: 0x18 }
  - { offsetInCU: 0x1D520, offset: 0x1D520, size: 0x8, addend: 0x0, symName: __ZNSt3__122__compressed_pair_elemINS_25__bucket_list_deallocatorINS_9allocatorIPNS_16__hash_node_baseIPNS_11__hash_nodeINS_17__hash_value_typeIP7AddressP4NodeEEPvEEEEEEEELi1ELb0EEC2B8ue170006ENS_16__value_init_tagE, symObjAddr: 0x8D08, symBinAddr: 0x10000C5D4, symSize: 0x2C }
  - { offsetInCU: 0x1D554, offset: 0x1D554, size: 0x8, addend: 0x0, symName: __ZNSt3__125__bucket_list_deallocatorINS_9allocatorIPNS_16__hash_node_baseIPNS_11__hash_nodeINS_17__hash_value_typeIP7AddressP4NodeEEPvEEEEEEEC1B8ue170006Ev, symObjAddr: 0x8D34, symBinAddr: 0x10000C600, symSize: 0x2C }
  - { offsetInCU: 0x1D57D, offset: 0x1D57D, size: 0x8, addend: 0x0, symName: __ZNSt3__125__bucket_list_deallocatorINS_9allocatorIPNS_16__hash_node_baseIPNS_11__hash_nodeINS_17__hash_value_typeIP7AddressP4NodeEEPvEEEEEEEC2B8ue170006Ev, symObjAddr: 0x8D60, symBinAddr: 0x10000C62C, symSize: 0x40 }
  - { offsetInCU: 0x1D5A6, offset: 0x1D5A6, size: 0x8, addend: 0x0, symName: __ZNSt3__117__compressed_pairImNS_9allocatorIPNS_16__hash_node_baseIPNS_11__hash_nodeINS_17__hash_value_typeIP7AddressP4NodeEEPvEEEEEEEC1B8ue170006IiNS_18__default_init_tagEEEOT_OT0_, symObjAddr: 0x8DA0, symBinAddr: 0x10000C66C, symSize: 0x3C }
  - { offsetInCU: 0x1D5FD, offset: 0x1D5FD, size: 0x8, addend: 0x0, symName: __ZNSt3__117__compressed_pairImNS_9allocatorIPNS_16__hash_node_baseIPNS_11__hash_nodeINS_17__hash_value_typeIP7AddressP4NodeEEPvEEEEEEEC2B8ue170006IiNS_18__default_init_tagEEEOT_OT0_, symObjAddr: 0x8DDC, symBinAddr: 0x10000C6A8, symSize: 0x40 }
  - { offsetInCU: 0x1D654, offset: 0x1D654, size: 0x8, addend: 0x0, symName: __ZNSt3__122__compressed_pair_elemINS_9allocatorIPNS_16__hash_node_baseIPNS_11__hash_nodeINS_17__hash_value_typeIP7AddressP4NodeEEPvEEEEEELi1ELb1EEC2B8ue170006ENS_18__default_init_tagE, symObjAddr: 0x8E1C, symBinAddr: 0x10000C6E8, symSize: 0x2C }
  - { offsetInCU: 0x1D688, offset: 0x1D688, size: 0x8, addend: 0x0, symName: __ZNSt3__19allocatorIPNS_16__hash_node_baseIPNS_11__hash_nodeINS_17__hash_value_typeIP7AddressP4NodeEEPvEEEEEC2B8ue170006Ev, symObjAddr: 0x8E48, symBinAddr: 0x10000C714, symSize: 0x2C }
  - { offsetInCU: 0x1D6B1, offset: 0x1D6B1, size: 0x8, addend: 0x0, symName: __ZNSt3__116__non_trivial_ifILb1ENS_9allocatorIPNS_16__hash_node_baseIPNS_11__hash_nodeINS_17__hash_value_typeIP7AddressP4NodeEEPvEEEEEEEC2B8ue170006Ev, symObjAddr: 0x8E74, symBinAddr: 0x10000C740, symSize: 0x14 }
  - { offsetInCU: 0x1D6DA, offset: 0x1D6DA, size: 0x8, addend: 0x0, symName: __ZNSt3__117__compressed_pairINS_16__hash_node_baseIPNS_11__hash_nodeINS_17__hash_value_typeIP7AddressP4NodeEEPvEEEENS_9allocatorISA_EEEC2B8ue170006ILb1EvEEv, symObjAddr: 0x8E88, symBinAddr: 0x10000C754, symSize: 0x34 }
  - { offsetInCU: 0x1D70E, offset: 0x1D70E, size: 0x8, addend: 0x0, symName: __ZNSt3__122__compressed_pair_elemINS_16__hash_node_baseIPNS_11__hash_nodeINS_17__hash_value_typeIP7AddressP4NodeEEPvEEEELi0ELb0EEC2B8ue170006ENS_16__value_init_tagE, symObjAddr: 0x8EBC, symBinAddr: 0x10000C788, symSize: 0x2C }
  - { offsetInCU: 0x1D742, offset: 0x1D742, size: 0x8, addend: 0x0, symName: __ZNSt3__122__compressed_pair_elemINS_9allocatorINS_11__hash_nodeINS_17__hash_value_typeIP7AddressP4NodeEEPvEEEELi1ELb1EEC2B8ue170006ENS_16__value_init_tagE, symObjAddr: 0x8EE8, symBinAddr: 0x10000C7B4, symSize: 0x2C }
  - { offsetInCU: 0x1D776, offset: 0x1D776, size: 0x8, addend: 0x0, symName: __ZNSt3__116__hash_node_baseIPNS_11__hash_nodeINS_17__hash_value_typeIP7AddressP4NodeEEPvEEEC1B8ue170006Ev, symObjAddr: 0x8F14, symBinAddr: 0x10000C7E0, symSize: 0x2C }
  - { offsetInCU: 0x1D79F, offset: 0x1D79F, size: 0x8, addend: 0x0, symName: __ZNSt3__116__hash_node_baseIPNS_11__hash_nodeINS_17__hash_value_typeIP7AddressP4NodeEEPvEEEC2B8ue170006Ev, symObjAddr: 0x8F40, symBinAddr: 0x10000C80C, symSize: 0x18 }
  - { offsetInCU: 0x1D7C8, offset: 0x1D7C8, size: 0x8, addend: 0x0, symName: __ZNSt3__19allocatorINS_11__hash_nodeINS_17__hash_value_typeIP7AddressP4NodeEEPvEEEC2B8ue170006Ev, symObjAddr: 0x8F58, symBinAddr: 0x10000C824, symSize: 0x2C }
  - { offsetInCU: 0x1D7F1, offset: 0x1D7F1, size: 0x8, addend: 0x0, symName: __ZNSt3__116__non_trivial_ifILb1ENS_9allocatorINS_11__hash_nodeINS_17__hash_value_typeIP7AddressP4NodeEEPvEEEEEC2B8ue170006Ev, symObjAddr: 0x8F84, symBinAddr: 0x10000C850, symSize: 0x14 }
  - { offsetInCU: 0x1D81A, offset: 0x1D81A, size: 0x8, addend: 0x0, symName: __ZNSt3__117__compressed_pairImNS_22__unordered_map_hasherIP7AddressNS_17__hash_value_typeIS3_P4NodeEENS_4hashIS3_EENS_8equal_toIS3_EELb1EEEEC2B8ue170006IiNS_18__default_init_tagEEEOT_OT0_, symObjAddr: 0x8F98, symBinAddr: 0x10000C864, symSize: 0x40 }
  - { offsetInCU: 0x1D871, offset: 0x1D871, size: 0x8, addend: 0x0, symName: __ZNSt3__122__compressed_pair_elemINS_22__unordered_map_hasherIP7AddressNS_17__hash_value_typeIS3_P4NodeEENS_4hashIS3_EENS_8equal_toIS3_EELb1EEELi1ELb1EEC2B8ue170006ENS_18__default_init_tagE, symObjAddr: 0x8FD8, symBinAddr: 0x10000C8A4, symSize: 0x2C }
  - { offsetInCU: 0x1D8A5, offset: 0x1D8A5, size: 0x8, addend: 0x0, symName: __ZNSt3__122__unordered_map_hasherIP7AddressNS_17__hash_value_typeIS2_P4NodeEENS_4hashIS2_EENS_8equal_toIS2_EELb1EEC2B8ue170006Ev, symObjAddr: 0x9004, symBinAddr: 0x10000C8D0, symSize: 0x14 }
  - { offsetInCU: 0x1D8CE, offset: 0x1D8CE, size: 0x8, addend: 0x0, symName: __ZNSt3__117__compressed_pairIfNS_21__unordered_map_equalIP7AddressNS_17__hash_value_typeIS3_P4NodeEENS_8equal_toIS3_EENS_4hashIS3_EELb1EEEEC2B8ue170006IfNS_18__default_init_tagEEEOT_OT0_, symObjAddr: 0x9018, symBinAddr: 0x10000C8E4, symSize: 0x40 }
  - { offsetInCU: 0x1D925, offset: 0x1D925, size: 0x8, addend: 0x0, symName: __ZNSt3__122__compressed_pair_elemINS_21__unordered_map_equalIP7AddressNS_17__hash_value_typeIS3_P4NodeEENS_8equal_toIS3_EENS_4hashIS3_EELb1EEELi1ELb1EEC2B8ue170006ENS_18__default_init_tagE, symObjAddr: 0x9058, symBinAddr: 0x10000C924, symSize: 0x2C }
  - { offsetInCU: 0x1D959, offset: 0x1D959, size: 0x8, addend: 0x0, symName: __ZNSt3__121__unordered_map_equalIP7AddressNS_17__hash_value_typeIS2_P4NodeEENS_8equal_toIS2_EENS_4hashIS2_EELb1EEC2B8ue170006Ev, symObjAddr: 0x9084, symBinAddr: 0x10000C950, symSize: 0x14 }
  - { offsetInCU: 0x1D995, offset: 0x1D995, size: 0x8, addend: 0x0, symName: __ZNSt3__112__hash_tableINS_17__hash_value_typeIP7AddressfEENS_22__unordered_map_hasherIS3_S4_NS_4hashIS3_EENS_8equal_toIS3_EELb1EEENS_21__unordered_map_equalIS3_S4_S9_S7_Lb1EEENS_9allocatorIS4_EEE25__emplace_unique_key_argsIS3_JRKNS_21piecewise_construct_tENS_5tupleIJRKS3_EEENSK_IJEEEEEENS_4pairINS_15__hash_iteratorIPNS_11__hash_nodeIS4_PvEEEEbEERKT_DpOT0_, symObjAddr: 0x9098, symBinAddr: 0x10000C964, symSize: 0x4E8 }
  - { offsetInCU: 0x1DA9E, offset: 0x1DA9E, size: 0x8, addend: 0x0, symName: __ZNKSt3__115__hash_iteratorIPNS_11__hash_nodeINS_17__hash_value_typeIP7AddressfEEPvEEEptB8ue170006Ev, symObjAddr: 0x95B0, symBinAddr: 0x10000CE7C, symSize: 0x30 }
  - { offsetInCU: 0x1DAC3, offset: 0x1DAC3, size: 0x8, addend: 0x0, symName: __ZNSt3__117__hash_value_typeIP7AddressfE11__get_valueB8ue170006Ev, symObjAddr: 0x95E0, symBinAddr: 0x10000CEAC, symSize: 0x14 }
  - { offsetInCU: 0x1DAE8, offset: 0x1DAE8, size: 0x8, addend: 0x0, symName: __ZNSt3__112__hash_tableINS_17__hash_value_typeIP7AddressfEENS_22__unordered_map_hasherIS3_S4_NS_4hashIS3_EENS_8equal_toIS3_EELb1EEENS_21__unordered_map_equalIS3_S4_S9_S7_Lb1EEENS_9allocatorIS4_EEE13hash_functionB8ue170006Ev, symObjAddr: 0x95F4, symBinAddr: 0x10000CEC0, symSize: 0x28 }
  - { offsetInCU: 0x1DB0D, offset: 0x1DB0D, size: 0x8, addend: 0x0, symName: __ZNKSt3__122__unordered_map_hasherIP7AddressNS_17__hash_value_typeIS2_fEENS_4hashIS2_EENS_8equal_toIS2_EELb1EEclB8ue170006ERKS2_, symObjAddr: 0x961C, symBinAddr: 0x10000CEE8, symSize: 0x30 }
  - { offsetInCU: 0x1DB41, offset: 0x1DB41, size: 0x8, addend: 0x0, symName: __ZNKSt3__112__hash_tableINS_17__hash_value_typeIP7AddressfEENS_22__unordered_map_hasherIS3_S4_NS_4hashIS3_EENS_8equal_toIS3_EELb1EEENS_21__unordered_map_equalIS3_S4_S9_S7_Lb1EEENS_9allocatorIS4_EEE12bucket_countB8ue170006Ev, symObjAddr: 0x964C, symBinAddr: 0x10000CF18, symSize: 0x28 }
  - { offsetInCU: 0x1DB66, offset: 0x1DB66, size: 0x8, addend: 0x0, symName: __ZNKSt3__110unique_ptrIA_PNS_16__hash_node_baseIPNS_11__hash_nodeINS_17__hash_value_typeIP7AddressfEEPvEEEENS_25__bucket_list_deallocatorINS_9allocatorISB_EEEEEixB8ue170006Em, symObjAddr: 0x970C, symBinAddr: 0x10000CFD8, symSize: 0x34 }
  - { offsetInCU: 0x1DB9A, offset: 0x1DB9A, size: 0x8, addend: 0x0, symName: __ZNKSt3__116__hash_node_baseIPNS_11__hash_nodeINS_17__hash_value_typeIP7AddressfEEPvEEE6__hashB8ue170006Ev, symObjAddr: 0x9740, symBinAddr: 0x10000D00C, symSize: 0x18 }
  - { offsetInCU: 0x1DBBF, offset: 0x1DBBF, size: 0x8, addend: 0x0, symName: __ZNSt3__112__hash_tableINS_17__hash_value_typeIP7AddressfEENS_22__unordered_map_hasherIS3_S4_NS_4hashIS3_EENS_8equal_toIS3_EELb1EEENS_21__unordered_map_equalIS3_S4_S9_S7_Lb1EEENS_9allocatorIS4_EEE6key_eqB8ue170006Ev, symObjAddr: 0x9758, symBinAddr: 0x10000D024, symSize: 0x28 }
  - { offsetInCU: 0x1DBE4, offset: 0x1DBE4, size: 0x8, addend: 0x0, symName: __ZNKSt3__121__unordered_map_equalIP7AddressNS_17__hash_value_typeIS2_fEENS_8equal_toIS2_EENS_4hashIS2_EELb1EEclB8ue170006ERKS4_RKS2_, symObjAddr: 0x9780, symBinAddr: 0x10000D04C, symSize: 0x48 }
  - { offsetInCU: 0x1DC27, offset: 0x1DC27, size: 0x8, addend: 0x0, symName: __ZNSt3__116__hash_node_baseIPNS_11__hash_nodeINS_17__hash_value_typeIP7AddressfEEPvEEE8__upcastB8ue170006Ev, symObjAddr: 0x97C8, symBinAddr: 0x10000D094, symSize: 0x24 }
  - { offsetInCU: 0x1DC4B, offset: 0x1DC4B, size: 0x8, addend: 0x0, symName: __ZNSt3__112__hash_tableINS_17__hash_value_typeIP7AddressfEENS_22__unordered_map_hasherIS3_S4_NS_4hashIS3_EENS_8equal_toIS3_EELb1EEENS_21__unordered_map_equalIS3_S4_S9_S7_Lb1EEENS_9allocatorIS4_EEE21__construct_node_hashIRKNS_21piecewise_construct_tEJNS_5tupleIJRKS3_EEENSK_IJEEEEEENS_10unique_ptrINS_11__hash_nodeIS4_PvEENS_22__hash_node_destructorINSD_ISS_EEEEEEmOT_DpOT0_, symObjAddr: 0x97EC, symBinAddr: 0x10000D0B8, symSize: 0x150 }
  - { offsetInCU: 0x1DCE6, offset: 0x1DCE6, size: 0x8, addend: 0x0, symName: __ZNSt3__112__hash_tableINS_17__hash_value_typeIP7AddressfEENS_22__unordered_map_hasherIS3_S4_NS_4hashIS3_EENS_8equal_toIS3_EELb1EEENS_21__unordered_map_equalIS3_S4_S9_S7_Lb1EEENS_9allocatorIS4_EEE4sizeB8ue170006Ev, symObjAddr: 0x993C, symBinAddr: 0x10000D208, symSize: 0x28 }
  - { offsetInCU: 0x1DD0B, offset: 0x1DD0B, size: 0x8, addend: 0x0, symName: __ZNSt3__112__hash_tableINS_17__hash_value_typeIP7AddressfEENS_22__unordered_map_hasherIS3_S4_NS_4hashIS3_EENS_8equal_toIS3_EELb1EEENS_21__unordered_map_equalIS3_S4_S9_S7_Lb1EEENS_9allocatorIS4_EEE15max_load_factorB8ue170006Ev, symObjAddr: 0x9964, symBinAddr: 0x10000D230, symSize: 0x28 }
  - { offsetInCU: 0x1DD30, offset: 0x1DD30, size: 0x8, addend: 0x0, symName: __ZNSt3__112__hash_tableINS_17__hash_value_typeIP7AddressfEENS_22__unordered_map_hasherIS3_S4_NS_4hashIS3_EENS_8equal_toIS3_EELb1EEENS_21__unordered_map_equalIS3_S4_S9_S7_Lb1EEENS_9allocatorIS4_EEE15__rehash_uniqueB8ue170006Em, symObjAddr: 0x998C, symBinAddr: 0x10000D258, symSize: 0x2C }
  - { offsetInCU: 0x1DD63, offset: 0x1DD63, size: 0x8, addend: 0x0, symName: __Z4ceilB8ue170006f, symObjAddr: 0x9A08, symBinAddr: 0x10000D2D4, symSize: 0x18 }
  - { offsetInCU: 0x1DD92, offset: 0x1DD92, size: 0x8, addend: 0x0, symName: __ZNSt3__117__compressed_pairINS_16__hash_node_baseIPNS_11__hash_nodeINS_17__hash_value_typeIP7AddressfEEPvEEEENS_9allocatorIS8_EEE5firstB8ue170006Ev, symObjAddr: 0x9A20, symBinAddr: 0x10000D2EC, symSize: 0x24 }
  - { offsetInCU: 0x1DDB7, offset: 0x1DDB7, size: 0x8, addend: 0x0, symName: __ZNSt3__116__hash_node_baseIPNS_11__hash_nodeINS_17__hash_value_typeIP7AddressfEEPvEEE5__ptrB8ue170006Ev, symObjAddr: 0x9A44, symBinAddr: 0x10000D310, symSize: 0x24 }
  - { offsetInCU: 0x1DDDC, offset: 0x1DDDC, size: 0x8, addend: 0x0, symName: __ZNKSt3__110unique_ptrINS_11__hash_nodeINS_17__hash_value_typeIP7AddressfEEPvEENS_22__hash_node_destructorINS_9allocatorIS7_EEEEEptB8ue170006Ev, symObjAddr: 0x9A68, symBinAddr: 0x10000D334, symSize: 0x28 }
  - { offsetInCU: 0x1DE01, offset: 0x1DE01, size: 0x8, addend: 0x0, symName: __ZNKSt3__110unique_ptrINS_11__hash_nodeINS_17__hash_value_typeIP7AddressfEEPvEENS_22__hash_node_destructorINS_9allocatorIS7_EEEEE3getB8ue170006Ev, symObjAddr: 0x9A90, symBinAddr: 0x10000D35C, symSize: 0x28 }
  - { offsetInCU: 0x1DE26, offset: 0x1DE26, size: 0x8, addend: 0x0, symName: __ZNSt3__110unique_ptrINS_11__hash_nodeINS_17__hash_value_typeIP7AddressfEEPvEENS_22__hash_node_destructorINS_9allocatorIS7_EEEEE7releaseB8ue170006Ev, symObjAddr: 0x9AB8, symBinAddr: 0x10000D384, symSize: 0x44 }
  - { offsetInCU: 0x1DE5A, offset: 0x1DE5A, size: 0x8, addend: 0x0, symName: __ZNSt3__110unique_ptrINS_11__hash_nodeINS_17__hash_value_typeIP7AddressfEEPvEENS_22__hash_node_destructorINS_9allocatorIS7_EEEEED1B8ue170006Ev, symObjAddr: 0x9AFC, symBinAddr: 0x10000D3C8, symSize: 0x2C }
  - { offsetInCU: 0x1DE83, offset: 0x1DE83, size: 0x8, addend: 0x0, symName: __ZNSt3__115__hash_iteratorIPNS_11__hash_nodeINS_17__hash_value_typeIP7AddressfEEPvEEEC1B8ue170006EPNS_16__hash_node_baseIS8_EE, symObjAddr: 0x9B28, symBinAddr: 0x10000D3F4, symSize: 0x34 }
  - { offsetInCU: 0x1DEC5, offset: 0x1DEC5, size: 0x8, addend: 0x0, symName: __ZNSt3__14pairINS_15__hash_iteratorIPNS_11__hash_nodeINS_17__hash_value_typeIP7AddressfEEPvEEEEbEC1B8ue170006ISA_RbLS7_0EEEOT_OT0_, symObjAddr: 0x9B5C, symBinAddr: 0x10000D428, symSize: 0x3C }
  - { offsetInCU: 0x1DF22, offset: 0x1DF22, size: 0x8, addend: 0x0, symName: __ZNSt3__117__compressed_pairImNS_22__unordered_map_hasherIP7AddressNS_17__hash_value_typeIS3_fEENS_4hashIS3_EENS_8equal_toIS3_EELb1EEEE6secondB8ue170006Ev, symObjAddr: 0x9B98, symBinAddr: 0x10000D464, symSize: 0x24 }
  - { offsetInCU: 0x1DF47, offset: 0x1DF47, size: 0x8, addend: 0x0, symName: __ZNSt3__122__compressed_pair_elemINS_22__unordered_map_hasherIP7AddressNS_17__hash_value_typeIS3_fEENS_4hashIS3_EENS_8equal_toIS3_EELb1EEELi1ELb1EE5__getB8ue170006Ev, symObjAddr: 0x9BBC, symBinAddr: 0x10000D488, symSize: 0x14 }
  - { offsetInCU: 0x1DF6C, offset: 0x1DF6C, size: 0x8, addend: 0x0, symName: __ZNKSt3__14hashIP7AddressEclB8ue170006ES2_, symObjAddr: 0x9BD0, symBinAddr: 0x10000D49C, symSize: 0x48 }
  - { offsetInCU: 0x1DFD1, offset: 0x1DFD1, size: 0x8, addend: 0x0, symName: __ZNKSt3__121__murmur2_or_cityhashImLm64EEclB8ue170006EPKvm, symObjAddr: 0x9C18, symBinAddr: 0x10000D4E4, symSize: 0x410 }
  - { offsetInCU: 0x1E06A, offset: 0x1E06A, size: 0x8, addend: 0x0, symName: __ZNSt3__121__murmur2_or_cityhashImLm64EE18__hash_len_0_to_16B8ue170006EPKcm, symObjAddr: 0xA028, symBinAddr: 0x10000D8F4, symSize: 0x1C0 }
  - { offsetInCU: 0x1E146, offset: 0x1E146, size: 0x8, addend: 0x0, symName: __ZNSt3__121__murmur2_or_cityhashImLm64EE19__hash_len_17_to_32B8ue170006EPKcm, symObjAddr: 0xA1E8, symBinAddr: 0x10000DAB4, symSize: 0x130 }
  - { offsetInCU: 0x1E1AF, offset: 0x1E1AF, size: 0x8, addend: 0x0, symName: __ZNSt3__121__murmur2_or_cityhashImLm64EE19__hash_len_33_to_64B8ue170006EPKcm, symObjAddr: 0xA318, symBinAddr: 0x10000DBE4, symSize: 0x2B8 }
  - { offsetInCU: 0x1E264, offset: 0x1E264, size: 0x8, addend: 0x0, symName: __ZNSt3__121__murmur2_or_cityhashImLm64EE13__hash_len_16B8ue170006Emm, symObjAddr: 0xA5F0, symBinAddr: 0x10000DEBC, symSize: 0x80 }
  - { offsetInCU: 0x1E2BF, offset: 0x1E2BF, size: 0x8, addend: 0x0, symName: __ZNSt3__121__murmur2_or_cityhashImLm64EE29__weak_hash_len_32_with_seedsB8ue170006EPKcmm, symObjAddr: 0xA670, symBinAddr: 0x10000DF3C, symSize: 0x88 }
  - { offsetInCU: 0x1E2FE, offset: 0x1E2FE, size: 0x8, addend: 0x0, symName: __ZNSt3__121__murmur2_or_cityhashImLm64EE8__rotateB8ue170006Emi, symObjAddr: 0xA6F8, symBinAddr: 0x10000DFC4, symSize: 0x64 }
  - { offsetInCU: 0x1E32F, offset: 0x1E32F, size: 0x8, addend: 0x0, symName: __ZNSt3__14pairImmEaSB8ue170006EOS1_, symObjAddr: 0xA75C, symBinAddr: 0x10000E028, symSize: 0x30 }
  - { offsetInCU: 0x1E363, offset: 0x1E363, size: 0x8, addend: 0x0, symName: __ZNSt3__121__murmur2_or_cityhashImLm64EE11__shift_mixB8ue170006Em, symObjAddr: 0xA7C8, symBinAddr: 0x10000E094, symSize: 0x1C }
  - { offsetInCU: 0x1E386, offset: 0x1E386, size: 0x8, addend: 0x0, symName: __ZNSt3__121__murmur2_or_cityhashImLm64EE22__rotate_by_at_least_1B8ue170006Emi, symObjAddr: 0xA7E4, symBinAddr: 0x10000E0B0, symSize: 0x38 }
  - { offsetInCU: 0x1E3B7, offset: 0x1E3B7, size: 0x8, addend: 0x0, symName: __ZNSt3__121__murmur2_or_cityhashImLm64EE29__weak_hash_len_32_with_seedsB8ue170006Emmmmmm, symObjAddr: 0xA83C, symBinAddr: 0x10000E108, symSize: 0xD8 }
  - { offsetInCU: 0x1E433, offset: 0x1E433, size: 0x8, addend: 0x0, symName: __ZNSt3__14pairImmEC1B8ue170006ImmLPv0EEEOT_OT0_, symObjAddr: 0xA914, symBinAddr: 0x10000E1E0, symSize: 0x3C }
  - { offsetInCU: 0x1E490, offset: 0x1E490, size: 0x8, addend: 0x0, symName: __ZNSt3__14pairImmEC2B8ue170006ImmLPv0EEEOT_OT0_, symObjAddr: 0xA950, symBinAddr: 0x10000E21C, symSize: 0x34 }
  - { offsetInCU: 0x1E4ED, offset: 0x1E4ED, size: 0x8, addend: 0x0, symName: __ZNKSt3__110unique_ptrIA_PNS_16__hash_node_baseIPNS_11__hash_nodeINS_17__hash_value_typeIP7AddressfEEPvEEEENS_25__bucket_list_deallocatorINS_9allocatorISB_EEEEE11get_deleterB8ue170006Ev, symObjAddr: 0xA984, symBinAddr: 0x10000E250, symSize: 0x24 }
  - { offsetInCU: 0x1E512, offset: 0x1E512, size: 0x8, addend: 0x0, symName: __ZNKSt3__125__bucket_list_deallocatorINS_9allocatorIPNS_16__hash_node_baseIPNS_11__hash_nodeINS_17__hash_value_typeIP7AddressfEEPvEEEEEEE4sizeB8ue170006Ev, symObjAddr: 0xA9A8, symBinAddr: 0x10000E274, symSize: 0x28 }
  - { offsetInCU: 0x1E537, offset: 0x1E537, size: 0x8, addend: 0x0, symName: __ZNKSt3__117__compressed_pairIPPNS_16__hash_node_baseIPNS_11__hash_nodeINS_17__hash_value_typeIP7AddressfEEPvEEEENS_25__bucket_list_deallocatorINS_9allocatorISB_EEEEE6secondB8ue170006Ev, symObjAddr: 0xA9D0, symBinAddr: 0x10000E29C, symSize: 0x28 }
  - { offsetInCU: 0x1E55C, offset: 0x1E55C, size: 0x8, addend: 0x0, symName: __ZNKSt3__122__compressed_pair_elemINS_25__bucket_list_deallocatorINS_9allocatorIPNS_16__hash_node_baseIPNS_11__hash_nodeINS_17__hash_value_typeIP7AddressfEEPvEEEEEEEELi1ELb0EE5__getB8ue170006Ev, symObjAddr: 0xA9F8, symBinAddr: 0x10000E2C4, symSize: 0x14 }
  - { offsetInCU: 0x1E581, offset: 0x1E581, size: 0x8, addend: 0x0, symName: __ZNKSt3__117__compressed_pairImNS_9allocatorIPNS_16__hash_node_baseIPNS_11__hash_nodeINS_17__hash_value_typeIP7AddressfEEPvEEEEEEE5firstB8ue170006Ev, symObjAddr: 0xAA0C, symBinAddr: 0x10000E2D8, symSize: 0x24 }
  - { offsetInCU: 0x1E5A6, offset: 0x1E5A6, size: 0x8, addend: 0x0, symName: __ZNKSt3__122__compressed_pair_elemImLi0ELb0EE5__getB8ue170006Ev, symObjAddr: 0xAA30, symBinAddr: 0x10000E2FC, symSize: 0x14 }
  - { offsetInCU: 0x1E5CB, offset: 0x1E5CB, size: 0x8, addend: 0x0, symName: __ZNKSt3__117__compressed_pairIPPNS_16__hash_node_baseIPNS_11__hash_nodeINS_17__hash_value_typeIP7AddressfEEPvEEEENS_25__bucket_list_deallocatorINS_9allocatorISB_EEEEE5firstB8ue170006Ev, symObjAddr: 0xAA44, symBinAddr: 0x10000E310, symSize: 0x24 }
  - { offsetInCU: 0x1E5F0, offset: 0x1E5F0, size: 0x8, addend: 0x0, symName: __ZNKSt3__122__compressed_pair_elemIPPNS_16__hash_node_baseIPNS_11__hash_nodeINS_17__hash_value_typeIP7AddressfEEPvEEEELi0ELb0EE5__getB8ue170006Ev, symObjAddr: 0xAA68, symBinAddr: 0x10000E334, symSize: 0x14 }
  - { offsetInCU: 0x1E615, offset: 0x1E615, size: 0x8, addend: 0x0, symName: __ZNSt3__117__compressed_pairIfNS_21__unordered_map_equalIP7AddressNS_17__hash_value_typeIS3_fEENS_8equal_toIS3_EENS_4hashIS3_EELb1EEEE6secondB8ue170006Ev, symObjAddr: 0xAA7C, symBinAddr: 0x10000E348, symSize: 0x24 }
  - { offsetInCU: 0x1E63A, offset: 0x1E63A, size: 0x8, addend: 0x0, symName: __ZNSt3__122__compressed_pair_elemINS_21__unordered_map_equalIP7AddressNS_17__hash_value_typeIS3_fEENS_8equal_toIS3_EENS_4hashIS3_EELb1EEELi1ELb1EE5__getB8ue170006Ev, symObjAddr: 0xAAA0, symBinAddr: 0x10000E36C, symSize: 0x14 }
  - { offsetInCU: 0x1E65F, offset: 0x1E65F, size: 0x8, addend: 0x0, symName: __ZNKSt3__18equal_toIP7AddressEclB8ue170006ERKS2_S5_, symObjAddr: 0xAAB4, symBinAddr: 0x10000E380, symSize: 0x34 }
  - { offsetInCU: 0x1E6A2, offset: 0x1E6A2, size: 0x8, addend: 0x0, symName: __ZNKSt3__117__hash_value_typeIP7AddressfE11__get_valueB8ue170006Ev, symObjAddr: 0xAAE8, symBinAddr: 0x10000E3B4, symSize: 0x14 }
  - { offsetInCU: 0x1E6C7, offset: 0x1E6C7, size: 0x8, addend: 0x0, symName: __ZNSt3__114pointer_traitsIPNS_16__hash_node_baseIPNS_11__hash_nodeINS_17__hash_value_typeIP7AddressfEEPvEEEEE10pointer_toB8ue170006ERSA_, symObjAddr: 0xAAFC, symBinAddr: 0x10000E3C8, symSize: 0x14 }
  - { offsetInCU: 0x1E6EA, offset: 0x1E6EA, size: 0x8, addend: 0x0, symName: __ZNSt3__112__hash_tableINS_17__hash_value_typeIP7AddressfEENS_22__unordered_map_hasherIS3_S4_NS_4hashIS3_EENS_8equal_toIS3_EELb1EEENS_21__unordered_map_equalIS3_S4_S9_S7_Lb1EEENS_9allocatorIS4_EEE12__node_allocB8ue170006Ev, symObjAddr: 0xAB10, symBinAddr: 0x10000E3DC, symSize: 0x28 }
  - { offsetInCU: 0x1E70F, offset: 0x1E70F, size: 0x8, addend: 0x0, symName: __ZNSt3__116allocator_traitsINS_9allocatorINS_11__hash_nodeINS_17__hash_value_typeIP7AddressfEEPvEEEEE8allocateB8ue170006ERS9_m, symObjAddr: 0xAB38, symBinAddr: 0x10000E404, symSize: 0x2C }
  - { offsetInCU: 0x1E742, offset: 0x1E742, size: 0x8, addend: 0x0, symName: __ZNSt3__122__hash_node_destructorINS_9allocatorINS_11__hash_nodeINS_17__hash_value_typeIP7AddressfEEPvEEEEEC1B8ue170006ERS9_b, symObjAddr: 0xAB64, symBinAddr: 0x10000E430, symSize: 0x48 }
  - { offsetInCU: 0x1E78E, offset: 0x1E78E, size: 0x8, addend: 0x0, symName: __ZNSt3__110unique_ptrINS_11__hash_nodeINS_17__hash_value_typeIP7AddressfEEPvEENS_22__hash_node_destructorINS_9allocatorIS7_EEEEEC1B8ue170006ILb1EvEEPS7_NS_16__dependent_typeINS_27__unique_ptr_deleter_sfinaeISB_EEXT_EE20__good_rval_ref_typeE, symObjAddr: 0xABAC, symBinAddr: 0x10000E478, symSize: 0x3C }
  - { offsetInCU: 0x1E7DE, offset: 0x1E7DE, size: 0x8, addend: 0x0, symName: __ZNSt3__116allocator_traitsINS_9allocatorINS_11__hash_nodeINS_17__hash_value_typeIP7AddressfEEPvEEEEE9constructB8ue170006INS_4pairIKS5_fEEJRKNS_21piecewise_construct_tENS_5tupleIJRSD_EEENSI_IJEEEEvEEvRS9_PT_DpOT0_, symObjAddr: 0xABE8, symBinAddr: 0x10000E4B4, symSize: 0x44 }
  - { offsetInCU: 0x1E85D, offset: 0x1E85D, size: 0x8, addend: 0x0, symName: __ZNSt3__122__hash_key_value_typesINS_17__hash_value_typeIP7AddressfEEE9__get_ptrB8ue170006ERS4_, symObjAddr: 0xAC2C, symBinAddr: 0x10000E4F8, symSize: 0x24 }
  - { offsetInCU: 0x1E880, offset: 0x1E880, size: 0x8, addend: 0x0, symName: __ZNSt3__110unique_ptrINS_11__hash_nodeINS_17__hash_value_typeIP7AddressfEEPvEENS_22__hash_node_destructorINS_9allocatorIS7_EEEEE11get_deleterB8ue170006Ev, symObjAddr: 0xAC50, symBinAddr: 0x10000E51C, symSize: 0x24 }
  - { offsetInCU: 0x1E8A5, offset: 0x1E8A5, size: 0x8, addend: 0x0, symName: __ZNSt3__117__compressed_pairINS_16__hash_node_baseIPNS_11__hash_nodeINS_17__hash_value_typeIP7AddressfEEPvEEEENS_9allocatorIS8_EEE6secondB8ue170006Ev, symObjAddr: 0xAC74, symBinAddr: 0x10000E540, symSize: 0x24 }
  - { offsetInCU: 0x1E8CA, offset: 0x1E8CA, size: 0x8, addend: 0x0, symName: __ZNSt3__122__compressed_pair_elemINS_9allocatorINS_11__hash_nodeINS_17__hash_value_typeIP7AddressfEEPvEEEELi1ELb1EE5__getB8ue170006Ev, symObjAddr: 0xAC98, symBinAddr: 0x10000E564, symSize: 0x14 }
  - { offsetInCU: 0x1E8EF, offset: 0x1E8EF, size: 0x8, addend: 0x0, symName: __ZNSt3__19allocatorINS_11__hash_nodeINS_17__hash_value_typeIP7AddressfEEPvEEE8allocateB8ue170006Em, symObjAddr: 0xACAC, symBinAddr: 0x10000E578, symSize: 0x58 }
  - { offsetInCU: 0x1E92C, offset: 0x1E92C, size: 0x8, addend: 0x0, symName: __ZNSt3__116allocator_traitsINS_9allocatorINS_11__hash_nodeINS_17__hash_value_typeIP7AddressfEEPvEEEEE8max_sizeB8ue170006IS9_vEEmRKS9_, symObjAddr: 0xAD04, symBinAddr: 0x10000E5D0, symSize: 0x24 }
  - { offsetInCU: 0x1E95A, offset: 0x1E95A, size: 0x8, addend: 0x0, symName: __ZNKSt3__19allocatorINS_11__hash_nodeINS_17__hash_value_typeIP7AddressfEEPvEEE8max_sizeB8ue170006Ev, symObjAddr: 0xAD28, symBinAddr: 0x10000E5F4, symSize: 0x14 }
  - { offsetInCU: 0x1E97F, offset: 0x1E97F, size: 0x8, addend: 0x0, symName: __ZNSt3__122__hash_node_destructorINS_9allocatorINS_11__hash_nodeINS_17__hash_value_typeIP7AddressfEEPvEEEEEC2B8ue170006ERS9_b, symObjAddr: 0xAD3C, symBinAddr: 0x10000E608, symSize: 0x38 }
  - { offsetInCU: 0x1E9C6, offset: 0x1E9C6, size: 0x8, addend: 0x0, symName: __ZNSt3__110unique_ptrINS_11__hash_nodeINS_17__hash_value_typeIP7AddressfEEPvEENS_22__hash_node_destructorINS_9allocatorIS7_EEEEEC2B8ue170006ILb1EvEEPS7_NS_16__dependent_typeINS_27__unique_ptr_deleter_sfinaeISB_EEXT_EE20__good_rval_ref_typeE, symObjAddr: 0xAD74, symBinAddr: 0x10000E640, symSize: 0x48 }
  - { offsetInCU: 0x1EA16, offset: 0x1EA16, size: 0x8, addend: 0x0, symName: __ZNSt3__117__compressed_pairIPNS_11__hash_nodeINS_17__hash_value_typeIP7AddressfEEPvEENS_22__hash_node_destructorINS_9allocatorIS7_EEEEEC1B8ue170006IRS8_SC_EEOT_OT0_, symObjAddr: 0xADBC, symBinAddr: 0x10000E688, symSize: 0x3C }
  - { offsetInCU: 0x1EA6D, offset: 0x1EA6D, size: 0x8, addend: 0x0, symName: __ZNSt3__117__compressed_pairIPNS_11__hash_nodeINS_17__hash_value_typeIP7AddressfEEPvEENS_22__hash_node_destructorINS_9allocatorIS7_EEEEEC2B8ue170006IRS8_SC_EEOT_OT0_, symObjAddr: 0xADF8, symBinAddr: 0x10000E6C4, symSize: 0x48 }
  - { offsetInCU: 0x1EAC4, offset: 0x1EAC4, size: 0x8, addend: 0x0, symName: __ZNSt3__122__compressed_pair_elemIPNS_11__hash_nodeINS_17__hash_value_typeIP7AddressfEEPvEELi0ELb0EEC2B8ue170006IRS8_vEEOT_, symObjAddr: 0xAE40, symBinAddr: 0x10000E70C, symSize: 0x24 }
  - { offsetInCU: 0x1EB05, offset: 0x1EB05, size: 0x8, addend: 0x0, symName: __ZNSt3__122__compressed_pair_elemINS_22__hash_node_destructorINS_9allocatorINS_11__hash_nodeINS_17__hash_value_typeIP7AddressfEEPvEEEEEELi1ELb0EEC2B8ue170006ISB_vEEOT_, symObjAddr: 0xAE64, symBinAddr: 0x10000E730, symSize: 0x24 }
  - { offsetInCU: 0x1EB46, offset: 0x1EB46, size: 0x8, addend: 0x0, symName: __ZNSt3__19allocatorINS_11__hash_nodeINS_17__hash_value_typeIP7AddressfEEPvEEE9constructB8ue170006INS_4pairIKS4_fEEJRKNS_21piecewise_construct_tENS_5tupleIJRSB_EEENSG_IJEEEEEEvPT_DpOT0_, symObjAddr: 0xAE88, symBinAddr: 0x10000E754, symSize: 0x44 }
  - { offsetInCU: 0x1EBC1, offset: 0x1EBC1, size: 0x8, addend: 0x0, symName: __ZNSt3__14pairIKP7AddressfEC1B8ue170006IJRS3_EJEEENS_21piecewise_construct_tENS_5tupleIJDpT_EEENS8_IJDpT0_EEE, symObjAddr: 0xAECC, symBinAddr: 0x10000E798, symSize: 0x44 }
  - { offsetInCU: 0x1EC27, offset: 0x1EC27, size: 0x8, addend: 0x0, symName: __ZNSt3__14pairIKP7AddressfEC1B8ue170006IJRS3_EJEJLm0EEJEEENS_21piecewise_construct_tERNS_5tupleIJDpT_EEERNS8_IJDpT0_EEENS_15__tuple_indicesIJXspT1_EEEENSH_IJXspT2_EEEE, symObjAddr: 0xAF10, symBinAddr: 0x10000E7DC, symSize: 0x3C }
  - { offsetInCU: 0x1ECB6, offset: 0x1ECB6, size: 0x8, addend: 0x0, symName: __ZNSt3__14pairIKP7AddressfEC2B8ue170006IJRS3_EJEJLm0EEJEEENS_21piecewise_construct_tERNS_5tupleIJDpT_EEERNS8_IJDpT0_EEENS_15__tuple_indicesIJXspT1_EEEENSH_IJXspT2_EEEE, symObjAddr: 0xAF4C, symBinAddr: 0x10000E818, symSize: 0x4C }
  - { offsetInCU: 0x1ED45, offset: 0x1ED45, size: 0x8, addend: 0x0, symName: __ZNSt3__112__tuple_leafILm0ERKP7AddressLb0EE3getB8ue170006Ev, symObjAddr: 0xAFBC, symBinAddr: 0x10000E888, symSize: 0x18 }
  - { offsetInCU: 0x1ED6A, offset: 0x1ED6A, size: 0x8, addend: 0x0, symName: __ZNSt3__117__compressed_pairIPNS_11__hash_nodeINS_17__hash_value_typeIP7AddressfEEPvEENS_22__hash_node_destructorINS_9allocatorIS7_EEEEE6secondB8ue170006Ev, symObjAddr: 0xAFD4, symBinAddr: 0x10000E8A0, symSize: 0x28 }
  - { offsetInCU: 0x1ED8F, offset: 0x1ED8F, size: 0x8, addend: 0x0, symName: __ZNSt3__122__compressed_pair_elemINS_22__hash_node_destructorINS_9allocatorINS_11__hash_nodeINS_17__hash_value_typeIP7AddressfEEPvEEEEEELi1ELb0EE5__getB8ue170006Ev, symObjAddr: 0xAFFC, symBinAddr: 0x10000E8C8, symSize: 0x14 }
  - { offsetInCU: 0x1EDB4, offset: 0x1EDB4, size: 0x8, addend: 0x0, symName: __ZNSt3__117__compressed_pairImNS_22__unordered_map_hasherIP7AddressNS_17__hash_value_typeIS3_fEENS_4hashIS3_EENS_8equal_toIS3_EELb1EEEE5firstB8ue170006Ev, symObjAddr: 0xB010, symBinAddr: 0x10000E8DC, symSize: 0x24 }
  - { offsetInCU: 0x1EDD9, offset: 0x1EDD9, size: 0x8, addend: 0x0, symName: __ZNSt3__122__compressed_pair_elemImLi0ELb0EE5__getB8ue170006Ev, symObjAddr: 0xB034, symBinAddr: 0x10000E900, symSize: 0x14 }
  - { offsetInCU: 0x1EDFE, offset: 0x1EDFE, size: 0x8, addend: 0x0, symName: __ZNSt3__117__compressed_pairIfNS_21__unordered_map_equalIP7AddressNS_17__hash_value_typeIS3_fEENS_8equal_toIS3_EENS_4hashIS3_EELb1EEEE5firstB8ue170006Ev, symObjAddr: 0xB048, symBinAddr: 0x10000E914, symSize: 0x24 }
  - { offsetInCU: 0x1EE23, offset: 0x1EE23, size: 0x8, addend: 0x0, symName: __ZNSt3__122__compressed_pair_elemIfLi0ELb0EE5__getB8ue170006Ev, symObjAddr: 0xB06C, symBinAddr: 0x10000E938, symSize: 0x14 }
  - { offsetInCU: 0x1EE47, offset: 0x1EE47, size: 0x8, addend: 0x0, symName: __ZNSt3__112__hash_tableINS_17__hash_value_typeIP7AddressfEENS_22__unordered_map_hasherIS3_S4_NS_4hashIS3_EENS_8equal_toIS3_EELb1EEENS_21__unordered_map_equalIS3_S4_S9_S7_Lb1EEENS_9allocatorIS4_EEE8__rehashILb1EEEvm, symObjAddr: 0xB080, symBinAddr: 0x10000E94C, symSize: 0x1A8 }
  - { offsetInCU: 0x1EE95, offset: 0x1EE95, size: 0x8, addend: 0x0, symName: __ZNSt3__112__hash_tableINS_17__hash_value_typeIP7AddressfEENS_22__unordered_map_hasherIS3_S4_NS_4hashIS3_EENS_8equal_toIS3_EELb1EEENS_21__unordered_map_equalIS3_S4_S9_S7_Lb1EEENS_9allocatorIS4_EEE11__do_rehashILb1EEEvm, symObjAddr: 0xB228, symBinAddr: 0x10000EAF4, symSize: 0x288 }
  - { offsetInCU: 0x1EF7B, offset: 0x1EF7B, size: 0x8, addend: 0x0, symName: __ZNSt3__110unique_ptrIA_PNS_16__hash_node_baseIPNS_11__hash_nodeINS_17__hash_value_typeIP7AddressfEEPvEEEENS_25__bucket_list_deallocatorINS_9allocatorISB_EEEEE11get_deleterB8ue170006Ev, symObjAddr: 0xB51C, symBinAddr: 0x10000EDE8, symSize: 0x24 }
  - { offsetInCU: 0x1EFA0, offset: 0x1EFA0, size: 0x8, addend: 0x0, symName: __ZNSt3__125__bucket_list_deallocatorINS_9allocatorIPNS_16__hash_node_baseIPNS_11__hash_nodeINS_17__hash_value_typeIP7AddressfEEPvEEEEEEE7__allocB8ue170006Ev, symObjAddr: 0xB540, symBinAddr: 0x10000EE0C, symSize: 0x24 }
  - { offsetInCU: 0x1EFC5, offset: 0x1EFC5, size: 0x8, addend: 0x0, symName: __ZNSt3__110unique_ptrIA_PNS_16__hash_node_baseIPNS_11__hash_nodeINS_17__hash_value_typeIP7AddressfEEPvEEEENS_25__bucket_list_deallocatorINS_9allocatorISB_EEEEE5resetB8ue170006IPSB_EENS_9enable_ifIXsr28_CheckArrayPointerConversionIT_EE5valueEvE4typeESL_, symObjAddr: 0xB564, symBinAddr: 0x10000EE30, symSize: 0x78 }
  - { offsetInCU: 0x1F011, offset: 0x1F011, size: 0x8, addend: 0x0, symName: __ZNSt3__116allocator_traitsINS_9allocatorIPNS_16__hash_node_baseIPNS_11__hash_nodeINS_17__hash_value_typeIP7AddressfEEPvEEEEEEE8allocateB8ue170006ERSD_m, symObjAddr: 0xB5DC, symBinAddr: 0x10000EEA8, symSize: 0x2C }
  - { offsetInCU: 0x1F044, offset: 0x1F044, size: 0x8, addend: 0x0, symName: __ZNSt3__125__bucket_list_deallocatorINS_9allocatorIPNS_16__hash_node_baseIPNS_11__hash_nodeINS_17__hash_value_typeIP7AddressfEEPvEEEEEEE4sizeB8ue170006Ev, symObjAddr: 0xB608, symBinAddr: 0x10000EED4, symSize: 0x24 }
  - { offsetInCU: 0x1F069, offset: 0x1F069, size: 0x8, addend: 0x0, symName: __ZNSt3__117__compressed_pairIPPNS_16__hash_node_baseIPNS_11__hash_nodeINS_17__hash_value_typeIP7AddressfEEPvEEEENS_25__bucket_list_deallocatorINS_9allocatorISB_EEEEE6secondB8ue170006Ev, symObjAddr: 0xB62C, symBinAddr: 0x10000EEF8, symSize: 0x28 }
  - { offsetInCU: 0x1F08E, offset: 0x1F08E, size: 0x8, addend: 0x0, symName: __ZNSt3__122__compressed_pair_elemINS_25__bucket_list_deallocatorINS_9allocatorIPNS_16__hash_node_baseIPNS_11__hash_nodeINS_17__hash_value_typeIP7AddressfEEPvEEEEEEEELi1ELb0EE5__getB8ue170006Ev, symObjAddr: 0xB654, symBinAddr: 0x10000EF20, symSize: 0x14 }
  - { offsetInCU: 0x1F0B3, offset: 0x1F0B3, size: 0x8, addend: 0x0, symName: __ZNSt3__117__compressed_pairImNS_9allocatorIPNS_16__hash_node_baseIPNS_11__hash_nodeINS_17__hash_value_typeIP7AddressfEEPvEEEEEEE6secondB8ue170006Ev, symObjAddr: 0xB668, symBinAddr: 0x10000EF34, symSize: 0x24 }
  - { offsetInCU: 0x1F0D8, offset: 0x1F0D8, size: 0x8, addend: 0x0, symName: __ZNSt3__122__compressed_pair_elemINS_9allocatorIPNS_16__hash_node_baseIPNS_11__hash_nodeINS_17__hash_value_typeIP7AddressfEEPvEEEEEELi1ELb1EE5__getB8ue170006Ev, symObjAddr: 0xB68C, symBinAddr: 0x10000EF58, symSize: 0x14 }
  - { offsetInCU: 0x1F0FD, offset: 0x1F0FD, size: 0x8, addend: 0x0, symName: __ZNSt3__117__compressed_pairIPPNS_16__hash_node_baseIPNS_11__hash_nodeINS_17__hash_value_typeIP7AddressfEEPvEEEENS_25__bucket_list_deallocatorINS_9allocatorISB_EEEEE5firstB8ue170006Ev, symObjAddr: 0xB6A0, symBinAddr: 0x10000EF6C, symSize: 0x24 }
  - { offsetInCU: 0x1F122, offset: 0x1F122, size: 0x8, addend: 0x0, symName: __ZNSt3__125__bucket_list_deallocatorINS_9allocatorIPNS_16__hash_node_baseIPNS_11__hash_nodeINS_17__hash_value_typeIP7AddressfEEPvEEEEEEEclB8ue170006EPSC_, symObjAddr: 0xB6C4, symBinAddr: 0x10000EF90, symSize: 0x58 }
  - { offsetInCU: 0x1F156, offset: 0x1F156, size: 0x8, addend: 0x0, symName: __ZNSt3__122__compressed_pair_elemIPPNS_16__hash_node_baseIPNS_11__hash_nodeINS_17__hash_value_typeIP7AddressfEEPvEEEELi0ELb0EE5__getB8ue170006Ev, symObjAddr: 0xB71C, symBinAddr: 0x10000EFE8, symSize: 0x14 }
  - { offsetInCU: 0x1F17B, offset: 0x1F17B, size: 0x8, addend: 0x0, symName: __ZNSt3__116allocator_traitsINS_9allocatorIPNS_16__hash_node_baseIPNS_11__hash_nodeINS_17__hash_value_typeIP7AddressfEEPvEEEEEEE10deallocateB8ue170006ERSD_PSC_m, symObjAddr: 0xB730, symBinAddr: 0x10000EFFC, symSize: 0x34 }
  - { offsetInCU: 0x1F1BD, offset: 0x1F1BD, size: 0x8, addend: 0x0, symName: __ZNSt3__19allocatorIPNS_16__hash_node_baseIPNS_11__hash_nodeINS_17__hash_value_typeIP7AddressfEEPvEEEEE10deallocateB8ue170006EPSB_m, symObjAddr: 0xB764, symBinAddr: 0x10000F030, symSize: 0x40 }
  - { offsetInCU: 0x1F1FE, offset: 0x1F1FE, size: 0x8, addend: 0x0, symName: __ZNSt3__19allocatorIPNS_16__hash_node_baseIPNS_11__hash_nodeINS_17__hash_value_typeIP7AddressfEEPvEEEEE8allocateB8ue170006Em, symObjAddr: 0xB7A4, symBinAddr: 0x10000F070, symSize: 0x58 }
  - { offsetInCU: 0x1F23B, offset: 0x1F23B, size: 0x8, addend: 0x0, symName: __ZNSt3__116allocator_traitsINS_9allocatorIPNS_16__hash_node_baseIPNS_11__hash_nodeINS_17__hash_value_typeIP7AddressfEEPvEEEEEEE8max_sizeB8ue170006ISD_vEEmRKSD_, symObjAddr: 0xB7FC, symBinAddr: 0x10000F0C8, symSize: 0x24 }
  - { offsetInCU: 0x1F269, offset: 0x1F269, size: 0x8, addend: 0x0, symName: __ZNKSt3__19allocatorIPNS_16__hash_node_baseIPNS_11__hash_nodeINS_17__hash_value_typeIP7AddressfEEPvEEEEE8max_sizeB8ue170006Ev, symObjAddr: 0xB820, symBinAddr: 0x10000F0EC, symSize: 0x14 }
  - { offsetInCU: 0x1F28E, offset: 0x1F28E, size: 0x8, addend: 0x0, symName: __ZNSt3__117__compressed_pairImNS_9allocatorIPNS_16__hash_node_baseIPNS_11__hash_nodeINS_17__hash_value_typeIP7AddressfEEPvEEEEEEE5firstB8ue170006Ev, symObjAddr: 0xB834, symBinAddr: 0x10000F100, symSize: 0x24 }
  - { offsetInCU: 0x1F2B3, offset: 0x1F2B3, size: 0x8, addend: 0x0, symName: __ZNSt3__122__compressed_pair_elemINS_16__hash_node_baseIPNS_11__hash_nodeINS_17__hash_value_typeIP7AddressfEEPvEEEELi0ELb0EE5__getB8ue170006Ev, symObjAddr: 0xB874, symBinAddr: 0x10000F140, symSize: 0x14 }
  - { offsetInCU: 0x1F2D8, offset: 0x1F2D8, size: 0x8, addend: 0x0, symName: __ZNKSt3__117__compressed_pairIPNS_11__hash_nodeINS_17__hash_value_typeIP7AddressfEEPvEENS_22__hash_node_destructorINS_9allocatorIS7_EEEEE5firstB8ue170006Ev, symObjAddr: 0xB888, symBinAddr: 0x10000F154, symSize: 0x24 }
  - { offsetInCU: 0x1F2FD, offset: 0x1F2FD, size: 0x8, addend: 0x0, symName: __ZNKSt3__122__compressed_pair_elemIPNS_11__hash_nodeINS_17__hash_value_typeIP7AddressfEEPvEELi0ELb0EE5__getB8ue170006Ev, symObjAddr: 0xB8AC, symBinAddr: 0x10000F178, symSize: 0x14 }
  - { offsetInCU: 0x1F322, offset: 0x1F322, size: 0x8, addend: 0x0, symName: __ZNSt3__117__compressed_pairIPNS_11__hash_nodeINS_17__hash_value_typeIP7AddressfEEPvEENS_22__hash_node_destructorINS_9allocatorIS7_EEEEE5firstB8ue170006Ev, symObjAddr: 0xB8C0, symBinAddr: 0x10000F18C, symSize: 0x24 }
  - { offsetInCU: 0x1F347, offset: 0x1F347, size: 0x8, addend: 0x0, symName: __ZNSt3__122__compressed_pair_elemIPNS_11__hash_nodeINS_17__hash_value_typeIP7AddressfEEPvEELi0ELb0EE5__getB8ue170006Ev, symObjAddr: 0xB8E4, symBinAddr: 0x10000F1B0, symSize: 0x14 }
  - { offsetInCU: 0x1F36C, offset: 0x1F36C, size: 0x8, addend: 0x0, symName: __ZNSt3__110unique_ptrINS_11__hash_nodeINS_17__hash_value_typeIP7AddressfEEPvEENS_22__hash_node_destructorINS_9allocatorIS7_EEEEED2B8ue170006Ev, symObjAddr: 0xB8F8, symBinAddr: 0x10000F1C4, symSize: 0x30 }
  - { offsetInCU: 0x1F395, offset: 0x1F395, size: 0x8, addend: 0x0, symName: __ZNSt3__110unique_ptrINS_11__hash_nodeINS_17__hash_value_typeIP7AddressfEEPvEENS_22__hash_node_destructorINS_9allocatorIS7_EEEEE5resetB8ue170006EPS7_, symObjAddr: 0xB928, symBinAddr: 0x10000F1F4, symSize: 0x78 }
  - { offsetInCU: 0x1F3D8, offset: 0x1F3D8, size: 0x8, addend: 0x0, symName: __ZNSt3__122__hash_node_destructorINS_9allocatorINS_11__hash_nodeINS_17__hash_value_typeIP7AddressfEEPvEEEEEclB8ue170006EPS8_, symObjAddr: 0xB9A0, symBinAddr: 0x10000F26C, symSize: 0x98 }
  - { offsetInCU: 0x1F40C, offset: 0x1F40C, size: 0x8, addend: 0x0, symName: __ZNSt3__116allocator_traitsINS_9allocatorINS_11__hash_nodeINS_17__hash_value_typeIP7AddressfEEPvEEEEE7destroyB8ue170006INS_4pairIKS5_fEEvvEEvRS9_PT_, symObjAddr: 0xBA38, symBinAddr: 0x10000F304, symSize: 0x14 }
  - { offsetInCU: 0x1F447, offset: 0x1F447, size: 0x8, addend: 0x0, symName: __ZNSt3__116allocator_traitsINS_9allocatorINS_11__hash_nodeINS_17__hash_value_typeIP7AddressfEEPvEEEEE10deallocateB8ue170006ERS9_PS8_m, symObjAddr: 0xBA4C, symBinAddr: 0x10000F318, symSize: 0x34 }
  - { offsetInCU: 0x1F489, offset: 0x1F489, size: 0x8, addend: 0x0, symName: __ZNSt3__19allocatorINS_11__hash_nodeINS_17__hash_value_typeIP7AddressfEEPvEEE10deallocateB8ue170006EPS7_m, symObjAddr: 0xBA80, symBinAddr: 0x10000F34C, symSize: 0x40 }
  - { offsetInCU: 0x1F4CA, offset: 0x1F4CA, size: 0x8, addend: 0x0, symName: __ZNSt3__115__hash_iteratorIPNS_11__hash_nodeINS_17__hash_value_typeIP7AddressfEEPvEEEC2B8ue170006EPNS_16__hash_node_baseIS8_EE, symObjAddr: 0xBAC0, symBinAddr: 0x10000F38C, symSize: 0x20 }
  - { offsetInCU: 0x1F502, offset: 0x1F502, size: 0x8, addend: 0x0, symName: __ZNSt3__14pairINS_15__hash_iteratorIPNS_11__hash_nodeINS_17__hash_value_typeIP7AddressfEEPvEEEEbEC2B8ue170006ISA_RbLS7_0EEEOT_OT0_, symObjAddr: 0xBAE0, symBinAddr: 0x10000F3AC, symSize: 0x38 }
  - { offsetInCU: 0x1F55F, offset: 0x1F55F, size: 0x8, addend: 0x0, symName: __ZNSt3__15tupleIJRKP7AddressEEC1B8ue170006INS_4_AndELi0EEES4_, symObjAddr: 0xBB18, symBinAddr: 0x10000F3E4, symSize: 0x34 }
  - { offsetInCU: 0x1F5A6, offset: 0x1F5A6, size: 0x8, addend: 0x0, symName: __ZNSt3__15tupleIJRKP7AddressEEC2B8ue170006INS_4_AndELi0EEES4_, symObjAddr: 0xBB4C, symBinAddr: 0x10000F418, symSize: 0x34 }
  - { offsetInCU: 0x1F5ED, offset: 0x1F5ED, size: 0x8, addend: 0x0, symName: __ZNSt3__112__tuple_implINS_15__tuple_indicesIJLm0EEEEJRKP7AddressEEC1B8ue170006IJLm0EEJS6_EJEJEJS6_EEENS1_IJXspT_EEEENS_13__tuple_typesIJDpT0_EEENS1_IJXspT1_EEEENSA_IJDpT2_EEEDpOT3_, symObjAddr: 0xBB80, symBinAddr: 0x10000F44C, symSize: 0x34 }
  - { offsetInCU: 0x1F681, offset: 0x1F681, size: 0x8, addend: 0x0, symName: __ZNSt3__112__tuple_implINS_15__tuple_indicesIJLm0EEEEJRKP7AddressEEC2B8ue170006IJLm0EEJS6_EJEJEJS6_EEENS1_IJXspT_EEEENS_13__tuple_typesIJDpT0_EEENS1_IJXspT1_EEEENSA_IJDpT2_EEEDpOT3_, symObjAddr: 0xBBB4, symBinAddr: 0x10000F480, symSize: 0x34 }
  - { offsetInCU: 0x1F715, offset: 0x1F715, size: 0x8, addend: 0x0, symName: __ZNSt3__112__tuple_leafILm0ERKP7AddressLb0EEC2B8ue170006IS4_vEEOT_, symObjAddr: 0xBBE8, symBinAddr: 0x10000F4B4, symSize: 0x20 }
  - { offsetInCU: 0x1F757, offset: 0x1F757, size: 0x8, addend: 0x0, symName: __ZNSt3__114pointer_traitsIPNS_17__hash_value_typeIP7AddressfEEE10pointer_toB8ue170006ERS4_, symObjAddr: 0xBC08, symBinAddr: 0x10000F4D4, symSize: 0x14 }
  - { offsetInCU: 0x1F779, offset: 0x1F779, size: 0x8, addend: 0x0, symName: __ZNSt3__112__hash_tableINS_17__hash_value_typeIP7AddressP4NodeEENS_22__unordered_map_hasherIS3_S6_NS_4hashIS3_EENS_8equal_toIS3_EELb1EEENS_21__unordered_map_equalIS3_S6_SB_S9_Lb1EEENS_9allocatorIS6_EEE25__emplace_unique_key_argsIS3_JRKNS_21piecewise_construct_tENS_5tupleIJRKS3_EEENSM_IJEEEEEENS_4pairINS_15__hash_iteratorIPNS_11__hash_nodeIS6_PvEEEEbEERKT_DpOT0_, symObjAddr: 0xBC1C, symBinAddr: 0x10000F4E8, symSize: 0x4CC }
  - { offsetInCU: 0x1F882, offset: 0x1F882, size: 0x8, addend: 0x0, symName: __ZNKSt3__115__hash_iteratorIPNS_11__hash_nodeINS_17__hash_value_typeIP7AddressP4NodeEEPvEEEptB8ue170006Ev, symObjAddr: 0xC0E8, symBinAddr: 0x10000F9B4, symSize: 0x30 }
  - { offsetInCU: 0x1F8A7, offset: 0x1F8A7, size: 0x8, addend: 0x0, symName: __ZNSt3__117__hash_value_typeIP7AddressP4NodeE11__get_valueB8ue170006Ev, symObjAddr: 0xC118, symBinAddr: 0x10000F9E4, symSize: 0x14 }
  - { offsetInCU: 0x1F8CC, offset: 0x1F8CC, size: 0x8, addend: 0x0, symName: __ZNSt3__112__hash_tableINS_17__hash_value_typeIP7AddressP4NodeEENS_22__unordered_map_hasherIS3_S6_NS_4hashIS3_EENS_8equal_toIS3_EELb1EEENS_21__unordered_map_equalIS3_S6_SB_S9_Lb1EEENS_9allocatorIS6_EEE13hash_functionB8ue170006Ev, symObjAddr: 0xC12C, symBinAddr: 0x10000F9F8, symSize: 0x28 }
  - { offsetInCU: 0x1F8F1, offset: 0x1F8F1, size: 0x8, addend: 0x0, symName: __ZNKSt3__122__unordered_map_hasherIP7AddressNS_17__hash_value_typeIS2_P4NodeEENS_4hashIS2_EENS_8equal_toIS2_EELb1EEclB8ue170006ERKS2_, symObjAddr: 0xC154, symBinAddr: 0x10000FA20, symSize: 0x30 }
  - { offsetInCU: 0x1F925, offset: 0x1F925, size: 0x8, addend: 0x0, symName: __ZNKSt3__112__hash_tableINS_17__hash_value_typeIP7AddressP4NodeEENS_22__unordered_map_hasherIS3_S6_NS_4hashIS3_EENS_8equal_toIS3_EELb1EEENS_21__unordered_map_equalIS3_S6_SB_S9_Lb1EEENS_9allocatorIS6_EEE12bucket_countB8ue170006Ev, symObjAddr: 0xC184, symBinAddr: 0x10000FA50, symSize: 0x28 }
  - { offsetInCU: 0x1F94A, offset: 0x1F94A, size: 0x8, addend: 0x0, symName: __ZNKSt3__110unique_ptrIA_PNS_16__hash_node_baseIPNS_11__hash_nodeINS_17__hash_value_typeIP7AddressP4NodeEEPvEEEENS_25__bucket_list_deallocatorINS_9allocatorISD_EEEEEixB8ue170006Em, symObjAddr: 0xC1AC, symBinAddr: 0x10000FA78, symSize: 0x34 }
  - { offsetInCU: 0x1F97E, offset: 0x1F97E, size: 0x8, addend: 0x0, symName: __ZNKSt3__116__hash_node_baseIPNS_11__hash_nodeINS_17__hash_value_typeIP7AddressP4NodeEEPvEEE6__hashB8ue170006Ev, symObjAddr: 0xC1E0, symBinAddr: 0x10000FAAC, symSize: 0x18 }
  - { offsetInCU: 0x1F9A3, offset: 0x1F9A3, size: 0x8, addend: 0x0, symName: __ZNSt3__112__hash_tableINS_17__hash_value_typeIP7AddressP4NodeEENS_22__unordered_map_hasherIS3_S6_NS_4hashIS3_EENS_8equal_toIS3_EELb1EEENS_21__unordered_map_equalIS3_S6_SB_S9_Lb1EEENS_9allocatorIS6_EEE6key_eqB8ue170006Ev, symObjAddr: 0xC1F8, symBinAddr: 0x10000FAC4, symSize: 0x28 }
  - { offsetInCU: 0x1F9C8, offset: 0x1F9C8, size: 0x8, addend: 0x0, symName: __ZNKSt3__121__unordered_map_equalIP7AddressNS_17__hash_value_typeIS2_P4NodeEENS_8equal_toIS2_EENS_4hashIS2_EELb1EEclB8ue170006ERKS6_RKS2_, symObjAddr: 0xC220, symBinAddr: 0x10000FAEC, symSize: 0x48 }
  - { offsetInCU: 0x1FA0B, offset: 0x1FA0B, size: 0x8, addend: 0x0, symName: __ZNSt3__116__hash_node_baseIPNS_11__hash_nodeINS_17__hash_value_typeIP7AddressP4NodeEEPvEEE8__upcastB8ue170006Ev, symObjAddr: 0xC268, symBinAddr: 0x10000FB34, symSize: 0x24 }
  - { offsetInCU: 0x1FA2F, offset: 0x1FA2F, size: 0x8, addend: 0x0, symName: __ZNSt3__112__hash_tableINS_17__hash_value_typeIP7AddressP4NodeEENS_22__unordered_map_hasherIS3_S6_NS_4hashIS3_EENS_8equal_toIS3_EELb1EEENS_21__unordered_map_equalIS3_S6_SB_S9_Lb1EEENS_9allocatorIS6_EEE21__construct_node_hashIRKNS_21piecewise_construct_tEJNS_5tupleIJRKS3_EEENSM_IJEEEEEENS_10unique_ptrINS_11__hash_nodeIS6_PvEENS_22__hash_node_destructorINSF_ISU_EEEEEEmOT_DpOT0_, symObjAddr: 0xC28C, symBinAddr: 0x10000FB58, symSize: 0x150 }
  - { offsetInCU: 0x1FACA, offset: 0x1FACA, size: 0x8, addend: 0x0, symName: __ZNSt3__112__hash_tableINS_17__hash_value_typeIP7AddressP4NodeEENS_22__unordered_map_hasherIS3_S6_NS_4hashIS3_EENS_8equal_toIS3_EELb1EEENS_21__unordered_map_equalIS3_S6_SB_S9_Lb1EEENS_9allocatorIS6_EEE4sizeB8ue170006Ev, symObjAddr: 0xC3DC, symBinAddr: 0x10000FCA8, symSize: 0x28 }
  - { offsetInCU: 0x1FAEF, offset: 0x1FAEF, size: 0x8, addend: 0x0, symName: __ZNSt3__112__hash_tableINS_17__hash_value_typeIP7AddressP4NodeEENS_22__unordered_map_hasherIS3_S6_NS_4hashIS3_EENS_8equal_toIS3_EELb1EEENS_21__unordered_map_equalIS3_S6_SB_S9_Lb1EEENS_9allocatorIS6_EEE15max_load_factorB8ue170006Ev, symObjAddr: 0xC404, symBinAddr: 0x10000FCD0, symSize: 0x28 }
  - { offsetInCU: 0x1FB14, offset: 0x1FB14, size: 0x8, addend: 0x0, symName: __ZNSt3__112__hash_tableINS_17__hash_value_typeIP7AddressP4NodeEENS_22__unordered_map_hasherIS3_S6_NS_4hashIS3_EENS_8equal_toIS3_EELb1EEENS_21__unordered_map_equalIS3_S6_SB_S9_Lb1EEENS_9allocatorIS6_EEE15__rehash_uniqueB8ue170006Em, symObjAddr: 0xC42C, symBinAddr: 0x10000FCF8, symSize: 0x2C }
  - { offsetInCU: 0x1FB48, offset: 0x1FB48, size: 0x8, addend: 0x0, symName: __ZNSt3__117__compressed_pairINS_16__hash_node_baseIPNS_11__hash_nodeINS_17__hash_value_typeIP7AddressP4NodeEEPvEEEENS_9allocatorISA_EEE5firstB8ue170006Ev, symObjAddr: 0xC458, symBinAddr: 0x10000FD24, symSize: 0x24 }
  - { offsetInCU: 0x1FB6D, offset: 0x1FB6D, size: 0x8, addend: 0x0, symName: __ZNSt3__116__hash_node_baseIPNS_11__hash_nodeINS_17__hash_value_typeIP7AddressP4NodeEEPvEEE5__ptrB8ue170006Ev, symObjAddr: 0xC47C, symBinAddr: 0x10000FD48, symSize: 0x24 }
  - { offsetInCU: 0x1FB92, offset: 0x1FB92, size: 0x8, addend: 0x0, symName: __ZNKSt3__110unique_ptrINS_11__hash_nodeINS_17__hash_value_typeIP7AddressP4NodeEEPvEENS_22__hash_node_destructorINS_9allocatorIS9_EEEEEptB8ue170006Ev, symObjAddr: 0xC4A0, symBinAddr: 0x10000FD6C, symSize: 0x28 }
  - { offsetInCU: 0x1FBB7, offset: 0x1FBB7, size: 0x8, addend: 0x0, symName: __ZNKSt3__110unique_ptrINS_11__hash_nodeINS_17__hash_value_typeIP7AddressP4NodeEEPvEENS_22__hash_node_destructorINS_9allocatorIS9_EEEEE3getB8ue170006Ev, symObjAddr: 0xC4C8, symBinAddr: 0x10000FD94, symSize: 0x28 }
  - { offsetInCU: 0x1FBDC, offset: 0x1FBDC, size: 0x8, addend: 0x0, symName: __ZNSt3__110unique_ptrINS_11__hash_nodeINS_17__hash_value_typeIP7AddressP4NodeEEPvEENS_22__hash_node_destructorINS_9allocatorIS9_EEEEE7releaseB8ue170006Ev, symObjAddr: 0xC4F0, symBinAddr: 0x10000FDBC, symSize: 0x44 }
  - { offsetInCU: 0x1FC10, offset: 0x1FC10, size: 0x8, addend: 0x0, symName: __ZNSt3__110unique_ptrINS_11__hash_nodeINS_17__hash_value_typeIP7AddressP4NodeEEPvEENS_22__hash_node_destructorINS_9allocatorIS9_EEEEED1B8ue170006Ev, symObjAddr: 0xC534, symBinAddr: 0x10000FE00, symSize: 0x2C }
  - { offsetInCU: 0x1FC39, offset: 0x1FC39, size: 0x8, addend: 0x0, symName: __ZNSt3__115__hash_iteratorIPNS_11__hash_nodeINS_17__hash_value_typeIP7AddressP4NodeEEPvEEEC1B8ue170006EPNS_16__hash_node_baseISA_EE, symObjAddr: 0xC560, symBinAddr: 0x10000FE2C, symSize: 0x34 }
  - { offsetInCU: 0x1FC76, offset: 0x1FC76, size: 0x8, addend: 0x0, symName: __ZNSt3__14pairINS_15__hash_iteratorIPNS_11__hash_nodeINS_17__hash_value_typeIP7AddressP4NodeEEPvEEEEbEC1B8ue170006ISC_RbLS9_0EEEOT_OT0_, symObjAddr: 0xC594, symBinAddr: 0x10000FE60, symSize: 0x3C }
  - { offsetInCU: 0x1FCD3, offset: 0x1FCD3, size: 0x8, addend: 0x0, symName: __ZNSt3__117__compressed_pairImNS_22__unordered_map_hasherIP7AddressNS_17__hash_value_typeIS3_P4NodeEENS_4hashIS3_EENS_8equal_toIS3_EELb1EEEE6secondB8ue170006Ev, symObjAddr: 0xC5D0, symBinAddr: 0x10000FE9C, symSize: 0x24 }
  - { offsetInCU: 0x1FCF8, offset: 0x1FCF8, size: 0x8, addend: 0x0, symName: __ZNSt3__122__compressed_pair_elemINS_22__unordered_map_hasherIP7AddressNS_17__hash_value_typeIS3_P4NodeEENS_4hashIS3_EENS_8equal_toIS3_EELb1EEELi1ELb1EE5__getB8ue170006Ev, symObjAddr: 0xC5F4, symBinAddr: 0x10000FEC0, symSize: 0x14 }
  - { offsetInCU: 0x1FD1D, offset: 0x1FD1D, size: 0x8, addend: 0x0, symName: __ZNKSt3__110unique_ptrIA_PNS_16__hash_node_baseIPNS_11__hash_nodeINS_17__hash_value_typeIP7AddressP4NodeEEPvEEEENS_25__bucket_list_deallocatorINS_9allocatorISD_EEEEE11get_deleterB8ue170006Ev, symObjAddr: 0xC608, symBinAddr: 0x10000FED4, symSize: 0x24 }
  - { offsetInCU: 0x1FD42, offset: 0x1FD42, size: 0x8, addend: 0x0, symName: __ZNKSt3__125__bucket_list_deallocatorINS_9allocatorIPNS_16__hash_node_baseIPNS_11__hash_nodeINS_17__hash_value_typeIP7AddressP4NodeEEPvEEEEEEE4sizeB8ue170006Ev, symObjAddr: 0xC62C, symBinAddr: 0x10000FEF8, symSize: 0x28 }
  - { offsetInCU: 0x1FD67, offset: 0x1FD67, size: 0x8, addend: 0x0, symName: __ZNKSt3__117__compressed_pairIPPNS_16__hash_node_baseIPNS_11__hash_nodeINS_17__hash_value_typeIP7AddressP4NodeEEPvEEEENS_25__bucket_list_deallocatorINS_9allocatorISD_EEEEE6secondB8ue170006Ev, symObjAddr: 0xC654, symBinAddr: 0x10000FF20, symSize: 0x28 }
  - { offsetInCU: 0x1FD8C, offset: 0x1FD8C, size: 0x8, addend: 0x0, symName: __ZNKSt3__122__compressed_pair_elemINS_25__bucket_list_deallocatorINS_9allocatorIPNS_16__hash_node_baseIPNS_11__hash_nodeINS_17__hash_value_typeIP7AddressP4NodeEEPvEEEEEEEELi1ELb0EE5__getB8ue170006Ev, symObjAddr: 0xC67C, symBinAddr: 0x10000FF48, symSize: 0x14 }
  - { offsetInCU: 0x1FDB1, offset: 0x1FDB1, size: 0x8, addend: 0x0, symName: __ZNKSt3__117__compressed_pairImNS_9allocatorIPNS_16__hash_node_baseIPNS_11__hash_nodeINS_17__hash_value_typeIP7AddressP4NodeEEPvEEEEEEE5firstB8ue170006Ev, symObjAddr: 0xC690, symBinAddr: 0x10000FF5C, symSize: 0x24 }
  - { offsetInCU: 0x1FDD6, offset: 0x1FDD6, size: 0x8, addend: 0x0, symName: __ZNKSt3__117__compressed_pairIPPNS_16__hash_node_baseIPNS_11__hash_nodeINS_17__hash_value_typeIP7AddressP4NodeEEPvEEEENS_25__bucket_list_deallocatorINS_9allocatorISD_EEEEE5firstB8ue170006Ev, symObjAddr: 0xC6B4, symBinAddr: 0x10000FF80, symSize: 0x24 }
  - { offsetInCU: 0x1FDFB, offset: 0x1FDFB, size: 0x8, addend: 0x0, symName: __ZNKSt3__122__compressed_pair_elemIPPNS_16__hash_node_baseIPNS_11__hash_nodeINS_17__hash_value_typeIP7AddressP4NodeEEPvEEEELi0ELb0EE5__getB8ue170006Ev, symObjAddr: 0xC6D8, symBinAddr: 0x10000FFA4, symSize: 0x14 }
  - { offsetInCU: 0x1FE20, offset: 0x1FE20, size: 0x8, addend: 0x0, symName: __ZNSt3__117__compressed_pairIfNS_21__unordered_map_equalIP7AddressNS_17__hash_value_typeIS3_P4NodeEENS_8equal_toIS3_EENS_4hashIS3_EELb1EEEE6secondB8ue170006Ev, symObjAddr: 0xC6EC, symBinAddr: 0x10000FFB8, symSize: 0x24 }
  - { offsetInCU: 0x1FE45, offset: 0x1FE45, size: 0x8, addend: 0x0, symName: __ZNSt3__122__compressed_pair_elemINS_21__unordered_map_equalIP7AddressNS_17__hash_value_typeIS3_P4NodeEENS_8equal_toIS3_EENS_4hashIS3_EELb1EEELi1ELb1EE5__getB8ue170006Ev, symObjAddr: 0xC710, symBinAddr: 0x10000FFDC, symSize: 0x14 }
  - { offsetInCU: 0x1FE6A, offset: 0x1FE6A, size: 0x8, addend: 0x0, symName: __ZNKSt3__117__hash_value_typeIP7AddressP4NodeE11__get_valueB8ue170006Ev, symObjAddr: 0xC724, symBinAddr: 0x10000FFF0, symSize: 0x14 }
  - { offsetInCU: 0x1FE8F, offset: 0x1FE8F, size: 0x8, addend: 0x0, symName: __ZNSt3__114pointer_traitsIPNS_16__hash_node_baseIPNS_11__hash_nodeINS_17__hash_value_typeIP7AddressP4NodeEEPvEEEEE10pointer_toB8ue170006ERSC_, symObjAddr: 0xC738, symBinAddr: 0x100010004, symSize: 0x14 }
  - { offsetInCU: 0x1FEB2, offset: 0x1FEB2, size: 0x8, addend: 0x0, symName: __ZNSt3__112__hash_tableINS_17__hash_value_typeIP7AddressP4NodeEENS_22__unordered_map_hasherIS3_S6_NS_4hashIS3_EENS_8equal_toIS3_EELb1EEENS_21__unordered_map_equalIS3_S6_SB_S9_Lb1EEENS_9allocatorIS6_EEE12__node_allocB8ue170006Ev, symObjAddr: 0xC74C, symBinAddr: 0x100010018, symSize: 0x28 }
  - { offsetInCU: 0x1FED7, offset: 0x1FED7, size: 0x8, addend: 0x0, symName: __ZNSt3__116allocator_traitsINS_9allocatorINS_11__hash_nodeINS_17__hash_value_typeIP7AddressP4NodeEEPvEEEEE8allocateB8ue170006ERSB_m, symObjAddr: 0xC774, symBinAddr: 0x100010040, symSize: 0x2C }
  - { offsetInCU: 0x1FF0A, offset: 0x1FF0A, size: 0x8, addend: 0x0, symName: __ZNSt3__122__hash_node_destructorINS_9allocatorINS_11__hash_nodeINS_17__hash_value_typeIP7AddressP4NodeEEPvEEEEEC1B8ue170006ERSB_b, symObjAddr: 0xC7A0, symBinAddr: 0x10001006C, symSize: 0x48 }
  - { offsetInCU: 0x1FF56, offset: 0x1FF56, size: 0x8, addend: 0x0, symName: __ZNSt3__110unique_ptrINS_11__hash_nodeINS_17__hash_value_typeIP7AddressP4NodeEEPvEENS_22__hash_node_destructorINS_9allocatorIS9_EEEEEC1B8ue170006ILb1EvEEPS9_NS_16__dependent_typeINS_27__unique_ptr_deleter_sfinaeISD_EEXT_EE20__good_rval_ref_typeE, symObjAddr: 0xC7E8, symBinAddr: 0x1000100B4, symSize: 0x3C }
  - { offsetInCU: 0x1FFA6, offset: 0x1FFA6, size: 0x8, addend: 0x0, symName: __ZNSt3__116allocator_traitsINS_9allocatorINS_11__hash_nodeINS_17__hash_value_typeIP7AddressP4NodeEEPvEEEEE9constructB8ue170006INS_4pairIKS5_S7_EEJRKNS_21piecewise_construct_tENS_5tupleIJRSF_EEENSK_IJEEEEvEEvRSB_PT_DpOT0_, symObjAddr: 0xC824, symBinAddr: 0x1000100F0, symSize: 0x44 }
  - { offsetInCU: 0x20025, offset: 0x20025, size: 0x8, addend: 0x0, symName: __ZNSt3__122__hash_key_value_typesINS_17__hash_value_typeIP7AddressP4NodeEEE9__get_ptrB8ue170006ERS6_, symObjAddr: 0xC868, symBinAddr: 0x100010134, symSize: 0x24 }
  - { offsetInCU: 0x20048, offset: 0x20048, size: 0x8, addend: 0x0, symName: __ZNSt3__110unique_ptrINS_11__hash_nodeINS_17__hash_value_typeIP7AddressP4NodeEEPvEENS_22__hash_node_destructorINS_9allocatorIS9_EEEEE11get_deleterB8ue170006Ev, symObjAddr: 0xC88C, symBinAddr: 0x100010158, symSize: 0x24 }
  - { offsetInCU: 0x2006D, offset: 0x2006D, size: 0x8, addend: 0x0, symName: __ZNSt3__117__compressed_pairINS_16__hash_node_baseIPNS_11__hash_nodeINS_17__hash_value_typeIP7AddressP4NodeEEPvEEEENS_9allocatorISA_EEE6secondB8ue170006Ev, symObjAddr: 0xC8B0, symBinAddr: 0x10001017C, symSize: 0x24 }
  - { offsetInCU: 0x20092, offset: 0x20092, size: 0x8, addend: 0x0, symName: __ZNSt3__122__compressed_pair_elemINS_9allocatorINS_11__hash_nodeINS_17__hash_value_typeIP7AddressP4NodeEEPvEEEELi1ELb1EE5__getB8ue170006Ev, symObjAddr: 0xC8D4, symBinAddr: 0x1000101A0, symSize: 0x14 }
  - { offsetInCU: 0x200B7, offset: 0x200B7, size: 0x8, addend: 0x0, symName: __ZNSt3__19allocatorINS_11__hash_nodeINS_17__hash_value_typeIP7AddressP4NodeEEPvEEE8allocateB8ue170006Em, symObjAddr: 0xC8E8, symBinAddr: 0x1000101B4, symSize: 0x58 }
  - { offsetInCU: 0x200F4, offset: 0x200F4, size: 0x8, addend: 0x0, symName: __ZNSt3__116allocator_traitsINS_9allocatorINS_11__hash_nodeINS_17__hash_value_typeIP7AddressP4NodeEEPvEEEEE8max_sizeB8ue170006ISB_vEEmRKSB_, symObjAddr: 0xC940, symBinAddr: 0x10001020C, symSize: 0x24 }
  - { offsetInCU: 0x20122, offset: 0x20122, size: 0x8, addend: 0x0, symName: __ZNKSt3__19allocatorINS_11__hash_nodeINS_17__hash_value_typeIP7AddressP4NodeEEPvEEE8max_sizeB8ue170006Ev, symObjAddr: 0xC964, symBinAddr: 0x100010230, symSize: 0x14 }
  - { offsetInCU: 0x20147, offset: 0x20147, size: 0x8, addend: 0x0, symName: __ZNSt3__122__hash_node_destructorINS_9allocatorINS_11__hash_nodeINS_17__hash_value_typeIP7AddressP4NodeEEPvEEEEEC2B8ue170006ERSB_b, symObjAddr: 0xC978, symBinAddr: 0x100010244, symSize: 0x38 }
  - { offsetInCU: 0x2018E, offset: 0x2018E, size: 0x8, addend: 0x0, symName: __ZNSt3__110unique_ptrINS_11__hash_nodeINS_17__hash_value_typeIP7AddressP4NodeEEPvEENS_22__hash_node_destructorINS_9allocatorIS9_EEEEEC2B8ue170006ILb1EvEEPS9_NS_16__dependent_typeINS_27__unique_ptr_deleter_sfinaeISD_EEXT_EE20__good_rval_ref_typeE, symObjAddr: 0xC9B0, symBinAddr: 0x10001027C, symSize: 0x48 }
  - { offsetInCU: 0x201DE, offset: 0x201DE, size: 0x8, addend: 0x0, symName: __ZNSt3__117__compressed_pairIPNS_11__hash_nodeINS_17__hash_value_typeIP7AddressP4NodeEEPvEENS_22__hash_node_destructorINS_9allocatorIS9_EEEEEC1B8ue170006IRSA_SE_EEOT_OT0_, symObjAddr: 0xC9F8, symBinAddr: 0x1000102C4, symSize: 0x3C }
  - { offsetInCU: 0x20235, offset: 0x20235, size: 0x8, addend: 0x0, symName: __ZNSt3__117__compressed_pairIPNS_11__hash_nodeINS_17__hash_value_typeIP7AddressP4NodeEEPvEENS_22__hash_node_destructorINS_9allocatorIS9_EEEEEC2B8ue170006IRSA_SE_EEOT_OT0_, symObjAddr: 0xCA34, symBinAddr: 0x100010300, symSize: 0x48 }
  - { offsetInCU: 0x2028C, offset: 0x2028C, size: 0x8, addend: 0x0, symName: __ZNSt3__122__compressed_pair_elemIPNS_11__hash_nodeINS_17__hash_value_typeIP7AddressP4NodeEEPvEELi0ELb0EEC2B8ue170006IRSA_vEEOT_, symObjAddr: 0xCA7C, symBinAddr: 0x100010348, symSize: 0x24 }
  - { offsetInCU: 0x202CD, offset: 0x202CD, size: 0x8, addend: 0x0, symName: __ZNSt3__122__compressed_pair_elemINS_22__hash_node_destructorINS_9allocatorINS_11__hash_nodeINS_17__hash_value_typeIP7AddressP4NodeEEPvEEEEEELi1ELb0EEC2B8ue170006ISD_vEEOT_, symObjAddr: 0xCAA0, symBinAddr: 0x10001036C, symSize: 0x24 }
  - { offsetInCU: 0x2030E, offset: 0x2030E, size: 0x8, addend: 0x0, symName: __ZNSt3__19allocatorINS_11__hash_nodeINS_17__hash_value_typeIP7AddressP4NodeEEPvEEE9constructB8ue170006INS_4pairIKS4_S6_EEJRKNS_21piecewise_construct_tENS_5tupleIJRSD_EEENSI_IJEEEEEEvPT_DpOT0_, symObjAddr: 0xCAC4, symBinAddr: 0x100010390, symSize: 0x44 }
  - { offsetInCU: 0x20389, offset: 0x20389, size: 0x8, addend: 0x0, symName: __ZNSt3__14pairIKP7AddressP4NodeEC1B8ue170006IJRS3_EJEEENS_21piecewise_construct_tENS_5tupleIJDpT_EEENSA_IJDpT0_EEE, symObjAddr: 0xCB08, symBinAddr: 0x1000103D4, symSize: 0x44 }
  - { offsetInCU: 0x203EF, offset: 0x203EF, size: 0x8, addend: 0x0, symName: __ZNSt3__14pairIKP7AddressP4NodeEC1B8ue170006IJRS3_EJEJLm0EEJEEENS_21piecewise_construct_tERNS_5tupleIJDpT_EEERNSA_IJDpT0_EEENS_15__tuple_indicesIJXspT1_EEEENSJ_IJXspT2_EEEE, symObjAddr: 0xCB4C, symBinAddr: 0x100010418, symSize: 0x3C }
  - { offsetInCU: 0x2047E, offset: 0x2047E, size: 0x8, addend: 0x0, symName: __ZNSt3__14pairIKP7AddressP4NodeEC2B8ue170006IJRS3_EJEJLm0EEJEEENS_21piecewise_construct_tERNS_5tupleIJDpT_EEERNSA_IJDpT0_EEENS_15__tuple_indicesIJXspT1_EEEENSJ_IJXspT2_EEEE, symObjAddr: 0xCB88, symBinAddr: 0x100010454, symSize: 0x48 }
  - { offsetInCU: 0x2050D, offset: 0x2050D, size: 0x8, addend: 0x0, symName: __ZNSt3__117__compressed_pairIPNS_11__hash_nodeINS_17__hash_value_typeIP7AddressP4NodeEEPvEENS_22__hash_node_destructorINS_9allocatorIS9_EEEEE6secondB8ue170006Ev, symObjAddr: 0xCBD0, symBinAddr: 0x10001049C, symSize: 0x28 }
  - { offsetInCU: 0x20532, offset: 0x20532, size: 0x8, addend: 0x0, symName: __ZNSt3__122__compressed_pair_elemINS_22__hash_node_destructorINS_9allocatorINS_11__hash_nodeINS_17__hash_value_typeIP7AddressP4NodeEEPvEEEEEELi1ELb0EE5__getB8ue170006Ev, symObjAddr: 0xCBF8, symBinAddr: 0x1000104C4, symSize: 0x14 }
  - { offsetInCU: 0x20557, offset: 0x20557, size: 0x8, addend: 0x0, symName: __ZNSt3__117__compressed_pairImNS_22__unordered_map_hasherIP7AddressNS_17__hash_value_typeIS3_P4NodeEENS_4hashIS3_EENS_8equal_toIS3_EELb1EEEE5firstB8ue170006Ev, symObjAddr: 0xCC0C, symBinAddr: 0x1000104D8, symSize: 0x24 }
  - { offsetInCU: 0x2057C, offset: 0x2057C, size: 0x8, addend: 0x0, symName: __ZNSt3__117__compressed_pairIfNS_21__unordered_map_equalIP7AddressNS_17__hash_value_typeIS3_P4NodeEENS_8equal_toIS3_EENS_4hashIS3_EELb1EEEE5firstB8ue170006Ev, symObjAddr: 0xCC30, symBinAddr: 0x1000104FC, symSize: 0x24 }
  - { offsetInCU: 0x205A0, offset: 0x205A0, size: 0x8, addend: 0x0, symName: __ZNSt3__112__hash_tableINS_17__hash_value_typeIP7AddressP4NodeEENS_22__unordered_map_hasherIS3_S6_NS_4hashIS3_EENS_8equal_toIS3_EELb1EEENS_21__unordered_map_equalIS3_S6_SB_S9_Lb1EEENS_9allocatorIS6_EEE8__rehashILb1EEEvm, symObjAddr: 0xCC54, symBinAddr: 0x100010520, symSize: 0x1A8 }
  - { offsetInCU: 0x205EE, offset: 0x205EE, size: 0x8, addend: 0x0, symName: __ZNSt3__112__hash_tableINS_17__hash_value_typeIP7AddressP4NodeEENS_22__unordered_map_hasherIS3_S6_NS_4hashIS3_EENS_8equal_toIS3_EELb1EEENS_21__unordered_map_equalIS3_S6_SB_S9_Lb1EEENS_9allocatorIS6_EEE11__do_rehashILb1EEEvm, symObjAddr: 0xCDFC, symBinAddr: 0x1000106C8, symSize: 0x288 }
  - { offsetInCU: 0x206D4, offset: 0x206D4, size: 0x8, addend: 0x0, symName: __ZNSt3__110unique_ptrIA_PNS_16__hash_node_baseIPNS_11__hash_nodeINS_17__hash_value_typeIP7AddressP4NodeEEPvEEEENS_25__bucket_list_deallocatorINS_9allocatorISD_EEEEE11get_deleterB8ue170006Ev, symObjAddr: 0xD084, symBinAddr: 0x100010950, symSize: 0x24 }
  - { offsetInCU: 0x206F9, offset: 0x206F9, size: 0x8, addend: 0x0, symName: __ZNSt3__125__bucket_list_deallocatorINS_9allocatorIPNS_16__hash_node_baseIPNS_11__hash_nodeINS_17__hash_value_typeIP7AddressP4NodeEEPvEEEEEEE7__allocB8ue170006Ev, symObjAddr: 0xD0A8, symBinAddr: 0x100010974, symSize: 0x24 }
  - { offsetInCU: 0x2071E, offset: 0x2071E, size: 0x8, addend: 0x0, symName: __ZNSt3__110unique_ptrIA_PNS_16__hash_node_baseIPNS_11__hash_nodeINS_17__hash_value_typeIP7AddressP4NodeEEPvEEEENS_25__bucket_list_deallocatorINS_9allocatorISD_EEEEE5resetB8ue170006IPSD_EENS_9enable_ifIXsr28_CheckArrayPointerConversionIT_EE5valueEvE4typeESN_, symObjAddr: 0xD0CC, symBinAddr: 0x100010998, symSize: 0x78 }
  - { offsetInCU: 0x2076A, offset: 0x2076A, size: 0x8, addend: 0x0, symName: __ZNSt3__116allocator_traitsINS_9allocatorIPNS_16__hash_node_baseIPNS_11__hash_nodeINS_17__hash_value_typeIP7AddressP4NodeEEPvEEEEEEE8allocateB8ue170006ERSF_m, symObjAddr: 0xD144, symBinAddr: 0x100010A10, symSize: 0x2C }
  - { offsetInCU: 0x2079D, offset: 0x2079D, size: 0x8, addend: 0x0, symName: __ZNSt3__125__bucket_list_deallocatorINS_9allocatorIPNS_16__hash_node_baseIPNS_11__hash_nodeINS_17__hash_value_typeIP7AddressP4NodeEEPvEEEEEEE4sizeB8ue170006Ev, symObjAddr: 0xD170, symBinAddr: 0x100010A3C, symSize: 0x24 }
  - { offsetInCU: 0x207C2, offset: 0x207C2, size: 0x8, addend: 0x0, symName: __ZNSt3__117__compressed_pairIPPNS_16__hash_node_baseIPNS_11__hash_nodeINS_17__hash_value_typeIP7AddressP4NodeEEPvEEEENS_25__bucket_list_deallocatorINS_9allocatorISD_EEEEE6secondB8ue170006Ev, symObjAddr: 0xD194, symBinAddr: 0x100010A60, symSize: 0x28 }
  - { offsetInCU: 0x207E7, offset: 0x207E7, size: 0x8, addend: 0x0, symName: __ZNSt3__122__compressed_pair_elemINS_25__bucket_list_deallocatorINS_9allocatorIPNS_16__hash_node_baseIPNS_11__hash_nodeINS_17__hash_value_typeIP7AddressP4NodeEEPvEEEEEEEELi1ELb0EE5__getB8ue170006Ev, symObjAddr: 0xD1BC, symBinAddr: 0x100010A88, symSize: 0x14 }
  - { offsetInCU: 0x2080C, offset: 0x2080C, size: 0x8, addend: 0x0, symName: __ZNSt3__117__compressed_pairImNS_9allocatorIPNS_16__hash_node_baseIPNS_11__hash_nodeINS_17__hash_value_typeIP7AddressP4NodeEEPvEEEEEEE6secondB8ue170006Ev, symObjAddr: 0xD1D0, symBinAddr: 0x100010A9C, symSize: 0x24 }
  - { offsetInCU: 0x20831, offset: 0x20831, size: 0x8, addend: 0x0, symName: __ZNSt3__122__compressed_pair_elemINS_9allocatorIPNS_16__hash_node_baseIPNS_11__hash_nodeINS_17__hash_value_typeIP7AddressP4NodeEEPvEEEEEELi1ELb1EE5__getB8ue170006Ev, symObjAddr: 0xD1F4, symBinAddr: 0x100010AC0, symSize: 0x14 }
  - { offsetInCU: 0x20856, offset: 0x20856, size: 0x8, addend: 0x0, symName: __ZNSt3__117__compressed_pairIPPNS_16__hash_node_baseIPNS_11__hash_nodeINS_17__hash_value_typeIP7AddressP4NodeEEPvEEEENS_25__bucket_list_deallocatorINS_9allocatorISD_EEEEE5firstB8ue170006Ev, symObjAddr: 0xD208, symBinAddr: 0x100010AD4, symSize: 0x24 }
  - { offsetInCU: 0x2087B, offset: 0x2087B, size: 0x8, addend: 0x0, symName: __ZNSt3__125__bucket_list_deallocatorINS_9allocatorIPNS_16__hash_node_baseIPNS_11__hash_nodeINS_17__hash_value_typeIP7AddressP4NodeEEPvEEEEEEEclB8ue170006EPSE_, symObjAddr: 0xD22C, symBinAddr: 0x100010AF8, symSize: 0x58 }
  - { offsetInCU: 0x208AF, offset: 0x208AF, size: 0x8, addend: 0x0, symName: __ZNSt3__122__compressed_pair_elemIPPNS_16__hash_node_baseIPNS_11__hash_nodeINS_17__hash_value_typeIP7AddressP4NodeEEPvEEEELi0ELb0EE5__getB8ue170006Ev, symObjAddr: 0xD284, symBinAddr: 0x100010B50, symSize: 0x14 }
  - { offsetInCU: 0x208D4, offset: 0x208D4, size: 0x8, addend: 0x0, symName: __ZNSt3__116allocator_traitsINS_9allocatorIPNS_16__hash_node_baseIPNS_11__hash_nodeINS_17__hash_value_typeIP7AddressP4NodeEEPvEEEEEEE10deallocateB8ue170006ERSF_PSE_m, symObjAddr: 0xD298, symBinAddr: 0x100010B64, symSize: 0x34 }
  - { offsetInCU: 0x20916, offset: 0x20916, size: 0x8, addend: 0x0, symName: __ZNSt3__19allocatorIPNS_16__hash_node_baseIPNS_11__hash_nodeINS_17__hash_value_typeIP7AddressP4NodeEEPvEEEEE10deallocateB8ue170006EPSD_m, symObjAddr: 0xD2CC, symBinAddr: 0x100010B98, symSize: 0x40 }
  - { offsetInCU: 0x20957, offset: 0x20957, size: 0x8, addend: 0x0, symName: __ZNSt3__19allocatorIPNS_16__hash_node_baseIPNS_11__hash_nodeINS_17__hash_value_typeIP7AddressP4NodeEEPvEEEEE8allocateB8ue170006Em, symObjAddr: 0xD30C, symBinAddr: 0x100010BD8, symSize: 0x58 }
  - { offsetInCU: 0x20994, offset: 0x20994, size: 0x8, addend: 0x0, symName: __ZNSt3__116allocator_traitsINS_9allocatorIPNS_16__hash_node_baseIPNS_11__hash_nodeINS_17__hash_value_typeIP7AddressP4NodeEEPvEEEEEEE8max_sizeB8ue170006ISF_vEEmRKSF_, symObjAddr: 0xD364, symBinAddr: 0x100010C30, symSize: 0x24 }
  - { offsetInCU: 0x209C2, offset: 0x209C2, size: 0x8, addend: 0x0, symName: __ZNKSt3__19allocatorIPNS_16__hash_node_baseIPNS_11__hash_nodeINS_17__hash_value_typeIP7AddressP4NodeEEPvEEEEE8max_sizeB8ue170006Ev, symObjAddr: 0xD388, symBinAddr: 0x100010C54, symSize: 0x14 }
  - { offsetInCU: 0x209E7, offset: 0x209E7, size: 0x8, addend: 0x0, symName: __ZNSt3__117__compressed_pairImNS_9allocatorIPNS_16__hash_node_baseIPNS_11__hash_nodeINS_17__hash_value_typeIP7AddressP4NodeEEPvEEEEEEE5firstB8ue170006Ev, symObjAddr: 0xD39C, symBinAddr: 0x100010C68, symSize: 0x24 }
  - { offsetInCU: 0x20A0C, offset: 0x20A0C, size: 0x8, addend: 0x0, symName: __ZNSt3__122__compressed_pair_elemINS_16__hash_node_baseIPNS_11__hash_nodeINS_17__hash_value_typeIP7AddressP4NodeEEPvEEEELi0ELb0EE5__getB8ue170006Ev, symObjAddr: 0xD3C0, symBinAddr: 0x100010C8C, symSize: 0x14 }
  - { offsetInCU: 0x20A31, offset: 0x20A31, size: 0x8, addend: 0x0, symName: __ZNKSt3__117__compressed_pairIPNS_11__hash_nodeINS_17__hash_value_typeIP7AddressP4NodeEEPvEENS_22__hash_node_destructorINS_9allocatorIS9_EEEEE5firstB8ue170006Ev, symObjAddr: 0xD3D4, symBinAddr: 0x100010CA0, symSize: 0x24 }
  - { offsetInCU: 0x20A56, offset: 0x20A56, size: 0x8, addend: 0x0, symName: __ZNKSt3__122__compressed_pair_elemIPNS_11__hash_nodeINS_17__hash_value_typeIP7AddressP4NodeEEPvEELi0ELb0EE5__getB8ue170006Ev, symObjAddr: 0xD3F8, symBinAddr: 0x100010CC4, symSize: 0x14 }
  - { offsetInCU: 0x20A7B, offset: 0x20A7B, size: 0x8, addend: 0x0, symName: __ZNSt3__117__compressed_pairIPNS_11__hash_nodeINS_17__hash_value_typeIP7AddressP4NodeEEPvEENS_22__hash_node_destructorINS_9allocatorIS9_EEEEE5firstB8ue170006Ev, symObjAddr: 0xD40C, symBinAddr: 0x100010CD8, symSize: 0x24 }
  - { offsetInCU: 0x20AA0, offset: 0x20AA0, size: 0x8, addend: 0x0, symName: __ZNSt3__122__compressed_pair_elemIPNS_11__hash_nodeINS_17__hash_value_typeIP7AddressP4NodeEEPvEELi0ELb0EE5__getB8ue170006Ev, symObjAddr: 0xD430, symBinAddr: 0x100010CFC, symSize: 0x14 }
  - { offsetInCU: 0x20AC5, offset: 0x20AC5, size: 0x8, addend: 0x0, symName: __ZNSt3__110unique_ptrINS_11__hash_nodeINS_17__hash_value_typeIP7AddressP4NodeEEPvEENS_22__hash_node_destructorINS_9allocatorIS9_EEEEED2B8ue170006Ev, symObjAddr: 0xD444, symBinAddr: 0x100010D10, symSize: 0x30 }
  - { offsetInCU: 0x20AEE, offset: 0x20AEE, size: 0x8, addend: 0x0, symName: __ZNSt3__110unique_ptrINS_11__hash_nodeINS_17__hash_value_typeIP7AddressP4NodeEEPvEENS_22__hash_node_destructorINS_9allocatorIS9_EEEEE5resetB8ue170006EPS9_, symObjAddr: 0xD474, symBinAddr: 0x100010D40, symSize: 0x78 }
  - { offsetInCU: 0x20B31, offset: 0x20B31, size: 0x8, addend: 0x0, symName: __ZNSt3__122__hash_node_destructorINS_9allocatorINS_11__hash_nodeINS_17__hash_value_typeIP7AddressP4NodeEEPvEEEEEclB8ue170006EPSA_, symObjAddr: 0xD4EC, symBinAddr: 0x100010DB8, symSize: 0x98 }
  - { offsetInCU: 0x20B65, offset: 0x20B65, size: 0x8, addend: 0x0, symName: __ZNSt3__116allocator_traitsINS_9allocatorINS_11__hash_nodeINS_17__hash_value_typeIP7AddressP4NodeEEPvEEEEE7destroyB8ue170006INS_4pairIKS5_S7_EEvvEEvRSB_PT_, symObjAddr: 0xD584, symBinAddr: 0x100010E50, symSize: 0x14 }
  - { offsetInCU: 0x20BA0, offset: 0x20BA0, size: 0x8, addend: 0x0, symName: __ZNSt3__116allocator_traitsINS_9allocatorINS_11__hash_nodeINS_17__hash_value_typeIP7AddressP4NodeEEPvEEEEE10deallocateB8ue170006ERSB_PSA_m, symObjAddr: 0xD598, symBinAddr: 0x100010E64, symSize: 0x34 }
  - { offsetInCU: 0x20BE2, offset: 0x20BE2, size: 0x8, addend: 0x0, symName: __ZNSt3__19allocatorINS_11__hash_nodeINS_17__hash_value_typeIP7AddressP4NodeEEPvEEE10deallocateB8ue170006EPS9_m, symObjAddr: 0xD5CC, symBinAddr: 0x100010E98, symSize: 0x40 }
  - { offsetInCU: 0x20C23, offset: 0x20C23, size: 0x8, addend: 0x0, symName: __ZNSt3__115__hash_iteratorIPNS_11__hash_nodeINS_17__hash_value_typeIP7AddressP4NodeEEPvEEEC2B8ue170006EPNS_16__hash_node_baseISA_EE, symObjAddr: 0xD60C, symBinAddr: 0x100010ED8, symSize: 0x20 }
  - { offsetInCU: 0x20C5B, offset: 0x20C5B, size: 0x8, addend: 0x0, symName: __ZNSt3__14pairINS_15__hash_iteratorIPNS_11__hash_nodeINS_17__hash_value_typeIP7AddressP4NodeEEPvEEEEbEC2B8ue170006ISC_RbLS9_0EEEOT_OT0_, symObjAddr: 0xD62C, symBinAddr: 0x100010EF8, symSize: 0x38 }
  - { offsetInCU: 0x20CB8, offset: 0x20CB8, size: 0x8, addend: 0x0, symName: __ZNSt3__114pointer_traitsIPNS_17__hash_value_typeIP7AddressP4NodeEEE10pointer_toB8ue170006ERS6_, symObjAddr: 0xD664, symBinAddr: 0x100010F30, symSize: 0x14 }
  - { offsetInCU: 0x20CDB, offset: 0x20CDB, size: 0x8, addend: 0x0, symName: __ZNK4NodeneERKS_, symObjAddr: 0xD678, symBinAddr: 0x100010F44, symSize: 0x38 }
  - { offsetInCU: 0x20D0D, offset: 0x20D0D, size: 0x8, addend: 0x0, symName: __ZNKSt3__16vectorINS_4pairI7AddressNS0_INS1_IS2_dEENS_9allocatorIS3_EEEEEENS4_IS7_EEE5beginB8ue170006Ev, symObjAddr: 0xD6E4, symBinAddr: 0x100010FB0, symSize: 0x30 }
  - { offsetInCU: 0x20D33, offset: 0x20D33, size: 0x8, addend: 0x0, symName: __ZNKSt3__16vectorINS_4pairI7AddressNS0_INS1_IS2_dEENS_9allocatorIS3_EEEEEENS4_IS7_EEE3endB8ue170006Ev, symObjAddr: 0xD714, symBinAddr: 0x100010FE0, symSize: 0x30 }
  - { offsetInCU: 0x20D5A, offset: 0x20D5A, size: 0x8, addend: 0x0, symName: __ZNKSt3__111__wrap_iterIPKNS_4pairI7AddressNS_6vectorINS1_IS2_dEENS_9allocatorIS4_EEEEEEEdeB8ue170006Ev, symObjAddr: 0xD778, symBinAddr: 0x100011044, symSize: 0x18 }
  - { offsetInCU: 0x20D7E, offset: 0x20D7E, size: 0x8, addend: 0x0, symName: __ZNKSt3__16vectorINS_4pairI7AddressdEENS_9allocatorIS3_EEE5beginB8ue170006Ev, symObjAddr: 0xD790, symBinAddr: 0x10001105C, symSize: 0x30 }
  - { offsetInCU: 0x20DA4, offset: 0x20DA4, size: 0x8, addend: 0x0, symName: __ZNKSt3__16vectorINS_4pairI7AddressdEENS_9allocatorIS3_EEE3endB8ue170006Ev, symObjAddr: 0xD7C0, symBinAddr: 0x10001108C, symSize: 0x30 }
  - { offsetInCU: 0x20DCB, offset: 0x20DCB, size: 0x8, addend: 0x0, symName: __ZNKSt3__111__wrap_iterIPKNS_4pairI7AddressdEEEdeB8ue170006Ev, symObjAddr: 0xD824, symBinAddr: 0x1000110F0, symSize: 0x18 }
  - { offsetInCU: 0x20DF0, offset: 0x20DF0, size: 0x8, addend: 0x0, symName: __ZNSt3__111__wrap_iterIPKNS_4pairI7AddressdEEEppB8ue170006Ev, symObjAddr: 0xD83C, symBinAddr: 0x100011108, symSize: 0x20 }
  - { offsetInCU: 0x20E15, offset: 0x20E15, size: 0x8, addend: 0x0, symName: __ZNSt3__111__wrap_iterIPKNS_4pairI7AddressNS_6vectorINS1_IS2_dEENS_9allocatorIS4_EEEEEEEppB8ue170006Ev, symObjAddr: 0xD85C, symBinAddr: 0x100011128, symSize: 0x20 }
  - { offsetInCU: 0x20E3A, offset: 0x20E3A, size: 0x8, addend: 0x0, symName: __ZNKSt3__16vectorINS_4pairI7AddressNS0_INS1_IS2_dEENS_9allocatorIS3_EEEEEENS4_IS7_EEE11__make_iterB8ue170006EPKS7_, symObjAddr: 0xD87C, symBinAddr: 0x100011148, symSize: 0x30 }
  - { offsetInCU: 0x20E6E, offset: 0x20E6E, size: 0x8, addend: 0x0, symName: __ZNSt3__111__wrap_iterIPKNS_4pairI7AddressNS_6vectorINS1_IS2_dEENS_9allocatorIS4_EEEEEEEC1B8ue170006ESA_, symObjAddr: 0xD8AC, symBinAddr: 0x100011178, symSize: 0x34 }
  - { offsetInCU: 0x20EA5, offset: 0x20EA5, size: 0x8, addend: 0x0, symName: __ZNSt3__111__wrap_iterIPKNS_4pairI7AddressNS_6vectorINS1_IS2_dEENS_9allocatorIS4_EEEEEEEC2B8ue170006ESA_, symObjAddr: 0xD8E0, symBinAddr: 0x1000111AC, symSize: 0x20 }
  - { offsetInCU: 0x20EDC, offset: 0x20EDC, size: 0x8, addend: 0x0, symName: __ZNKSt3__111__wrap_iterIPKNS_4pairI7AddressNS_6vectorINS1_IS2_dEENS_9allocatorIS4_EEEEEEE4baseB8ue170006Ev, symObjAddr: 0xD948, symBinAddr: 0x100011214, symSize: 0x18 }
  - { offsetInCU: 0x20F01, offset: 0x20F01, size: 0x8, addend: 0x0, symName: __ZNKSt3__16vectorINS_4pairI7AddressdEENS_9allocatorIS3_EEE11__make_iterB8ue170006EPKS3_, symObjAddr: 0xD960, symBinAddr: 0x10001122C, symSize: 0x30 }
  - { offsetInCU: 0x20F35, offset: 0x20F35, size: 0x8, addend: 0x0, symName: __ZNSt3__111__wrap_iterIPKNS_4pairI7AddressdEEEC1B8ue170006ES5_, symObjAddr: 0xD990, symBinAddr: 0x10001125C, symSize: 0x34 }
  - { offsetInCU: 0x20F6C, offset: 0x20F6C, size: 0x8, addend: 0x0, symName: __ZNSt3__111__wrap_iterIPKNS_4pairI7AddressdEEEC2B8ue170006ES5_, symObjAddr: 0xD9C4, symBinAddr: 0x100011290, symSize: 0x20 }
  - { offsetInCU: 0x20FA3, offset: 0x20FA3, size: 0x8, addend: 0x0, symName: __ZNKSt3__111__wrap_iterIPKNS_4pairI7AddressdEEE4baseB8ue170006Ev, symObjAddr: 0xDA2C, symBinAddr: 0x1000112F8, symSize: 0x18 }
  - { offsetInCU: 0x20FC8, offset: 0x20FC8, size: 0x8, addend: 0x0, symName: __ZNK4NodeeqERKS_, symObjAddr: 0xDA44, symBinAddr: 0x100011310, symSize: 0x38 }
  - { offsetInCU: 0x20FFA, offset: 0x20FFA, size: 0x8, addend: 0x0, symName: __ZNSt3__112__hash_tableINS_17__hash_value_typeIP7AddressfEENS_22__unordered_map_hasherIS3_S4_NS_4hashIS3_EENS_8equal_toIS3_EELb1EEENS_21__unordered_map_equalIS3_S4_S9_S7_Lb1EEENS_9allocatorIS4_EEE5beginEv, symObjAddr: 0xDA7C, symBinAddr: 0x100011348, symSize: 0x38 }
  - { offsetInCU: 0x21021, offset: 0x21021, size: 0x8, addend: 0x0, symName: __ZNSt3__119__hash_map_iteratorINS_15__hash_iteratorIPNS_11__hash_nodeINS_17__hash_value_typeIP7AddressfEEPvEEEEEC1B8ue170006ESA_, symObjAddr: 0xDAB4, symBinAddr: 0x100011380, symSize: 0x34 }
  - { offsetInCU: 0x21059, offset: 0x21059, size: 0x8, addend: 0x0, symName: __ZNSt3__119__hash_map_iteratorINS_15__hash_iteratorIPNS_11__hash_nodeINS_17__hash_value_typeIP7AddressfEEPvEEEEEC2B8ue170006ESA_, symObjAddr: 0xDAE8, symBinAddr: 0x1000113B4, symSize: 0x20 }
  - { offsetInCU: 0x21090, offset: 0x21090, size: 0x8, addend: 0x0, symName: __ZNSt3__112__hash_tableINS_17__hash_value_typeIP7AddressfEENS_22__unordered_map_hasherIS3_S4_NS_4hashIS3_EENS_8equal_toIS3_EELb1EEENS_21__unordered_map_equalIS3_S4_S9_S7_Lb1EEENS_9allocatorIS4_EEE3endEv, symObjAddr: 0xDB08, symBinAddr: 0x1000113D4, symSize: 0x2C }
  - { offsetInCU: 0x210B7, offset: 0x210B7, size: 0x8, addend: 0x0, symName: __ZNSt3__110__get_pairILm0EE3getB8ue170006IKP7AddressfEERKT_RKNS_4pairIS6_T0_EE, symObjAddr: 0xDB98, symBinAddr: 0x100011464, symSize: 0x14 }
  - { offsetInCU: 0x210ED, offset: 0x210ED, size: 0x8, addend: 0x0, symName: __ZNSt3__110__get_pairILm1EE3getB8ue170006IKP7AddressfEERKT0_RKNS_4pairIT_S6_EE, symObjAddr: 0xDBAC, symBinAddr: 0x100011478, symSize: 0x18 }
  - { offsetInCU: 0x21123, offset: 0x21123, size: 0x8, addend: 0x0, symName: __ZNSt3__115__hash_iteratorIPNS_11__hash_nodeINS_17__hash_value_typeIP7AddressfEEPvEEEppB8ue170006Ev, symObjAddr: 0xDBC4, symBinAddr: 0x100011490, symSize: 0x20 }
  - { offsetInCU: 0x21148, offset: 0x21148, size: 0x8, addend: 0x0, symName: __ZNK5Graph16getNumberOfNodesEv, symObjAddr: 0xDBE4, symBinAddr: 0x1000114B0, symSize: 0x24 }
  - { offsetInCU: 0x2116D, offset: 0x2116D, size: 0x8, addend: 0x0, symName: __ZN5StackI4NodeEC1Ei, symObjAddr: 0xDC08, symBinAddr: 0x1000114D4, symSize: 0x34 }
  - { offsetInCU: 0x211A4, offset: 0x211A4, size: 0x8, addend: 0x0, symName: __ZN5StackI4NodeE4pushEPS0_, symObjAddr: 0xDC3C, symBinAddr: 0x100011508, symSize: 0x58 }
  - { offsetInCU: 0x211D7, offset: 0x211D7, size: 0x8, addend: 0x0, symName: __ZN5StackI4NodeEC2Ei, symObjAddr: 0xDC94, symBinAddr: 0x100011560, symSize: 0x6C }
  - { offsetInCU: 0x2120E, offset: 0x2120E, size: 0x8, addend: 0x0, symName: __ZNSt3__113unordered_mapIP7AddressP4NodeNS_4hashIS2_EENS_8equal_toIS2_EENS_9allocatorINS_4pairIKS2_S4_EEEEED2B8ue170006Ev, symObjAddr: 0xDD00, symBinAddr: 0x1000115CC, symSize: 0x2C }
  - { offsetInCU: 0x21237, offset: 0x21237, size: 0x8, addend: 0x0, symName: __ZNSt3__112__hash_tableINS_17__hash_value_typeIP7AddressP4NodeEENS_22__unordered_map_hasherIS3_S6_NS_4hashIS3_EENS_8equal_toIS3_EELb1EEENS_21__unordered_map_equalIS3_S6_SB_S9_Lb1EEENS_9allocatorIS6_EEED1Ev, symObjAddr: 0xDD2C, symBinAddr: 0x1000115F8, symSize: 0x2C }
  - { offsetInCU: 0x21262, offset: 0x21262, size: 0x8, addend: 0x0, symName: __ZNSt3__112__hash_tableINS_17__hash_value_typeIP7AddressP4NodeEENS_22__unordered_map_hasherIS3_S6_NS_4hashIS3_EENS_8equal_toIS3_EELb1EEENS_21__unordered_map_equalIS3_S6_SB_S9_Lb1EEENS_9allocatorIS6_EEED2Ev, symObjAddr: 0xDD58, symBinAddr: 0x100011624, symSize: 0x48 }
  - { offsetInCU: 0x2128C, offset: 0x2128C, size: 0x8, addend: 0x0, symName: __ZNSt3__112__hash_tableINS_17__hash_value_typeIP7AddressP4NodeEENS_22__unordered_map_hasherIS3_S6_NS_4hashIS3_EENS_8equal_toIS3_EELb1EEENS_21__unordered_map_equalIS3_S6_SB_S9_Lb1EEENS_9allocatorIS6_EEE17__deallocate_nodeEPNS_16__hash_node_baseIPNS_11__hash_nodeIS6_PvEEEE, symObjAddr: 0xDDA0, symBinAddr: 0x10001166C, symSize: 0xA4 }
  - { offsetInCU: 0x212F5, offset: 0x212F5, size: 0x8, addend: 0x0, symName: __ZNSt3__110unique_ptrIA_PNS_16__hash_node_baseIPNS_11__hash_nodeINS_17__hash_value_typeIP7AddressP4NodeEEPvEEEENS_25__bucket_list_deallocatorINS_9allocatorISD_EEEEED1B8ue170006Ev, symObjAddr: 0xDE44, symBinAddr: 0x100011710, symSize: 0x2C }
  - { offsetInCU: 0x2131E, offset: 0x2131E, size: 0x8, addend: 0x0, symName: __ZNSt3__110unique_ptrIA_PNS_16__hash_node_baseIPNS_11__hash_nodeINS_17__hash_value_typeIP7AddressP4NodeEEPvEEEENS_25__bucket_list_deallocatorINS_9allocatorISD_EEEEED2B8ue170006Ev, symObjAddr: 0xDE70, symBinAddr: 0x10001173C, symSize: 0x30 }
  - { offsetInCU: 0x21347, offset: 0x21347, size: 0x8, addend: 0x0, symName: __ZNSt3__110unique_ptrIA_PNS_16__hash_node_baseIPNS_11__hash_nodeINS_17__hash_value_typeIP7AddressP4NodeEEPvEEEENS_25__bucket_list_deallocatorINS_9allocatorISD_EEEEE5resetB8ue170006EDn, symObjAddr: 0xDEA0, symBinAddr: 0x10001176C, symSize: 0x6C }
  - { offsetInCU: 0x21387, offset: 0x21387, size: 0x8, addend: 0x0, symName: __ZNSt3__113unordered_mapIP7AddressfNS_4hashIS2_EENS_8equal_toIS2_EENS_9allocatorINS_4pairIKS2_fEEEEED2B8ue170006Ev, symObjAddr: 0xDF0C, symBinAddr: 0x1000117D8, symSize: 0x2C }
  - { offsetInCU: 0x213B0, offset: 0x213B0, size: 0x8, addend: 0x0, symName: __ZNSt3__112__hash_tableINS_17__hash_value_typeIP7AddressfEENS_22__unordered_map_hasherIS3_S4_NS_4hashIS3_EENS_8equal_toIS3_EELb1EEENS_21__unordered_map_equalIS3_S4_S9_S7_Lb1EEENS_9allocatorIS4_EEED1Ev, symObjAddr: 0xDF38, symBinAddr: 0x100011804, symSize: 0x2C }
  - { offsetInCU: 0x213DB, offset: 0x213DB, size: 0x8, addend: 0x0, symName: __ZNSt3__112__hash_tableINS_17__hash_value_typeIP7AddressfEENS_22__unordered_map_hasherIS3_S4_NS_4hashIS3_EENS_8equal_toIS3_EELb1EEENS_21__unordered_map_equalIS3_S4_S9_S7_Lb1EEENS_9allocatorIS4_EEED2Ev, symObjAddr: 0xDF64, symBinAddr: 0x100011830, symSize: 0x48 }
  - { offsetInCU: 0x21405, offset: 0x21405, size: 0x8, addend: 0x0, symName: __ZNSt3__112__hash_tableINS_17__hash_value_typeIP7AddressfEENS_22__unordered_map_hasherIS3_S4_NS_4hashIS3_EENS_8equal_toIS3_EELb1EEENS_21__unordered_map_equalIS3_S4_S9_S7_Lb1EEENS_9allocatorIS4_EEE17__deallocate_nodeEPNS_16__hash_node_baseIPNS_11__hash_nodeIS4_PvEEEE, symObjAddr: 0xDFAC, symBinAddr: 0x100011878, symSize: 0xA4 }
  - { offsetInCU: 0x2146E, offset: 0x2146E, size: 0x8, addend: 0x0, symName: __ZNSt3__110unique_ptrIA_PNS_16__hash_node_baseIPNS_11__hash_nodeINS_17__hash_value_typeIP7AddressfEEPvEEEENS_25__bucket_list_deallocatorINS_9allocatorISB_EEEEED1B8ue170006Ev, symObjAddr: 0xE050, symBinAddr: 0x10001191C, symSize: 0x2C }
  - { offsetInCU: 0x21497, offset: 0x21497, size: 0x8, addend: 0x0, symName: __ZNSt3__110unique_ptrIA_PNS_16__hash_node_baseIPNS_11__hash_nodeINS_17__hash_value_typeIP7AddressfEEPvEEEENS_25__bucket_list_deallocatorINS_9allocatorISB_EEEEED2B8ue170006Ev, symObjAddr: 0xE07C, symBinAddr: 0x100011948, symSize: 0x30 }
  - { offsetInCU: 0x214C0, offset: 0x214C0, size: 0x8, addend: 0x0, symName: __ZNSt3__110unique_ptrIA_PNS_16__hash_node_baseIPNS_11__hash_nodeINS_17__hash_value_typeIP7AddressfEEPvEEEENS_25__bucket_list_deallocatorINS_9allocatorISB_EEEEE5resetB8ue170006EDn, symObjAddr: 0xE0AC, symBinAddr: 0x100011978, symSize: 0x6C }
  - { offsetInCU: 0x21500, offset: 0x21500, size: 0x8, addend: 0x0, symName: __ZN7AddressD2Ev, symObjAddr: 0xE118, symBinAddr: 0x1000119E4, symSize: 0x2C }
  - { offsetInCU: 0x2152B, offset: 0x2152B, size: 0x8, addend: 0x0, symName: __ZN5GraphD2Ev, symObjAddr: 0xE144, symBinAddr: 0x100011A10, symSize: 0x2C }
  - { offsetInCU: 0x21556, offset: 0x21556, size: 0x8, addend: 0x0, symName: __ZNSt3__16vectorINS_4pairI7AddressNS0_INS1_IS2_dEENS_9allocatorIS3_EEEEEENS4_IS7_EEED1B8ue170006Ev, symObjAddr: 0xE170, symBinAddr: 0x100011A3C, symSize: 0x2C }
  - { offsetInCU: 0x2157F, offset: 0x2157F, size: 0x8, addend: 0x0, symName: __ZNSt3__16vectorINS_4pairI7AddressNS0_INS1_IS2_dEENS_9allocatorIS3_EEEEEENS4_IS7_EEED2B8ue170006Ev, symObjAddr: 0xE19C, symBinAddr: 0x100011A68, symSize: 0x44 }
  - { offsetInCU: 0x215A8, offset: 0x215A8, size: 0x8, addend: 0x0, symName: __ZNSt3__16vectorINS_4pairI7AddressNS0_INS1_IS2_dEENS_9allocatorIS3_EEEEEENS4_IS7_EEE16__destroy_vectorC1B8ue170006ERS9_, symObjAddr: 0xE1E0, symBinAddr: 0x100011AAC, symSize: 0x34 }
  - { offsetInCU: 0x215E0, offset: 0x215E0, size: 0x8, addend: 0x0, symName: __ZNSt3__16vectorINS_4pairI7AddressNS0_INS1_IS2_dEENS_9allocatorIS3_EEEEEENS4_IS7_EEE16__destroy_vectorclB8ue170006Ev, symObjAddr: 0xE214, symBinAddr: 0x100011AE0, symSize: 0x90 }
  - { offsetInCU: 0x21605, offset: 0x21605, size: 0x8, addend: 0x0, symName: __ZNSt3__16vectorINS_4pairI7AddressNS0_INS1_IS2_dEENS_9allocatorIS3_EEEEEENS4_IS7_EEE16__destroy_vectorC2B8ue170006ERS9_, symObjAddr: 0xE2A4, symBinAddr: 0x100011B70, symSize: 0x20 }
  - { offsetInCU: 0x2163D, offset: 0x2163D, size: 0x8, addend: 0x0, symName: __ZNSt3__16vectorINS_4pairI7AddressNS0_INS1_IS2_dEENS_9allocatorIS3_EEEEEENS4_IS7_EEE7__clearB8ue170006Ev, symObjAddr: 0xE2C4, symBinAddr: 0x100011B90, symSize: 0x28 }
  - { offsetInCU: 0x21662, offset: 0x21662, size: 0x8, addend: 0x0, symName: __ZNSt3__16vectorINS_4pairI7AddressNS0_INS1_IS2_dEENS_9allocatorIS3_EEEEEENS4_IS7_EEE22__base_destruct_at_endB8ue170006EPS7_, symObjAddr: 0xE2EC, symBinAddr: 0x100011BB8, symSize: 0x8C }
  - { offsetInCU: 0x216A5, offset: 0x216A5, size: 0x8, addend: 0x0, symName: __ZN14AddressManagerD2Ev, symObjAddr: 0xE378, symBinAddr: 0x100011C44, symSize: 0x2C }
  - { offsetInCU: 0x216D0, offset: 0x216D0, size: 0x8, addend: 0x0, symName: __ZNSt3__16vectorI7AddressNS_9allocatorIS1_EEED1B8ue170006Ev, symObjAddr: 0xE3A4, symBinAddr: 0x100011C70, symSize: 0x2C }
  - { offsetInCU: 0x216F9, offset: 0x216F9, size: 0x8, addend: 0x0, symName: __ZNSt3__16vectorI7AddressNS_9allocatorIS1_EEED2B8ue170006Ev, symObjAddr: 0xE3D0, symBinAddr: 0x100011C9C, symSize: 0x44 }
  - { offsetInCU: 0x21722, offset: 0x21722, size: 0x8, addend: 0x0, symName: __ZNSt3__16vectorI7AddressNS_9allocatorIS1_EEE16__destroy_vectorC1B8ue170006ERS4_, symObjAddr: 0xE414, symBinAddr: 0x100011CE0, symSize: 0x34 }
  - { offsetInCU: 0x2175A, offset: 0x2175A, size: 0x8, addend: 0x0, symName: __ZNSt3__16vectorI7AddressNS_9allocatorIS1_EEE16__destroy_vectorclB8ue170006Ev, symObjAddr: 0xE448, symBinAddr: 0x100011D14, symSize: 0x90 }
  - { offsetInCU: 0x2177F, offset: 0x2177F, size: 0x8, addend: 0x0, symName: __ZNSt3__16vectorI7AddressNS_9allocatorIS1_EEE16__destroy_vectorC2B8ue170006ERS4_, symObjAddr: 0xE4D8, symBinAddr: 0x100011DA4, symSize: 0x20 }
  - { offsetInCU: 0x217B7, offset: 0x217B7, size: 0x8, addend: 0x0, symName: __ZNSt3__16vectorI7AddressNS_9allocatorIS1_EEE7__clearB8ue170006Ev, symObjAddr: 0xE4F8, symBinAddr: 0x100011DC4, symSize: 0x28 }
  - { offsetInCU: 0x217DC, offset: 0x217DC, size: 0x8, addend: 0x0, symName: __ZNSt3__16vectorI7AddressNS_9allocatorIS1_EEE22__base_destruct_at_endB8ue170006EPS1_, symObjAddr: 0xE520, symBinAddr: 0x100011DEC, symSize: 0x8C }
  - { offsetInCU: 0x2183D, offset: 0x2183D, size: 0x8, addend: 0x0, symName: __ZNKSt3__113basic_ostreamIcNS_11char_traitsIcEEE6sentrycvbB8ue170006Ev, symObjAddr: 0xE798, symBinAddr: 0x100012064, symSize: 0x1C }
  - { offsetInCU: 0x21862, offset: 0x21862, size: 0x8, addend: 0x0, symName: __ZNSt3__119ostreambuf_iteratorIcNS_11char_traitsIcEEEC1B8ue170006ERNS_13basic_ostreamIcS2_EE, symObjAddr: 0xE9F4, symBinAddr: 0x1000122C0, symSize: 0x34 }
  - { offsetInCU: 0x21899, offset: 0x21899, size: 0x8, addend: 0x0, symName: __ZNKSt3__18ios_base5flagsB8ue170006Ev, symObjAddr: 0xEA28, symBinAddr: 0x1000122F4, symSize: 0x18 }
  - { offsetInCU: 0x218BF, offset: 0x218BF, size: 0x8, addend: 0x0, symName: __ZNKSt3__19basic_iosIcNS_11char_traitsIcEEE4fillB8ue170006Ev, symObjAddr: 0xEA40, symBinAddr: 0x10001230C, symSize: 0x64 }
  - { offsetInCU: 0x218E6, offset: 0x218E6, size: 0x8, addend: 0x0, symName: __ZNKSt3__119ostreambuf_iteratorIcNS_11char_traitsIcEEE6failedB8ue170006Ev, symObjAddr: 0xEAA4, symBinAddr: 0x100012370, symSize: 0x24 }
  - { offsetInCU: 0x2190B, offset: 0x2190B, size: 0x8, addend: 0x0, symName: __ZNSt3__19basic_iosIcNS_11char_traitsIcEEE8setstateB8ue170006Ej, symObjAddr: 0xEAC8, symBinAddr: 0x100012394, symSize: 0x2C }
  - { offsetInCU: 0x2193F, offset: 0x2193F, size: 0x8, addend: 0x0, symName: __ZNKSt3__18ios_base5widthB8ue170006Ev, symObjAddr: 0xEAF4, symBinAddr: 0x1000123C0, symSize: 0x18 }
  - { offsetInCU: 0x21966, offset: 0x21966, size: 0x8, addend: 0x0, symName: __ZNSt3__115basic_streambufIcNS_11char_traitsIcEEE5sputnB8ue170006EPKcl, symObjAddr: 0xEB0C, symBinAddr: 0x1000123D8, symSize: 0x3C }
  - { offsetInCU: 0x219A7, offset: 0x219A7, size: 0x8, addend: 0x0, symName: __ZNSt3__112basic_stringIcNS_11char_traitsIcEENS_9allocatorIcEEEC1B8ue170006Emc, symObjAddr: 0xEB48, symBinAddr: 0x100012414, symSize: 0x3C }
  - { offsetInCU: 0x219EE, offset: 0x219EE, size: 0x8, addend: 0x0, symName: __ZNSt3__18ios_base5widthB8ue170006El, symObjAddr: 0xEB84, symBinAddr: 0x100012450, symSize: 0x2C }
  - { offsetInCU: 0x21A33, offset: 0x21A33, size: 0x8, addend: 0x0, symName: __ZNSt3__112basic_stringIcNS_11char_traitsIcEENS_9allocatorIcEEEC2B8ue170006Emc, symObjAddr: 0xEBB0, symBinAddr: 0x10001247C, symSize: 0x4C }
  - { offsetInCU: 0x21A7A, offset: 0x21A7A, size: 0x8, addend: 0x0, symName: __ZNSt3__117__compressed_pairINS_12basic_stringIcNS_11char_traitsIcEENS_9allocatorIcEEE5__repES5_EC1B8ue170006INS_18__default_init_tagESA_EEOT_OT0_, symObjAddr: 0xEBFC, symBinAddr: 0x1000124C8, symSize: 0x3C }
  - { offsetInCU: 0x21AD1, offset: 0x21AD1, size: 0x8, addend: 0x0, symName: __ZNSt3__117__compressed_pairINS_12basic_stringIcNS_11char_traitsIcEENS_9allocatorIcEEE5__repES5_EC2B8ue170006INS_18__default_init_tagESA_EEOT_OT0_, symObjAddr: 0xEC38, symBinAddr: 0x100012504, symSize: 0x3C }
  - { offsetInCU: 0x21B28, offset: 0x21B28, size: 0x8, addend: 0x0, symName: __ZNSt3__122__compressed_pair_elemINS_12basic_stringIcNS_11char_traitsIcEENS_9allocatorIcEEE5__repELi0ELb0EEC2B8ue170006ENS_18__default_init_tagE, symObjAddr: 0xEC74, symBinAddr: 0x100012540, symSize: 0x14 }
  - { offsetInCU: 0x21B5C, offset: 0x21B5C, size: 0x8, addend: 0x0, symName: __ZNSt3__122__compressed_pair_elemINS_9allocatorIcEELi1ELb1EEC2B8ue170006ENS_18__default_init_tagE, symObjAddr: 0xEC88, symBinAddr: 0x100012554, symSize: 0x2C }
  - { offsetInCU: 0x21B90, offset: 0x21B90, size: 0x8, addend: 0x0, symName: __ZNSt3__19allocatorIcEC2B8ue170006Ev, symObjAddr: 0xECB4, symBinAddr: 0x100012580, symSize: 0x2C }
  - { offsetInCU: 0x21BB9, offset: 0x21BB9, size: 0x8, addend: 0x0, symName: __ZNSt3__116__non_trivial_ifILb1ENS_9allocatorIcEEEC2B8ue170006Ev, symObjAddr: 0xECE0, symBinAddr: 0x1000125AC, symSize: 0x14 }
  - { offsetInCU: 0x21BE2, offset: 0x21BE2, size: 0x8, addend: 0x0, symName: __ZNSt3__119ostreambuf_iteratorIcNS_11char_traitsIcEEEC2B8ue170006ERNS_13basic_ostreamIcS2_EE, symObjAddr: 0xECF4, symBinAddr: 0x1000125C0, symSize: 0x54 }
  - { offsetInCU: 0x21C18, offset: 0x21C18, size: 0x8, addend: 0x0, symName: __ZNKSt3__19basic_iosIcNS_11char_traitsIcEEE5rdbufB8ue170006Ev, symObjAddr: 0xED48, symBinAddr: 0x100012614, symSize: 0x24 }
  - { offsetInCU: 0x21C3F, offset: 0x21C3F, size: 0x8, addend: 0x0, symName: __ZNKSt3__18ios_base5rdbufB8ue170006Ev, symObjAddr: 0xED6C, symBinAddr: 0x100012638, symSize: 0x18 }
  - { offsetInCU: 0x21C64, offset: 0x21C64, size: 0x8, addend: 0x0, symName: __ZNSt3__111char_traitsIcE11eq_int_typeB8ue170006Eii, symObjAddr: 0xED84, symBinAddr: 0x100012650, symSize: 0x28 }
  - { offsetInCU: 0x21C97, offset: 0x21C97, size: 0x8, addend: 0x0, symName: __ZNSt3__111char_traitsIcE3eofB8ue170006Ev, symObjAddr: 0xEDAC, symBinAddr: 0x100012678, symSize: 0x8 }
  - { offsetInCU: 0x21CAA, offset: 0x21CAA, size: 0x8, addend: 0x0, symName: __ZNKSt3__19basic_iosIcNS_11char_traitsIcEEE5widenB8ue170006Ec, symObjAddr: 0xEDB4, symBinAddr: 0x100012680, symSize: 0x84 }
  - { offsetInCU: 0x21D17, offset: 0x21D17, size: 0x8, addend: 0x0, symName: __ZNKSt3__15ctypeIcE5widenB8ue170006Ec, symObjAddr: 0xEE64, symBinAddr: 0x100012730, symSize: 0x38 }
  - { offsetInCU: 0x21D4A, offset: 0x21D4A, size: 0x8, addend: 0x0, symName: __ZNSt3__18ios_base8setstateB8ue170006Ej, symObjAddr: 0xEE9C, symBinAddr: 0x100012768, symSize: 0x34 }
  - { offsetInCU: 0x21D80, offset: 0x21D80, size: 0x8, addend: 0x0, symName: __ZNSt3__111char_traitsIcE6lengthB8ue170006EPKc, symObjAddr: 0xEED0, symBinAddr: 0x10001279C, symSize: 0x34 }
  - { offsetInCU: 0x21DA3, offset: 0x21DA3, size: 0x8, addend: 0x0, symName: __ZNSt3__112basic_stringIcNS_11char_traitsIcEENS_9allocatorIcEEEC2B8ue170006ILi0EEEPKc, symObjAddr: 0xEF28, symBinAddr: 0x1000127F4, symSize: 0x58 }
  - { offsetInCU: 0x21DE1, offset: 0x21DE1, size: 0x8, addend: 0x0, symName: __ZNSt3__16vectorI7AddressNS_9allocatorIS1_EEE11__make_iterB8ue170006EPS1_, symObjAddr: 0xEF80, symBinAddr: 0x10001284C, symSize: 0x30 }
  - { offsetInCU: 0x21E15, offset: 0x21E15, size: 0x8, addend: 0x0, symName: __ZNSt3__111__wrap_iterIP7AddressEC1B8ue170006ES2_, symObjAddr: 0xEFB0, symBinAddr: 0x10001287C, symSize: 0x34 }
  - { offsetInCU: 0x21E4C, offset: 0x21E4C, size: 0x8, addend: 0x0, symName: __ZNSt3__111__wrap_iterIP7AddressEC2B8ue170006ES2_, symObjAddr: 0xEFE4, symBinAddr: 0x1000128B0, symSize: 0x20 }
  - { offsetInCU: 0x21E83, offset: 0x21E83, size: 0x8, addend: 0x0, symName: __ZN5StackI4NodeED2Ev, symObjAddr: 0xF004, symBinAddr: 0x1000128D0, symSize: 0x50 }
...
