---
triple:          'arm64-apple-darwin'
binary-path:     '/Users/pob08/Desktop/cpp/RouteMapper/graph_test'
relocations:
  - { offsetInCU: 0x5C, offset: 0x5C, size: 0x8, addend: 0x0, symName: __ZNSt3__1L19piecewise_constructE, symObjAddr: 0x10057, symBinAddr: 0x1000133A0, symSize: 0x0 }
  - { offsetInCU: 0xBA53, offset: 0xBA53, size: 0x8, addend: 0x0, symName: __ZNSt3__124__put_character_sequenceB8ue170006IcNS_11char_traitsIcEEEERNS_13basic_ostreamIT_T0_EES7_PKS4_m, symObjAddr: 0xB898, symBinAddr: 0x10000E8B4, symSize: 0x1EC }
  - { offsetInCU: 0xF7E4, offset: 0xF7E4, size: 0x8, addend: 0x0, symName: __ZNSt3__1neB8ue170006IPK7AddressEEbRKNS_11__wrap_iterIT_EES8_, symObjAddr: 0xC8C, symBinAddr: 0x100003CA8, symSize: 0x34 }
  - { offsetInCU: 0xF827, offset: 0xF827, size: 0x8, addend: 0x0, symName: __ZNSt3__1eqB8ue170006INS_12basic_stringIcNS_11char_traitsIcEENS_9allocatorIcEEEENS4_IS6_EEEEbRKNS_6vectorIT_T0_EESD_, symObjAddr: 0x14D8, symBinAddr: 0x1000044F4, symSize: 0x9C }
  - { offsetInCU: 0xF885, offset: 0xF885, size: 0x8, addend: 0x0, symName: __ZNSt3__1lsB8ue170006INS_11char_traitsIcEEEERNS_13basic_ostreamIcT_EES6_PKc, symObjAddr: 0x1670, symBinAddr: 0x10000468C, symSize: 0x48 }
  - { offsetInCU: 0xF8CB, offset: 0xF8CB, size: 0x8, addend: 0x0, symName: __ZNSt3__14endlB8ue170006IcNS_11char_traitsIcEEEERNS_13basic_ostreamIT_T0_EES7_, symObjAddr: 0x16E4, symBinAddr: 0x100004700, symSize: 0x58 }
  - { offsetInCU: 0xF90B, offset: 0xF90B, size: 0x8, addend: 0x0, symName: __ZNSt3__112__to_addressB8ue170006I7AddressEEPT_S3_, symObjAddr: 0x1C00, symBinAddr: 0x100004C1C, symSize: 0x14 }
  - { offsetInCU: 0xF940, offset: 0xF940, size: 0x8, addend: 0x0, symName: __ZNSt3__13maxB8ue170006ImEERKT_S3_S3_, symObjAddr: 0x2194, symBinAddr: 0x1000051B0, symSize: 0x2C }
  - { offsetInCU: 0xF983, offset: 0xF983, size: 0x8, addend: 0x0, symName: __ZNSt3__13minB8ue170006ImEERKT_S3_S3_, symObjAddr: 0x21C0, symBinAddr: 0x1000051DC, symSize: 0x2C }
  - { offsetInCU: 0xFBC7, offset: 0xFBC7, size: 0x8, addend: 0x0, symName: __ZNSt3__13minB8ue170006ImNS_6__lessIvvEEEERKT_S5_S5_T0_, symObjAddr: 0x224C, symBinAddr: 0x100005268, symSize: 0x54 }
  - { offsetInCU: 0xFC66, offset: 0xFC66, size: 0x8, addend: 0x0, symName: __ZNSt3__120__throw_length_errorB8ue170006EPKc, symObjAddr: 0x2328, symBinAddr: 0x100005344, symSize: 0x64 }
  - { offsetInCU: 0xFC90, offset: 0xFC90, size: 0x8, addend: 0x0, symName: __ZNSt3__13maxB8ue170006ImNS_6__lessIvvEEEERKT_S5_S5_T0_, symObjAddr: 0x246C, symBinAddr: 0x100005488, symSize: 0x54 }
  - { offsetInCU: 0xFCEA, offset: 0xFCEA, size: 0x8, addend: 0x0, symName: __ZNSt3__119__allocate_at_leastB8ue170006INS_9allocatorI7AddressEEEENS_19__allocation_resultINS_16allocator_traitsIT_E7pointerEEERS6_m, symObjAddr: 0x25D0, symBinAddr: 0x1000055EC, symSize: 0x40 }
  - { offsetInCU: 0xFD2D, offset: 0xFD2D, size: 0x8, addend: 0x0, symName: __ZNSt3__117__libcpp_allocateB8ue170006Emm, symObjAddr: 0x2754, symBinAddr: 0x100005770, symSize: 0x28 }
  - { offsetInCU: 0xFD6A, offset: 0xFD6A, size: 0x8, addend: 0x0, symName: __ZNSt3__121__libcpp_operator_newB8ue170006IJmEEEPvDpT_, symObjAddr: 0x277C, symBinAddr: 0x100005798, symSize: 0x24 }
  - { offsetInCU: 0xFDA3, offset: 0xFDA3, size: 0x8, addend: 0x0, symName: __ZNSt3__142__uninitialized_allocator_move_if_noexceptB8ue170006INS_9allocatorI7AddressEENS_16reverse_iteratorIPS2_EES6_S6_EET2_RT_T0_T1_S7_, symObjAddr: 0x28BC, symBinAddr: 0x1000058D8, symSize: 0x12C }
  - { offsetInCU: 0xFE43, offset: 0xFE43, size: 0x8, addend: 0x0, symName: __ZNSt3__14swapB8ue170006IP7AddressEENS_9enable_ifIXaasr21is_move_constructibleIT_EE5valuesr18is_move_assignableIS4_EE5valueEvE4typeERS4_S7_, symObjAddr: 0x2A34, symBinAddr: 0x100005A50, symSize: 0x3C }
  - { offsetInCU: 0xFE94, offset: 0xFE94, size: 0x8, addend: 0x0, symName: __ZNSt3__122__make_exception_guardB8ue170006INS_29_AllocatorDestroyRangeReverseINS_9allocatorI7AddressEENS_16reverse_iteratorIPS3_EEEEEENS_28__exception_guard_exceptionsIT_EESA_, symObjAddr: 0x2B64, symBinAddr: 0x100005B80, symSize: 0x4C }
  - { offsetInCU: 0xFECA, offset: 0xFECA, size: 0x8, addend: 0x0, symName: __ZNSt3__1neB8ue170006IP7AddressS2_EEbRKNS_16reverse_iteratorIT_EERKNS3_IT0_EE, symObjAddr: 0x2BF4, symBinAddr: 0x100005C10, symSize: 0x48 }
  - { offsetInCU: 0xFF16, offset: 0xFF16, size: 0x8, addend: 0x0, symName: __ZNSt3__112__to_addressB8ue170006INS_16reverse_iteratorIP7AddressEEvEEu7__decayIDTclsr19__to_address_helperIT_EE6__callclsr3stdE7declvalIRKS5_EEEEES7_, symObjAddr: 0x2C3C, symBinAddr: 0x100005C58, symSize: 0x24 }
  - { offsetInCU: 0xFF75, offset: 0xFF75, size: 0x8, addend: 0x0, symName: __ZNSt3__119__allocator_destroyB8ue170006INS_9allocatorI7AddressEENS_16reverse_iteratorINS4_IPS2_EEEES7_EEvRT_T0_T1_, symObjAddr: 0x2EEC, symBinAddr: 0x100005F08, symSize: 0x70 }
  - { offsetInCU: 0xFFDA, offset: 0xFFDA, size: 0x8, addend: 0x0, symName: __ZNSt3__1neB8ue170006INS_16reverse_iteratorIP7AddressEES4_EEbRKNS1_IT_EERKNS1_IT0_EE, symObjAddr: 0x2F98, symBinAddr: 0x100005FB4, symSize: 0x60 }
  - { offsetInCU: 0x10026, offset: 0x10026, size: 0x8, addend: 0x0, symName: __ZNSt3__112__to_addressB8ue170006INS_16reverse_iteratorINS1_IP7AddressEEEEvEEu7__decayIDTclsr19__to_address_helperIT_EE6__callclsr3stdE7declvalIRKS6_EEEEES8_, symObjAddr: 0x3024, symBinAddr: 0x100006040, symSize: 0x24 }
  - { offsetInCU: 0x10085, offset: 0x10085, size: 0x8, addend: 0x0, symName: __ZNSt3__119__libcpp_deallocateB8ue170006EPvmm, symObjAddr: 0x33DC, symBinAddr: 0x1000063F8, symSize: 0x30 }
  - { offsetInCU: 0x100CD, offset: 0x100CD, size: 0x8, addend: 0x0, symName: __ZNSt3__127__do_deallocate_handle_sizeB8ue170006IJEEEvPvmDpT_, symObjAddr: 0x340C, symBinAddr: 0x100006428, symSize: 0x28 }
  - { offsetInCU: 0x1010B, offset: 0x1010B, size: 0x8, addend: 0x0, symName: __ZNSt3__124__libcpp_operator_deleteB8ue170006IJPvEEEvDpT_, symObjAddr: 0x3434, symBinAddr: 0x100006450, symSize: 0x24 }
  - { offsetInCU: 0x10140, offset: 0x10140, size: 0x8, addend: 0x0, symName: __ZNSt3__1eqB8ue170006IPK7AddressEEbRKNS_11__wrap_iterIT_EES8_, symObjAddr: 0x3698, symBinAddr: 0x1000066B4, symSize: 0x48 }
  - { offsetInCU: 0x10183, offset: 0x10183, size: 0x8, addend: 0x0, symName: __ZNSt3__112__to_addressB8ue170006INS_4pairI7AddressNS_6vectorINS1_IS2_dEENS_9allocatorIS4_EEEEEEEEPT_SA_, symObjAddr: 0x3A84, symBinAddr: 0x100006AA0, symSize: 0x14 }
  - { offsetInCU: 0x101B8, offset: 0x101B8, size: 0x8, addend: 0x0, symName: __ZNSt3__119__allocate_at_leastB8ue170006INS_9allocatorINS_4pairI7AddressNS_6vectorINS2_IS3_dEENS1_IS5_EEEEEEEEEENS_19__allocation_resultINS_16allocator_traitsIT_E7pointerEEERSC_m, symObjAddr: 0x43B8, symBinAddr: 0x1000073D4, symSize: 0x40 }
  - { offsetInCU: 0x101FB, offset: 0x101FB, size: 0x8, addend: 0x0, symName: __ZNSt3__142__uninitialized_allocator_move_if_noexceptB8ue170006INS_9allocatorINS_4pairI7AddressNS_6vectorINS2_IS3_dEENS1_IS5_EEEEEEEENS_16reverse_iteratorIPS8_EESC_SC_EET2_RT_T0_T1_SD_, symObjAddr: 0x4644, symBinAddr: 0x100007660, symSize: 0x12C }
  - { offsetInCU: 0x1029B, offset: 0x1029B, size: 0x8, addend: 0x0, symName: __ZNSt3__14swapB8ue170006IPNS_4pairI7AddressNS_6vectorINS1_IS2_dEENS_9allocatorIS4_EEEEEEEENS_9enable_ifIXaasr21is_move_constructibleIT_EE5valuesr18is_move_assignableISB_EE5valueEvE4typeERSB_SE_, symObjAddr: 0x47BC, symBinAddr: 0x1000077D8, symSize: 0x3C }
  - { offsetInCU: 0x102EC, offset: 0x102EC, size: 0x8, addend: 0x0, symName: __ZNSt3__122__make_exception_guardB8ue170006INS_29_AllocatorDestroyRangeReverseINS_9allocatorINS_4pairI7AddressNS_6vectorINS3_IS4_dEENS2_IS6_EEEEEEEENS_16reverse_iteratorIPS9_EEEEEENS_28__exception_guard_exceptionsIT_EESG_, symObjAddr: 0x4908, symBinAddr: 0x100007924, symSize: 0x4C }
  - { offsetInCU: 0x10322, offset: 0x10322, size: 0x8, addend: 0x0, symName: __ZNSt3__1neB8ue170006IPNS_4pairI7AddressNS_6vectorINS1_IS2_dEENS_9allocatorIS4_EEEEEES9_EEbRKNS_16reverse_iteratorIT_EERKNSA_IT0_EE, symObjAddr: 0x4998, symBinAddr: 0x1000079B4, symSize: 0x48 }
  - { offsetInCU: 0x1036E, offset: 0x1036E, size: 0x8, addend: 0x0, symName: __ZNSt3__112__to_addressB8ue170006INS_16reverse_iteratorIPNS_4pairI7AddressNS_6vectorINS2_IS3_dEENS_9allocatorIS5_EEEEEEEEvEEu7__decayIDTclsr19__to_address_helperIT_EE6__callclsr3stdE7declvalIRKSC_EEEEESE_, symObjAddr: 0x49E0, symBinAddr: 0x1000079FC, symSize: 0x24 }
  - { offsetInCU: 0x103CD, offset: 0x103CD, size: 0x8, addend: 0x0, symName: __ZNSt3__119__allocator_destroyB8ue170006INS_9allocatorINS_4pairI7AddressNS_6vectorINS2_IS3_dEENS1_IS5_EEEEEEEENS_16reverse_iteratorINSA_IPS8_EEEESD_EEvRT_T0_T1_, symObjAddr: 0x4C90, symBinAddr: 0x100007CAC, symSize: 0x70 }
  - { offsetInCU: 0x10432, offset: 0x10432, size: 0x8, addend: 0x0, symName: __ZNSt3__1neB8ue170006INS_16reverse_iteratorIPNS_4pairI7AddressNS_6vectorINS2_IS3_dEENS_9allocatorIS5_EEEEEEEESB_EEbRKNS1_IT_EERKNS1_IT0_EE, symObjAddr: 0x4D3C, symBinAddr: 0x100007D58, symSize: 0x60 }
  - { offsetInCU: 0x1047E, offset: 0x1047E, size: 0x8, addend: 0x0, symName: __ZNSt3__112__to_addressB8ue170006INS_16reverse_iteratorINS1_IPNS_4pairI7AddressNS_6vectorINS2_IS3_dEENS_9allocatorIS5_EEEEEEEEEEvEEu7__decayIDTclsr19__to_address_helperIT_EE6__callclsr3stdE7declvalIRKSD_EEEEESF_, symObjAddr: 0x4DC8, symBinAddr: 0x100007DE4, symSize: 0x24 }
  - { offsetInCU: 0x104DD, offset: 0x104DD, size: 0x8, addend: 0x0, symName: __ZNSt3__122__make_exception_guardB8ue170006INS_6vectorINS_4pairI7AddressdEENS_9allocatorIS4_EEE16__destroy_vectorEEENS_28__exception_guard_exceptionsIT_EESA_, symObjAddr: 0x558C, symBinAddr: 0x1000085A8, symSize: 0x40 }
  - { offsetInCU: 0x10512, offset: 0x10512, size: 0x8, addend: 0x0, symName: __ZNSt3__119__allocate_at_leastB8ue170006INS_9allocatorINS_4pairI7AddressdEEEEEENS_19__allocation_resultINS_16allocator_traitsIT_E7pointerEEERS8_m, symObjAddr: 0x587C, symBinAddr: 0x100008898, symSize: 0x40 }
  - { offsetInCU: 0x10555, offset: 0x10555, size: 0x8, addend: 0x0, symName: __ZNSt3__112__to_addressB8ue170006INS_4pairI7AddressdEEEEPT_S5_, symObjAddr: 0x5AA4, symBinAddr: 0x100008AC0, symSize: 0x14 }
  - { offsetInCU: 0x1058A, offset: 0x1058A, size: 0x8, addend: 0x0, symName: __ZNSt3__130__uninitialized_allocator_copyB8ue170006INS_9allocatorINS_4pairI7AddressdEEEEPS4_S6_S6_EET2_RT_T0_T1_S7_, symObjAddr: 0x5B54, symBinAddr: 0x100008B70, symSize: 0x80 }
  - { offsetInCU: 0x10627, offset: 0x10627, size: 0x8, addend: 0x0, symName: __ZNSt3__114__unwrap_rangeB8ue170006IPNS_4pairI7AddressdEES4_EENS1_IT0_S5_EET_S7_, symObjAddr: 0x5C4C, symBinAddr: 0x100008C68, symSize: 0x60 }
  - { offsetInCU: 0x10673, offset: 0x10673, size: 0x8, addend: 0x0, symName: __ZNSt3__135__uninitialized_allocator_copy_implB8ue170006INS_9allocatorINS_4pairI7AddressdEEEEPS4_S6_S6_EET2_RT_T0_T1_S7_, symObjAddr: 0x5CAC, symBinAddr: 0x100008CC8, symSize: 0xF4 }
  - { offsetInCU: 0x10711, offset: 0x10711, size: 0x8, addend: 0x0, symName: __ZNSt3__113__unwrap_iterB8ue170006IPNS_4pairI7AddressdEENS_18__unwrap_iter_implIS4_Lb1EEELi0EEEDTclsrT0_8__unwrapclsr3stdE7declvalIT_EEEES8_, symObjAddr: 0x5DA0, symBinAddr: 0x100008DBC, symSize: 0x24 }
  - { offsetInCU: 0x10755, offset: 0x10755, size: 0x8, addend: 0x0, symName: __ZNSt3__113__rewrap_iterB8ue170006IPNS_4pairI7AddressdEES4_NS_18__unwrap_iter_implIS4_Lb1EEEEET_S7_T0_, symObjAddr: 0x5DC4, symBinAddr: 0x100008DE0, symSize: 0x3C }
  - { offsetInCU: 0x107AA, offset: 0x107AA, size: 0x8, addend: 0x0, symName: __ZNSt3__19make_pairB8ue170006IPNS_4pairI7AddressdEES4_EENS1_INS_18__unwrap_ref_decayIT_E4typeENS5_IT0_E4typeEEEOS6_OS9_, symObjAddr: 0x5E00, symBinAddr: 0x100008E1C, symSize: 0x38 }
  - { offsetInCU: 0x108CD, offset: 0x108CD, size: 0x8, addend: 0x0, symName: __ZNSt3__122__make_exception_guardB8ue170006INS_29_AllocatorDestroyRangeReverseINS_9allocatorINS_4pairI7AddressdEEEEPS5_EEEENS_28__exception_guard_exceptionsIT_EESA_, symObjAddr: 0x5EA8, symBinAddr: 0x100008EC4, symSize: 0x4C }
  - { offsetInCU: 0x10903, offset: 0x10903, size: 0x8, addend: 0x0, symName: __ZNSt3__119__allocator_destroyB8ue170006INS_9allocatorINS_4pairI7AddressdEEEENS_16reverse_iteratorIPS4_EES8_EEvRT_T0_T1_, symObjAddr: 0x61AC, symBinAddr: 0x1000091C8, symSize: 0x70 }
  - { offsetInCU: 0x10966, offset: 0x10966, size: 0x8, addend: 0x0, symName: __ZNSt3__1neB8ue170006IPNS_4pairI7AddressdEES4_EEbRKNS_16reverse_iteratorIT_EERKNS5_IT0_EE, symObjAddr: 0x6250, symBinAddr: 0x10000926C, symSize: 0x48 }
  - { offsetInCU: 0x109B2, offset: 0x109B2, size: 0x8, addend: 0x0, symName: __ZNSt3__112__to_addressB8ue170006INS_16reverse_iteratorIPNS_4pairI7AddressdEEEEvEEu7__decayIDTclsr19__to_address_helperIT_EE6__callclsr3stdE7declvalIRKS7_EEEEES9_, symObjAddr: 0x62C4, symBinAddr: 0x1000092E0, symSize: 0x24 }
  - { offsetInCU: 0x10A64, offset: 0x10A64, size: 0x8, addend: 0x0, symName: __ZNSt3__1neB8ue170006IPNS_4pairI7AddressNS_6vectorINS1_IS2_dEENS_9allocatorIS4_EEEEEEEEbRKNS_11__wrap_iterIT_EESE_, symObjAddr: 0x68A0, symBinAddr: 0x1000098BC, symSize: 0x34 }
  - { offsetInCU: 0x10AA7, offset: 0x10AA7, size: 0x8, addend: 0x0, symName: __ZNSt3__1eqB8ue170006INS_9allocatorIcEEEEbRKNS_12basic_stringIcNS_11char_traitsIcEET_EES9_, symObjAddr: 0x68EC, symBinAddr: 0x100009908, symSize: 0x148 }
  - { offsetInCU: 0x10B1A, offset: 0x10B1A, size: 0x8, addend: 0x0, symName: __ZNSt3__1eqB8ue170006IPNS_4pairI7AddressNS_6vectorINS1_IS2_dEENS_9allocatorIS4_EEEEEEEEbRKNS_11__wrap_iterIT_EESE_, symObjAddr: 0x6B80, symBinAddr: 0x100009B9C, symSize: 0x48 }
  - { offsetInCU: 0x10B5D, offset: 0x10B5D, size: 0x8, addend: 0x0, symName: __ZNSt3__112__to_addressB8ue170006IKcEEPT_S3_, symObjAddr: 0x6D5C, symBinAddr: 0x100009D78, symSize: 0x14 }
  - { offsetInCU: 0x10BC5, offset: 0x10BC5, size: 0x8, addend: 0x0, symName: __ZNSt3__142__uninitialized_allocator_move_if_noexceptB8ue170006INS_9allocatorINS_4pairI7AddressdEEEENS_16reverse_iteratorIPS4_EES8_S8_EET2_RT_T0_T1_S9_, symObjAddr: 0x74D4, symBinAddr: 0x10000A4F0, symSize: 0x11C }
  - { offsetInCU: 0x10C65, offset: 0x10C65, size: 0x8, addend: 0x0, symName: __ZNSt3__14swapB8ue170006IPNS_4pairI7AddressdEEEENS_9enable_ifIXaasr21is_move_constructibleIT_EE5valuesr18is_move_assignableIS6_EE5valueEvE4typeERS6_S9_, symObjAddr: 0x75F0, symBinAddr: 0x10000A60C, symSize: 0x3C }
  - { offsetInCU: 0x10CB6, offset: 0x10CB6, size: 0x8, addend: 0x0, symName: __ZNSt3__122__make_exception_guardB8ue170006INS_29_AllocatorDestroyRangeReverseINS_9allocatorINS_4pairI7AddressdEEEENS_16reverse_iteratorIPS5_EEEEEENS_28__exception_guard_exceptionsIT_EESC_, symObjAddr: 0x762C, symBinAddr: 0x10000A648, symSize: 0x4C }
  - { offsetInCU: 0x10CEC, offset: 0x10CEC, size: 0x8, addend: 0x0, symName: __ZNSt3__119__allocator_destroyB8ue170006INS_9allocatorINS_4pairI7AddressdEEEENS_16reverse_iteratorINS6_IPS4_EEEES9_EEvRT_T0_T1_, symObjAddr: 0x78A4, symBinAddr: 0x10000A8C0, symSize: 0x70 }
  - { offsetInCU: 0x10D51, offset: 0x10D51, size: 0x8, addend: 0x0, symName: __ZNSt3__1neB8ue170006INS_16reverse_iteratorIPNS_4pairI7AddressdEEEES6_EEbRKNS1_IT_EERKNS1_IT0_EE, symObjAddr: 0x7950, symBinAddr: 0x10000A96C, symSize: 0x60 }
  - { offsetInCU: 0x10D9D, offset: 0x10D9D, size: 0x8, addend: 0x0, symName: __ZNSt3__112__to_addressB8ue170006INS_16reverse_iteratorINS1_IPNS_4pairI7AddressdEEEEEEvEEu7__decayIDTclsr19__to_address_helperIT_EE6__callclsr3stdE7declvalIRKS8_EEEEESA_, symObjAddr: 0x79B0, symBinAddr: 0x10000A9CC, symSize: 0x24 }
  - { offsetInCU: 0x11824, offset: 0x11824, size: 0x8, addend: 0x0, symName: __ZNSt3__1lsB8ue170006IcNS_11char_traitsIcEENS_9allocatorIcEEEERNS_13basic_ostreamIT_T0_EES9_RKNS_12basic_stringIS6_S7_T1_EE, symObjAddr: 0x805C, symBinAddr: 0x10000B078, symSize: 0x4C }
  - { offsetInCU: 0x1187C, offset: 0x1187C, size: 0x8, addend: 0x0, symName: __ZNSt3__1eqB8ue170006ERKNS_19__hash_map_iteratorINS_15__hash_iteratorIPNS_11__hash_nodeINS_17__hash_value_typeINS_12basic_stringIcNS_11char_traitsIcEENS_9allocatorIcEEEEP4NodeEEPvEEEEEESJ_, symObjAddr: 0x8460, symBinAddr: 0x10000B47C, symSize: 0x30 }
  - { offsetInCU: 0x118F0, offset: 0x118F0, size: 0x8, addend: 0x0, symName: __ZNSt3__116forward_as_tupleB8ue170006IJRKNS_12basic_stringIcNS_11char_traitsIcEENS_9allocatorIcEEEEEEENS_5tupleIJDpOT_EEESC_, symObjAddr: 0x90B0, symBinAddr: 0x10000C0CC, symSize: 0x2C }
  - { offsetInCU: 0x11929, offset: 0x11929, size: 0x8, addend: 0x0, symName: __ZNSt3__116forward_as_tupleB8ue170006IJEEENS_5tupleIJDpOT_EEES4_, symObjAddr: 0x90DC, symBinAddr: 0x10000C0F8, symSize: 0x4 }
  - { offsetInCU: 0x1194D, offset: 0x1194D, size: 0x8, addend: 0x0, symName: __ZNSt3__116__constrain_hashB8ue170006Emm, symObjAddr: 0x91A0, symBinAddr: 0x10000C1BC, symSize: 0x98 }
  - { offsetInCU: 0x11987, offset: 0x11987, size: 0x8, addend: 0x0, symName: __ZNSt3__116__is_hash_power2B8ue170006Em, symObjAddr: 0x94E4, symBinAddr: 0x10000C500, symSize: 0x50 }
  - { offsetInCU: 0x119B3, offset: 0x119B3, size: 0x8, addend: 0x0, symName: __ZNSt3__116__do_string_hashB8ue170006IPKcEEmT_S3_, symObjAddr: 0x9760, symBinAddr: 0x10000C77C, symSize: 0x3C }
  - { offsetInCU: 0x119F9, offset: 0x119F9, size: 0x8, addend: 0x0, symName: __ZNSt3__110__loadwordB8ue170006ImEET_PKv, symObjAddr: 0xA154, symBinAddr: 0x10000D170, symSize: 0x20 }
  - { offsetInCU: 0x11A3C, offset: 0x11A3C, size: 0x8, addend: 0x0, symName: __ZNSt3__14swapB8ue170006ImEENS_9enable_ifIXaasr21is_move_constructibleIT_EE5valuesr18is_move_assignableIS2_EE5valueEvE4typeERS2_S5_, symObjAddr: 0xA310, symBinAddr: 0x10000D32C, symSize: 0x3C }
  - { offsetInCU: 0x11A8D, offset: 0x11A8D, size: 0x8, addend: 0x0, symName: __ZNSt3__110__loadwordB8ue170006IjEET_PKv, symObjAddr: 0xA3A0, symBinAddr: 0x10000D3BC, symSize: 0x20 }
  - { offsetInCU: 0x11B2C, offset: 0x11B2C, size: 0x8, addend: 0x0, symName: __ZNSt3__13getB8ue170006ILm0EJRKNS_12basic_stringIcNS_11char_traitsIcEENS_9allocatorIcEEEEEEERNS_13tuple_elementIXT_ENS_5tupleIJDpT0_EEEE4typeERSD_, symObjAddr: 0xAB18, symBinAddr: 0x10000DB34, symSize: 0x24 }
  - { offsetInCU: 0x11B6F, offset: 0x11B6F, size: 0x8, addend: 0x0, symName: __ZNSt3__116__next_hash_pow2B8ue170006Em, symObjAddr: 0xB030, symBinAddr: 0x10000E04C, symSize: 0x6C }
  - { offsetInCU: 0x11BB7, offset: 0x11BB7, size: 0x8, addend: 0x0, symName: __ZNSt3__112__libcpp_clzB8ue170006Em, symObjAddr: 0xB3D8, symBinAddr: 0x10000E3F4, symSize: 0x1C }
  - { offsetInCU: 0x12045, offset: 0x12045, size: 0x8, addend: 0x0, symName: __ZNSt3__1neB8ue170006IcNS_11char_traitsIcEENS_9allocatorIcEEEEbRKNS_12basic_stringIT_T0_T1_EESB_, symObjAddr: 0xB864, symBinAddr: 0x10000E880, symSize: 0x34 }
  - { offsetInCU: 0x1209D, offset: 0x1209D, size: 0x8, addend: 0x0, symName: __ZNSt3__116__pad_and_outputB8ue170006IcNS_11char_traitsIcEEEENS_19ostreambuf_iteratorIT_T0_EES6_PKS4_S8_S8_RNS_8ios_baseES4_, symObjAddr: 0xBAA0, symBinAddr: 0x10000EABC, symSize: 0x240 }
  - { offsetInCU: 0x1216C, offset: 0x1216C, size: 0x8, addend: 0x0, symName: __ZNSt3__19use_facetB8ue170006INS_5ctypeIcEEEERKT_RKNS_6localeE, symObjAddr: 0xC124, symBinAddr: 0x10000F140, symSize: 0x2C }
  - { offsetInCU: 0x12639, offset: 0x12639, size: 0x8, addend: 0x0, symName: __ZNSt3__1neB8ue170006IPKNS_4pairI7AddressNS_6vectorINS1_IS2_dEENS_9allocatorIS4_EEEEEEEEbRKNS_11__wrap_iterIT_EESF_, symObjAddr: 0xC338, symBinAddr: 0x10000F354, symSize: 0x34 }
  - { offsetInCU: 0x1267C, offset: 0x1267C, size: 0x8, addend: 0x0, symName: __ZNSt3__1neB8ue170006IPKNS_4pairI7AddressdEEEEbRKNS_11__wrap_iterIT_EESA_, symObjAddr: 0xC3E4, symBinAddr: 0x10000F400, symSize: 0x34 }
  - { offsetInCU: 0x126BF, offset: 0x126BF, size: 0x8, addend: 0x0, symName: __ZNSt3__1eqB8ue170006IPKNS_4pairI7AddressNS_6vectorINS1_IS2_dEENS_9allocatorIS4_EEEEEEEEbRKNS_11__wrap_iterIT_EESF_, symObjAddr: 0xC4F4, symBinAddr: 0x10000F510, symSize: 0x48 }
  - { offsetInCU: 0x12702, offset: 0x12702, size: 0x8, addend: 0x0, symName: __ZNSt3__1eqB8ue170006IPKNS_4pairI7AddressdEEEEbRKNS_11__wrap_iterIT_EESA_, symObjAddr: 0xC5D8, symBinAddr: 0x10000F5F4, symSize: 0x48 }
  - { offsetInCU: 0x12745, offset: 0x12745, size: 0x8, addend: 0x0, symName: __ZNSt3__1eqB8ue170006ERKNS_15__hash_iteratorIPNS_11__hash_nodeINS_17__hash_value_typeINS_12basic_stringIcNS_11char_traitsIcEENS_9allocatorIcEEEEP4NodeEEPvEEEESH_, symObjAddr: 0xC638, symBinAddr: 0x10000F654, symSize: 0x30 }
  - { offsetInCU: 0x12782, offset: 0x12782, size: 0x8, addend: 0x0, symName: __ZNSt3__118__constexpr_strlenB8ue170006EPKc, symObjAddr: 0xCF6C, symBinAddr: 0x10000FF88, symSize: 0x24 }
  - { offsetInCU: 0x127AE, offset: 0x127AE, size: 0x8, addend: 0x0, symName: __ZNSt3__122__make_exception_guardB8ue170006INS_6vectorINS_12basic_stringIcNS_11char_traitsIcEENS_9allocatorIcEEEENS5_IS7_EEE16__destroy_vectorEEENS_28__exception_guard_exceptionsIT_EESC_, symObjAddr: 0xD1C8, symBinAddr: 0x1000101E4, symSize: 0x40 }
  - { offsetInCU: 0x127E3, offset: 0x127E3, size: 0x8, addend: 0x0, symName: __ZNSt3__119__allocate_at_leastB8ue170006INS_9allocatorINS_12basic_stringIcNS_11char_traitsIcEENS1_IcEEEEEEEENS_19__allocation_resultINS_16allocator_traitsIT_E7pointerEEERSA_m, symObjAddr: 0xD5D8, symBinAddr: 0x1000105F4, symSize: 0x40 }
  - { offsetInCU: 0x12826, offset: 0x12826, size: 0x8, addend: 0x0, symName: __ZNSt3__112__to_addressB8ue170006INS_12basic_stringIcNS_11char_traitsIcEENS_9allocatorIcEEEEEEPT_S8_, symObjAddr: 0xD920, symBinAddr: 0x10001093C, symSize: 0x14 }
  - { offsetInCU: 0x1285B, offset: 0x1285B, size: 0x8, addend: 0x0, symName: __ZNSt3__130__uninitialized_allocator_copyB8ue170006INS_9allocatorINS_12basic_stringIcNS_11char_traitsIcEENS1_IcEEEEEEPKS6_S9_PS6_EET2_RT_T0_T1_SB_, symObjAddr: 0xD9D0, symBinAddr: 0x1000109EC, symSize: 0x80 }
  - { offsetInCU: 0x128F8, offset: 0x128F8, size: 0x8, addend: 0x0, symName: __ZNSt3__114__unwrap_rangeB8ue170006IPKNS_12basic_stringIcNS_11char_traitsIcEENS_9allocatorIcEEEES8_EENS_4pairIT0_SA_EET_SC_, symObjAddr: 0xDAC8, symBinAddr: 0x100010AE4, symSize: 0x60 }
  - { offsetInCU: 0x12944, offset: 0x12944, size: 0x8, addend: 0x0, symName: __ZNSt3__135__uninitialized_allocator_copy_implB8ue170006INS_9allocatorINS_12basic_stringIcNS_11char_traitsIcEENS1_IcEEEEEEPKS6_S9_PS6_EET2_RT_T0_T1_SB_, symObjAddr: 0xDB28, symBinAddr: 0x100010B44, symSize: 0xF4 }
  - { offsetInCU: 0x129E2, offset: 0x129E2, size: 0x8, addend: 0x0, symName: __ZNSt3__113__unwrap_iterB8ue170006IPNS_12basic_stringIcNS_11char_traitsIcEENS_9allocatorIcEEEENS_18__unwrap_iter_implIS7_Lb1EEELi0EEEDTclsrT0_8__unwrapclsr3stdE7declvalIT_EEEESB_, symObjAddr: 0xDC1C, symBinAddr: 0x100010C38, symSize: 0x24 }
  - { offsetInCU: 0x12A26, offset: 0x12A26, size: 0x8, addend: 0x0, symName: __ZNSt3__113__rewrap_iterB8ue170006IPNS_12basic_stringIcNS_11char_traitsIcEENS_9allocatorIcEEEES7_NS_18__unwrap_iter_implIS7_Lb1EEEEET_SA_T0_, symObjAddr: 0xDC40, symBinAddr: 0x100010C5C, symSize: 0x3C }
  - { offsetInCU: 0x12A7B, offset: 0x12A7B, size: 0x8, addend: 0x0, symName: __ZNSt3__19make_pairB8ue170006IPKNS_12basic_stringIcNS_11char_traitsIcEENS_9allocatorIcEEEES8_EENS_4pairINS_18__unwrap_ref_decayIT_E4typeENSA_IT0_E4typeEEEOSB_OSE_, symObjAddr: 0xDC7C, symBinAddr: 0x100010C98, symSize: 0x38 }
  - { offsetInCU: 0x12ACA, offset: 0x12ACA, size: 0x8, addend: 0x0, symName: __ZNSt3__113__unwrap_iterB8ue170006IPKNS_12basic_stringIcNS_11char_traitsIcEENS_9allocatorIcEEEENS_18__unwrap_iter_implIS8_Lb1EEELi0EEEDTclsrT0_8__unwrapclsr3stdE7declvalIT_EEEESC_, symObjAddr: 0xDCB4, symBinAddr: 0x100010CD0, symSize: 0x24 }
  - { offsetInCU: 0x12C35, offset: 0x12C35, size: 0x8, addend: 0x0, symName: __ZNSt3__112__to_addressB8ue170006IKNS_12basic_stringIcNS_11char_traitsIcEENS_9allocatorIcEEEEEEPT_S9_, symObjAddr: 0xDD6C, symBinAddr: 0x100010D88, symSize: 0x14 }
  - { offsetInCU: 0x12C6A, offset: 0x12C6A, size: 0x8, addend: 0x0, symName: __ZNSt3__122__make_exception_guardB8ue170006INS_29_AllocatorDestroyRangeReverseINS_9allocatorINS_12basic_stringIcNS_11char_traitsIcEENS2_IcEEEEEEPS7_EEEENS_28__exception_guard_exceptionsIT_EESC_, symObjAddr: 0xDD80, symBinAddr: 0x100010D9C, symSize: 0x4C }
  - { offsetInCU: 0x12CA0, offset: 0x12CA0, size: 0x8, addend: 0x0, symName: __ZNSt3__119__allocator_destroyB8ue170006INS_9allocatorINS_12basic_stringIcNS_11char_traitsIcEENS1_IcEEEEEENS_16reverse_iteratorIPS6_EESA_EEvRT_T0_T1_, symObjAddr: 0xE010, symBinAddr: 0x10001102C, symSize: 0x70 }
  - { offsetInCU: 0x12D03, offset: 0x12D03, size: 0x8, addend: 0x0, symName: __ZNSt3__1neB8ue170006IPNS_12basic_stringIcNS_11char_traitsIcEENS_9allocatorIcEEEES7_EEbRKNS_16reverse_iteratorIT_EERKNS8_IT0_EE, symObjAddr: 0xE0B4, symBinAddr: 0x1000110D0, symSize: 0x48 }
  - { offsetInCU: 0x12D4F, offset: 0x12D4F, size: 0x8, addend: 0x0, symName: __ZNSt3__112__to_addressB8ue170006INS_16reverse_iteratorIPNS_12basic_stringIcNS_11char_traitsIcEENS_9allocatorIcEEEEEEvEEu7__decayIDTclsr19__to_address_helperIT_EE6__callclsr3stdE7declvalIRKSA_EEEEESC_, symObjAddr: 0xE128, symBinAddr: 0x100011144, symSize: 0x24 }
  - { offsetInCU: 0x12E01, offset: 0x12E01, size: 0x8, addend: 0x0, symName: __ZNSt3__142__uninitialized_allocator_move_if_noexceptB8ue170006INS_9allocatorINS_12basic_stringIcNS_11char_traitsIcEENS1_IcEEEEEENS_16reverse_iteratorIPS6_EESA_SA_EET2_RT_T0_T1_SB_, symObjAddr: 0xEC5C, symBinAddr: 0x100011C78, symSize: 0x11C }
  - { offsetInCU: 0x12EA1, offset: 0x12EA1, size: 0x8, addend: 0x0, symName: __ZNSt3__14swapB8ue170006IPNS_12basic_stringIcNS_11char_traitsIcEENS_9allocatorIcEEEEEENS_9enable_ifIXaasr21is_move_constructibleIT_EE5valuesr18is_move_assignableIS9_EE5valueEvE4typeERS9_SC_, symObjAddr: 0xED78, symBinAddr: 0x100011D94, symSize: 0x3C }
  - { offsetInCU: 0x12EF2, offset: 0x12EF2, size: 0x8, addend: 0x0, symName: __ZNSt3__122__make_exception_guardB8ue170006INS_29_AllocatorDestroyRangeReverseINS_9allocatorINS_12basic_stringIcNS_11char_traitsIcEENS2_IcEEEEEENS_16reverse_iteratorIPS7_EEEEEENS_28__exception_guard_exceptionsIT_EESE_, symObjAddr: 0xEDB4, symBinAddr: 0x100011DD0, symSize: 0x4C }
  - { offsetInCU: 0x12F28, offset: 0x12F28, size: 0x8, addend: 0x0, symName: __ZNSt3__119__allocator_destroyB8ue170006INS_9allocatorINS_12basic_stringIcNS_11char_traitsIcEENS1_IcEEEEEENS_16reverse_iteratorINS8_IPS6_EEEESB_EEvRT_T0_T1_, symObjAddr: 0xF090, symBinAddr: 0x1000120AC, symSize: 0x70 }
  - { offsetInCU: 0x12F8D, offset: 0x12F8D, size: 0x8, addend: 0x0, symName: __ZNSt3__1neB8ue170006INS_16reverse_iteratorIPNS_12basic_stringIcNS_11char_traitsIcEENS_9allocatorIcEEEEEES9_EEbRKNS1_IT_EERKNS1_IT0_EE, symObjAddr: 0xF13C, symBinAddr: 0x100012158, symSize: 0x60 }
  - { offsetInCU: 0x12FD9, offset: 0x12FD9, size: 0x8, addend: 0x0, symName: __ZNSt3__112__to_addressB8ue170006INS_16reverse_iteratorINS1_IPNS_12basic_stringIcNS_11char_traitsIcEENS_9allocatorIcEEEEEEEEvEEu7__decayIDTclsr19__to_address_helperIT_EE6__callclsr3stdE7declvalIRKSB_EEEEESD_, symObjAddr: 0xF19C, symBinAddr: 0x1000121B8, symSize: 0x24 }
  - { offsetInCU: 0x13038, offset: 0x13038, size: 0x8, addend: 0x0, symName: __ZNSt3__15equalB8ue170006INS_11__wrap_iterIPKNS_12basic_stringIcNS_11char_traitsIcEENS_9allocatorIcEEEEEESA_EEbT_SB_T0_, symObjAddr: 0xF4DC, symBinAddr: 0x1000124F8, symSize: 0x50 }
  - { offsetInCU: 0x13092, offset: 0x13092, size: 0x8, addend: 0x0, symName: __ZNSt3__15equalB8ue170006INS_11__wrap_iterIPKNS_12basic_stringIcNS_11char_traitsIcEENS_9allocatorIcEEEEEESA_NS_10__equal_toEEEbT_SC_T0_T1_, symObjAddr: 0xF58C, symBinAddr: 0x1000125A8, symSize: 0x74 }
  - { offsetInCU: 0x13103, offset: 0x13103, size: 0x8, addend: 0x0, symName: __ZNSt3__117__equal_iter_implB8ue170006IPKNS_12basic_stringIcNS_11char_traitsIcEENS_9allocatorIcEEEES8_NS_10__equal_toEEEbT_SA_T0_RT1_, symObjAddr: 0xF600, symBinAddr: 0x10001261C, symSize: 0xAC }
  - { offsetInCU: 0x13174, offset: 0x13174, size: 0x8, addend: 0x0, symName: __ZNSt3__113__unwrap_iterB8ue170006INS_11__wrap_iterIPKNS_12basic_stringIcNS_11char_traitsIcEENS_9allocatorIcEEEEEENS_18__unwrap_iter_implISA_Lb1EEELi0EEEDTclsrT0_8__unwrapclsr3stdE7declvalIT_EEEESE_, symObjAddr: 0xF6AC, symBinAddr: 0x1000126C8, symSize: 0x2C }
  - { offsetInCU: 0x13246, offset: 0x13246, size: 0x8, addend: 0x0, symName: __ZNSt3__112__to_addressB8ue170006INS_11__wrap_iterIPKNS_12basic_stringIcNS_11char_traitsIcEENS_9allocatorIcEEEEEEvEEu7__decayIDTclsr19__to_address_helperIT_EE6__callclsr3stdE7declvalIRKSB_EEEEESD_, symObjAddr: 0xF734, symBinAddr: 0x100012750, symSize: 0x24 }
  - { offsetInCU: 0x1374A, offset: 0x1374A, size: 0x8, addend: 0x0, symName: __ZSt28__throw_bad_array_new_lengthB8ue170006v, symObjAddr: 0x2720, symBinAddr: 0x10000573C, symSize: 0x34 }
  - { offsetInCU: 0x13CC2, offset: 0x13CC2, size: 0x8, addend: 0x0, symName: __ZNSt3__16vectorI7AddressNS_9allocatorIS1_EEE26__swap_out_circular_bufferERNS_14__split_bufferIS1_RS3_EE, symObjAddr: 0x1F9C, symBinAddr: 0x100004FB8, symSize: 0x110 }
  - { offsetInCU: 0x14093, offset: 0x14093, size: 0x8, addend: 0x0, symName: __ZNSt3__16vectorINS_4pairI7AddressNS0_INS1_IS2_dEENS_9allocatorIS3_EEEEEENS4_IS7_EEE26__swap_out_circular_bufferERNS_14__split_bufferIS7_RS8_EE, symObjAddr: 0x3FA0, symBinAddr: 0x100006FBC, symSize: 0x110 }
  - { offsetInCU: 0x1417E, offset: 0x1417E, size: 0x8, addend: 0x0, symName: __ZNSt3__16vectorINS_4pairI7AddressdEENS_9allocatorIS3_EEE26__swap_out_circular_bufferERNS_14__split_bufferIS3_RS5_EE, symObjAddr: 0x7160, symBinAddr: 0x10000A17C, symSize: 0x110 }
  - { offsetInCU: 0x14AC4, offset: 0x14AC4, size: 0x8, addend: 0x0, symName: __ZNSt3__16vectorINS_12basic_stringIcNS_11char_traitsIcEENS_9allocatorIcEEEENS4_IS6_EEE26__swap_out_circular_bufferERNS_14__split_bufferIS6_RS7_EE, symObjAddr: 0xE8E8, symBinAddr: 0x100011904, symSize: 0x110 }
  - { offsetInCU: 0x16E70, offset: 0x16E70, size: 0x8, addend: 0x0, symName: __Z12testDijkstrav, symObjAddr: 0x0, symBinAddr: 0x10000301C, symSize: 0xB0C }
  - { offsetInCU: 0x16FE7, offset: 0x16FE7, size: 0x8, addend: 0x0, symName: __ZN14AddressManagerC1Ev, symObjAddr: 0xB0C, symBinAddr: 0x100003B28, symSize: 0x2C }
  - { offsetInCU: 0x17012, offset: 0x17012, size: 0x8, addend: 0x0, symName: __ZN14AddressManager10addAddressERKNSt3__112basic_stringIcNS0_11char_traitsIcEENS0_9allocatorIcEEEEii, symObjAddr: 0xB38, symBinAddr: 0x100003B54, symSize: 0x80 }
  - { offsetInCU: 0x17066, offset: 0x17066, size: 0x8, addend: 0x0, symName: __ZNSt3__112basic_stringIcNS_11char_traitsIcEENS_9allocatorIcEEEC1B8ue170006ILi0EEEPKc, symObjAddr: 0xBB8, symBinAddr: 0x100003BD4, symSize: 0x34 }
  - { offsetInCU: 0x17361, offset: 0x17361, size: 0x8, addend: 0x0, symName: __ZN5GraphC1Ev, symObjAddr: 0xBEC, symBinAddr: 0x100003C08, symSize: 0x2C }
  - { offsetInCU: 0x1738C, offset: 0x1738C, size: 0x8, addend: 0x0, symName: __ZNK14AddressManager12getAddressesEv, symObjAddr: 0xC18, symBinAddr: 0x100003C34, symSize: 0x14 }
  - { offsetInCU: 0x173B0, offset: 0x173B0, size: 0x8, addend: 0x0, symName: __ZNKSt3__16vectorI7AddressNS_9allocatorIS1_EEE5beginB8ue170006Ev, symObjAddr: 0xC2C, symBinAddr: 0x100003C48, symSize: 0x30 }
  - { offsetInCU: 0x173D6, offset: 0x173D6, size: 0x8, addend: 0x0, symName: __ZNKSt3__16vectorI7AddressNS_9allocatorIS1_EEE3endB8ue170006Ev, symObjAddr: 0xC5C, symBinAddr: 0x100003C78, symSize: 0x30 }
  - { offsetInCU: 0x173FD, offset: 0x173FD, size: 0x8, addend: 0x0, symName: __ZNKSt3__111__wrap_iterIPK7AddressEdeB8ue170006Ev, symObjAddr: 0xCC0, symBinAddr: 0x100003CDC, symSize: 0x18 }
  - { offsetInCU: 0x17422, offset: 0x17422, size: 0x8, addend: 0x0, symName: __ZN5Graph7addNodeERK7Address, symObjAddr: 0xCD8, symBinAddr: 0x100003CF4, symSize: 0xAC }
  - { offsetInCU: 0x17455, offset: 0x17455, size: 0x8, addend: 0x0, symName: __ZNSt3__111__wrap_iterIPK7AddressEppB8ue170006Ev, symObjAddr: 0xD84, symBinAddr: 0x100003DA0, symSize: 0x20 }
  - { offsetInCU: 0x1747A, offset: 0x1747A, size: 0x8, addend: 0x0, symName: __ZN5Graph7addEdgeERK7AddressS2_d, symObjAddr: 0xDA4, symBinAddr: 0x100003DC0, symSize: 0xEC }
  - { offsetInCU: 0x1750A, offset: 0x1750A, size: 0x8, addend: 0x0, symName: __ZNKSt3__16vectorI7AddressNS_9allocatorIS1_EEEixB8ue170006Em, symObjAddr: 0xE90, symBinAddr: 0x100003EAC, symSize: 0x24 }
  - { offsetInCU: 0x17540, offset: 0x17540, size: 0x8, addend: 0x0, symName: __ZN7AddressC1ERKS_, symObjAddr: 0xEB4, symBinAddr: 0x100003ED0, symSize: 0x34 }
  - { offsetInCU: 0x17574, offset: 0x17574, size: 0x8, addend: 0x0, symName: __ZN5Graph8dijkstraEP7AddressS1_, symObjAddr: 0xEE8, symBinAddr: 0x100003F04, symSize: 0x49C }
  - { offsetInCU: 0x17632, offset: 0x17632, size: 0x8, addend: 0x0, symName: __ZNSt3__16vectorINS_12basic_stringIcNS_11char_traitsIcEENS_9allocatorIcEEEENS4_IS6_EEEC1B8ue170006ESt16initializer_listIS6_E, symObjAddr: 0x1384, symBinAddr: 0x1000043A0, symSize: 0x3C }
  - { offsetInCU: 0x1766C, offset: 0x1766C, size: 0x8, addend: 0x0, symName: __ZNSt3__16vectorINS_12basic_stringIcNS_11char_traitsIcEENS_9allocatorIcEEEENS4_IS6_EEEC1B8ue170006Ev, symObjAddr: 0x13C0, symBinAddr: 0x1000043DC, symSize: 0x2C }
  - { offsetInCU: 0x17695, offset: 0x17695, size: 0x8, addend: 0x0, symName: __ZNK5StackI4NodeE7isEmptyEv, symObjAddr: 0x13EC, symBinAddr: 0x100004408, symSize: 0x24 }
  - { offsetInCU: 0x176BA, offset: 0x176BA, size: 0x8, addend: 0x0, symName: __ZN5StackI4NodeE3popEv, symObjAddr: 0x1410, symBinAddr: 0x10000442C, symSize: 0x5C }
  - { offsetInCU: 0x176DE, offset: 0x176DE, size: 0x8, addend: 0x0, symName: __ZNSt3__16vectorINS_12basic_stringIcNS_11char_traitsIcEENS_9allocatorIcEEEENS4_IS6_EEE9push_backB8ue170006ERKS6_, symObjAddr: 0x146C, symBinAddr: 0x100004488, symSize: 0x6C }
  - { offsetInCU: 0x17714, offset: 0x17714, size: 0x8, addend: 0x0, symName: __ZNSt3__16vectorINS_12basic_stringIcNS_11char_traitsIcEENS_9allocatorIcEEEENS4_IS6_EEED1B8ue170006Ev, symObjAddr: 0x1574, symBinAddr: 0x100004590, symSize: 0x2C }
  - { offsetInCU: 0x1773D, offset: 0x1773D, size: 0x8, addend: 0x0, symName: __ZN7AddressD1Ev, symObjAddr: 0x15A0, symBinAddr: 0x1000045BC, symSize: 0x2C }
  - { offsetInCU: 0x17768, offset: 0x17768, size: 0x8, addend: 0x0, symName: __ZN5GraphD1Ev, symObjAddr: 0x15CC, symBinAddr: 0x1000045E8, symSize: 0x2C }
  - { offsetInCU: 0x17793, offset: 0x17793, size: 0x8, addend: 0x0, symName: __ZN14AddressManagerD1Ev, symObjAddr: 0x15F8, symBinAddr: 0x100004614, symSize: 0x2C }
  - { offsetInCU: 0x177BE, offset: 0x177BE, size: 0x8, addend: 0x0, symName: _main, symObjAddr: 0x1624, symBinAddr: 0x100004640, symSize: 0x4C }
  - { offsetInCU: 0x177D8, offset: 0x177D8, size: 0x8, addend: 0x0, symName: __ZNSt3__113basic_ostreamIcNS_11char_traitsIcEEElsB8ue170006EPFRS3_S4_E, symObjAddr: 0x16B8, symBinAddr: 0x1000046D4, symSize: 0x2C }
  - { offsetInCU: 0x1780B, offset: 0x1780B, size: 0x8, addend: 0x0, symName: __ZN14AddressManagerC2Ev, symObjAddr: 0x173C, symBinAddr: 0x100004758, symSize: 0x2C }
  - { offsetInCU: 0x17836, offset: 0x17836, size: 0x8, addend: 0x0, symName: __ZNSt3__16vectorI7AddressNS_9allocatorIS1_EEEC1B8ue170006Ev, symObjAddr: 0x1768, symBinAddr: 0x100004784, symSize: 0x2C }
  - { offsetInCU: 0x1785F, offset: 0x1785F, size: 0x8, addend: 0x0, symName: __ZNSt3__16vectorI7AddressNS_9allocatorIS1_EEEC2B8ue170006Ev, symObjAddr: 0x1794, symBinAddr: 0x1000047B0, symSize: 0x4C }
  - { offsetInCU: 0x17892, offset: 0x17892, size: 0x8, addend: 0x0, symName: __ZNSt3__117__compressed_pairIP7AddressNS_9allocatorIS1_EEEC1B8ue170006IDnNS_18__default_init_tagEEEOT_OT0_, symObjAddr: 0x17E0, symBinAddr: 0x1000047FC, symSize: 0x3C }
  - { offsetInCU: 0x178E9, offset: 0x178E9, size: 0x8, addend: 0x0, symName: __ZNSt3__117__compressed_pairIP7AddressNS_9allocatorIS1_EEEC2B8ue170006IDnNS_18__default_init_tagEEEOT_OT0_, symObjAddr: 0x1828, symBinAddr: 0x100004844, symSize: 0x40 }
  - { offsetInCU: 0x17940, offset: 0x17940, size: 0x8, addend: 0x0, symName: __ZNSt3__122__compressed_pair_elemIP7AddressLi0ELb0EEC2B8ue170006IDnvEEOT_, symObjAddr: 0x1868, symBinAddr: 0x100004884, symSize: 0x1C }
  - { offsetInCU: 0x17981, offset: 0x17981, size: 0x8, addend: 0x0, symName: __ZNSt3__122__compressed_pair_elemINS_9allocatorI7AddressEELi1ELb1EEC2B8ue170006ENS_18__default_init_tagE, symObjAddr: 0x1884, symBinAddr: 0x1000048A0, symSize: 0x2C }
  - { offsetInCU: 0x179B5, offset: 0x179B5, size: 0x8, addend: 0x0, symName: __ZNSt3__19allocatorI7AddressEC2B8ue170006Ev, symObjAddr: 0x18B0, symBinAddr: 0x1000048CC, symSize: 0x2C }
  - { offsetInCU: 0x179DE, offset: 0x179DE, size: 0x8, addend: 0x0, symName: __ZNSt3__116__non_trivial_ifILb1ENS_9allocatorI7AddressEEEC2B8ue170006Ev, symObjAddr: 0x18DC, symBinAddr: 0x1000048F8, symSize: 0x14 }
  - { offsetInCU: 0x17A06, offset: 0x17A06, size: 0x8, addend: 0x0, symName: __ZNSt3__16vectorI7AddressNS_9allocatorIS1_EEE9push_backB8ue170006EOS1_, symObjAddr: 0x18F0, symBinAddr: 0x10000490C, symSize: 0x6C }
  - { offsetInCU: 0x17A3C, offset: 0x17A3C, size: 0x8, addend: 0x0, symName: __ZN7AddressC1ERKNSt3__112basic_stringIcNS0_11char_traitsIcEENS0_9allocatorIcEEEEii, symObjAddr: 0x195C, symBinAddr: 0x100004978, symSize: 0x44 }
  - { offsetInCU: 0x17A8F, offset: 0x17A8F, size: 0x8, addend: 0x0, symName: __ZNSt3__16vectorI7AddressNS_9allocatorIS1_EEE9__end_capB8ue170006Ev, symObjAddr: 0x19A0, symBinAddr: 0x1000049BC, symSize: 0x28 }
  - { offsetInCU: 0x17AB9, offset: 0x17AB9, size: 0x8, addend: 0x0, symName: __ZNSt3__16vectorI7AddressNS_9allocatorIS1_EEE22__construct_one_at_endB8ue170006IJS1_EEEvDpOT_, symObjAddr: 0x19C8, symBinAddr: 0x1000049E4, symSize: 0x90 }
  - { offsetInCU: 0x17B06, offset: 0x17B06, size: 0x8, addend: 0x0, symName: __ZNSt3__16vectorI7AddressNS_9allocatorIS1_EEE21__push_back_slow_pathIS1_EEvOT_, symObjAddr: 0x1A58, symBinAddr: 0x100004A74, symSize: 0xD8 }
  - { offsetInCU: 0x17B63, offset: 0x17B63, size: 0x8, addend: 0x0, symName: __ZNSt3__117__compressed_pairIP7AddressNS_9allocatorIS1_EEE5firstB8ue170006Ev, symObjAddr: 0x1B30, symBinAddr: 0x100004B4C, symSize: 0x24 }
  - { offsetInCU: 0x17B88, offset: 0x17B88, size: 0x8, addend: 0x0, symName: __ZNSt3__122__compressed_pair_elemIP7AddressLi0ELb0EE5__getB8ue170006Ev, symObjAddr: 0x1B54, symBinAddr: 0x100004B70, symSize: 0x14 }
  - { offsetInCU: 0x17BC6, offset: 0x17BC6, size: 0x8, addend: 0x0, symName: __ZNSt3__16vectorI7AddressNS_9allocatorIS1_EEE21_ConstructTransactionC1B8ue170006ERS4_m, symObjAddr: 0x1B68, symBinAddr: 0x100004B84, symSize: 0x3C }
  - { offsetInCU: 0x17C0D, offset: 0x17C0D, size: 0x8, addend: 0x0, symName: __ZNSt3__116allocator_traitsINS_9allocatorI7AddressEEE9constructB8ue170006IS2_JS2_EvEEvRS3_PT_DpOT0_, symObjAddr: 0x1BA4, symBinAddr: 0x100004BC0, symSize: 0x34 }
  - { offsetInCU: 0x17C64, offset: 0x17C64, size: 0x8, addend: 0x0, symName: __ZNSt3__16vectorI7AddressNS_9allocatorIS1_EEE7__allocB8ue170006Ev, symObjAddr: 0x1BD8, symBinAddr: 0x100004BF4, symSize: 0x28 }
  - { offsetInCU: 0x17C89, offset: 0x17C89, size: 0x8, addend: 0x0, symName: __ZNSt3__16vectorI7AddressNS_9allocatorIS1_EEE21_ConstructTransactionD1B8ue170006Ev, symObjAddr: 0x1C14, symBinAddr: 0x100004C30, symSize: 0x2C }
  - { offsetInCU: 0x17CB2, offset: 0x17CB2, size: 0x8, addend: 0x0, symName: __ZNSt3__16vectorI7AddressNS_9allocatorIS1_EEE21_ConstructTransactionC2B8ue170006ERS4_m, symObjAddr: 0x1C40, symBinAddr: 0x100004C5C, symSize: 0x44 }
  - { offsetInCU: 0x17CF9, offset: 0x17CF9, size: 0x8, addend: 0x0, symName: __ZNSt3__19allocatorI7AddressE9constructB8ue170006IS1_JS1_EEEvPT_DpOT0_, symObjAddr: 0x1C84, symBinAddr: 0x100004CA0, symSize: 0x30 }
  - { offsetInCU: 0x17D4E, offset: 0x17D4E, size: 0x8, addend: 0x0, symName: __ZN7AddressC1EOS_, symObjAddr: 0x1CB4, symBinAddr: 0x100004CD0, symSize: 0x34 }
  - { offsetInCU: 0x17D82, offset: 0x17D82, size: 0x8, addend: 0x0, symName: __ZN7AddressC2EOS_, symObjAddr: 0x1CE8, symBinAddr: 0x100004D04, symSize: 0x40 }
  - { offsetInCU: 0x17DB6, offset: 0x17DB6, size: 0x8, addend: 0x0, symName: __ZNSt3__112basic_stringIcNS_11char_traitsIcEENS_9allocatorIcEEEC1B8ue170006EOS5_, symObjAddr: 0x1D28, symBinAddr: 0x100004D44, symSize: 0x34 }
  - { offsetInCU: 0x17DEE, offset: 0x17DEE, size: 0x8, addend: 0x0, symName: __ZNSt3__112basic_stringIcNS_11char_traitsIcEENS_9allocatorIcEEEC2B8ue170006EOS5_, symObjAddr: 0x1D5C, symBinAddr: 0x100004D78, symSize: 0x50 }
  - { offsetInCU: 0x17E26, offset: 0x17E26, size: 0x8, addend: 0x0, symName: __ZNSt3__112basic_stringIcNS_11char_traitsIcEENS_9allocatorIcEEE14__default_initB8ue170006Ev, symObjAddr: 0x1DAC, symBinAddr: 0x100004DC8, symSize: 0x40 }
  - { offsetInCU: 0x17E4B, offset: 0x17E4B, size: 0x8, addend: 0x0, symName: __ZNSt3__117__compressed_pairINS_12basic_stringIcNS_11char_traitsIcEENS_9allocatorIcEEE5__repES5_E5firstB8ue170006Ev, symObjAddr: 0x1DEC, symBinAddr: 0x100004E08, symSize: 0x24 }
  - { offsetInCU: 0x17E70, offset: 0x17E70, size: 0x8, addend: 0x0, symName: __ZNSt3__122__compressed_pair_elemINS_12basic_stringIcNS_11char_traitsIcEENS_9allocatorIcEEE5__repELi0ELb0EE5__getB8ue170006Ev, symObjAddr: 0x1E10, symBinAddr: 0x100004E2C, symSize: 0x14 }
  - { offsetInCU: 0x17E95, offset: 0x17E95, size: 0x8, addend: 0x0, symName: __ZNSt3__117__compressed_pairIP7AddressNS_9allocatorIS1_EEE6secondB8ue170006Ev, symObjAddr: 0x1E24, symBinAddr: 0x100004E40, symSize: 0x24 }
  - { offsetInCU: 0x17EBA, offset: 0x17EBA, size: 0x8, addend: 0x0, symName: __ZNSt3__122__compressed_pair_elemINS_9allocatorI7AddressEELi1ELb1EE5__getB8ue170006Ev, symObjAddr: 0x1E48, symBinAddr: 0x100004E64, symSize: 0x14 }
  - { offsetInCU: 0x17EDF, offset: 0x17EDF, size: 0x8, addend: 0x0, symName: __ZNSt3__16vectorI7AddressNS_9allocatorIS1_EEE21_ConstructTransactionD2B8ue170006Ev, symObjAddr: 0x1E5C, symBinAddr: 0x100004E78, symSize: 0x20 }
  - { offsetInCU: 0x17F07, offset: 0x17F07, size: 0x8, addend: 0x0, symName: __ZNKSt3__16vectorI7AddressNS_9allocatorIS1_EEE11__recommendB8ue170006Em, symObjAddr: 0x1E7C, symBinAddr: 0x100004E98, symSize: 0xB4 }
  - { offsetInCU: 0x17F5B, offset: 0x17F5B, size: 0x8, addend: 0x0, symName: __ZNKSt3__16vectorI7AddressNS_9allocatorIS1_EEE4sizeB8ue170006Ev, symObjAddr: 0x1F30, symBinAddr: 0x100004F4C, symSize: 0x28 }
  - { offsetInCU: 0x17F80, offset: 0x17F80, size: 0x8, addend: 0x0, symName: __ZNSt3__114__split_bufferI7AddressRNS_9allocatorIS1_EEEC1EmmS4_, symObjAddr: 0x1F58, symBinAddr: 0x100004F74, symSize: 0x44 }
  - { offsetInCU: 0x17FD5, offset: 0x17FD5, size: 0x8, addend: 0x0, symName: __ZNSt3__114__split_bufferI7AddressRNS_9allocatorIS1_EEED1Ev, symObjAddr: 0x20AC, symBinAddr: 0x1000050C8, symSize: 0x2C }
  - { offsetInCU: 0x17FFF, offset: 0x17FFF, size: 0x8, addend: 0x0, symName: __ZNKSt3__16vectorI7AddressNS_9allocatorIS1_EEE8max_sizeEv, symObjAddr: 0x20D8, symBinAddr: 0x1000050F4, symSize: 0x60 }
  - { offsetInCU: 0x18026, offset: 0x18026, size: 0x8, addend: 0x0, symName: __ZNKSt3__16vectorI7AddressNS_9allocatorIS1_EEE20__throw_length_errorB8ue170006Ev, symObjAddr: 0x2138, symBinAddr: 0x100005154, symSize: 0x1C }
  - { offsetInCU: 0x1804B, offset: 0x1804B, size: 0x8, addend: 0x0, symName: __ZNKSt3__16vectorI7AddressNS_9allocatorIS1_EEE8capacityB8ue170006Ev, symObjAddr: 0x2154, symBinAddr: 0x100005170, symSize: 0x40 }
  - { offsetInCU: 0x1807A, offset: 0x1807A, size: 0x8, addend: 0x0, symName: __ZNSt3__116allocator_traitsINS_9allocatorI7AddressEEE8max_sizeB8ue170006IS3_vEEmRKS3_, symObjAddr: 0x21EC, symBinAddr: 0x100005208, symSize: 0x24 }
  - { offsetInCU: 0x180A8, offset: 0x180A8, size: 0x8, addend: 0x0, symName: __ZNKSt3__16vectorI7AddressNS_9allocatorIS1_EEE7__allocB8ue170006Ev, symObjAddr: 0x2210, symBinAddr: 0x10000522C, symSize: 0x28 }
  - { offsetInCU: 0x180CD, offset: 0x180CD, size: 0x8, addend: 0x0, symName: __ZNSt3__114numeric_limitsIlE3maxB8ue170006Ev, symObjAddr: 0x2238, symBinAddr: 0x100005254, symSize: 0x14 }
  - { offsetInCU: 0x180EB, offset: 0x180EB, size: 0x8, addend: 0x0, symName: __ZNKSt3__16__lessIvvEclB8ue170006ImmEEbRKT_RKT0_, symObjAddr: 0x22A0, symBinAddr: 0x1000052BC, symSize: 0x34 }
  - { offsetInCU: 0x1813E, offset: 0x1813E, size: 0x8, addend: 0x0, symName: __ZNKSt3__19allocatorI7AddressE8max_sizeB8ue170006Ev, symObjAddr: 0x22D4, symBinAddr: 0x1000052F0, symSize: 0x14 }
  - { offsetInCU: 0x18163, offset: 0x18163, size: 0x8, addend: 0x0, symName: __ZNKSt3__117__compressed_pairIP7AddressNS_9allocatorIS1_EEE6secondB8ue170006Ev, symObjAddr: 0x22E8, symBinAddr: 0x100005304, symSize: 0x24 }
  - { offsetInCU: 0x18188, offset: 0x18188, size: 0x8, addend: 0x0, symName: __ZNKSt3__122__compressed_pair_elemINS_9allocatorI7AddressEELi1ELb1EE5__getB8ue170006Ev, symObjAddr: 0x230C, symBinAddr: 0x100005328, symSize: 0x14 }
  - { offsetInCU: 0x181AD, offset: 0x181AD, size: 0x8, addend: 0x0, symName: __ZNSt3__123__libcpp_numeric_limitsIlLb1EE3maxB8ue170006Ev, symObjAddr: 0x2320, symBinAddr: 0x10000533C, symSize: 0x8 }
  - { offsetInCU: 0x181C1, offset: 0x181C1, size: 0x8, addend: 0x0, symName: __ZNSt12length_errorC1B8ue170006EPKc, symObjAddr: 0x238C, symBinAddr: 0x1000053A8, symSize: 0x34 }
  - { offsetInCU: 0x181F8, offset: 0x181F8, size: 0x8, addend: 0x0, symName: __ZNSt12length_errorC2B8ue170006EPKc, symObjAddr: 0x23C0, symBinAddr: 0x1000053DC, symSize: 0x4C }
  - { offsetInCU: 0x1822F, offset: 0x1822F, size: 0x8, addend: 0x0, symName: __ZNKSt3__16vectorI7AddressNS_9allocatorIS1_EEE9__end_capB8ue170006Ev, symObjAddr: 0x240C, symBinAddr: 0x100005428, symSize: 0x28 }
  - { offsetInCU: 0x18254, offset: 0x18254, size: 0x8, addend: 0x0, symName: __ZNKSt3__117__compressed_pairIP7AddressNS_9allocatorIS1_EEE5firstB8ue170006Ev, symObjAddr: 0x2434, symBinAddr: 0x100005450, symSize: 0x24 }
  - { offsetInCU: 0x18279, offset: 0x18279, size: 0x8, addend: 0x0, symName: __ZNKSt3__122__compressed_pair_elemIP7AddressLi0ELb0EE5__getB8ue170006Ev, symObjAddr: 0x2458, symBinAddr: 0x100005474, symSize: 0x14 }
  - { offsetInCU: 0x1829E, offset: 0x1829E, size: 0x8, addend: 0x0, symName: __ZNSt3__114__split_bufferI7AddressRNS_9allocatorIS1_EEEC2EmmS4_, symObjAddr: 0x24C0, symBinAddr: 0x1000054DC, symSize: 0xD4 }
  - { offsetInCU: 0x18311, offset: 0x18311, size: 0x8, addend: 0x0, symName: __ZNSt3__117__compressed_pairIP7AddressRNS_9allocatorIS1_EEEC1B8ue170006IDnS5_EEOT_OT0_, symObjAddr: 0x2594, symBinAddr: 0x1000055B0, symSize: 0x3C }
  - { offsetInCU: 0x18368, offset: 0x18368, size: 0x8, addend: 0x0, symName: __ZNSt3__114__split_bufferI7AddressRNS_9allocatorIS1_EEE7__allocB8ue170006Ev, symObjAddr: 0x2610, symBinAddr: 0x10000562C, symSize: 0x28 }
  - { offsetInCU: 0x1838D, offset: 0x1838D, size: 0x8, addend: 0x0, symName: __ZNSt3__114__split_bufferI7AddressRNS_9allocatorIS1_EEE9__end_capB8ue170006Ev, symObjAddr: 0x2638, symBinAddr: 0x100005654, symSize: 0x28 }
  - { offsetInCU: 0x183B2, offset: 0x183B2, size: 0x8, addend: 0x0, symName: __ZNSt3__117__compressed_pairIP7AddressRNS_9allocatorIS1_EEEC2B8ue170006IDnS5_EEOT_OT0_, symObjAddr: 0x2660, symBinAddr: 0x10000567C, symSize: 0x48 }
  - { offsetInCU: 0x18409, offset: 0x18409, size: 0x8, addend: 0x0, symName: __ZNSt3__122__compressed_pair_elemIRNS_9allocatorI7AddressEELi1ELb0EEC2B8ue170006IS4_vEEOT_, symObjAddr: 0x26A8, symBinAddr: 0x1000056C4, symSize: 0x20 }
  - { offsetInCU: 0x1844A, offset: 0x1844A, size: 0x8, addend: 0x0, symName: __ZNSt3__19allocatorI7AddressE8allocateB8ue170006Em, symObjAddr: 0x26C8, symBinAddr: 0x1000056E4, symSize: 0x58 }
  - { offsetInCU: 0x1847D, offset: 0x1847D, size: 0x8, addend: 0x0, symName: __ZNSt3__117__compressed_pairIP7AddressRNS_9allocatorIS1_EEE6secondB8ue170006Ev, symObjAddr: 0x27A0, symBinAddr: 0x1000057BC, symSize: 0x28 }
  - { offsetInCU: 0x184A2, offset: 0x184A2, size: 0x8, addend: 0x0, symName: __ZNSt3__122__compressed_pair_elemIRNS_9allocatorI7AddressEELi1ELb0EE5__getB8ue170006Ev, symObjAddr: 0x27C8, symBinAddr: 0x1000057E4, symSize: 0x18 }
  - { offsetInCU: 0x184C7, offset: 0x184C7, size: 0x8, addend: 0x0, symName: __ZNSt3__117__compressed_pairIP7AddressRNS_9allocatorIS1_EEE5firstB8ue170006Ev, symObjAddr: 0x27E0, symBinAddr: 0x1000057FC, symSize: 0x24 }
  - { offsetInCU: 0x184EC, offset: 0x184EC, size: 0x8, addend: 0x0, symName: __ZNKSt3__16vectorI7AddressNS_9allocatorIS1_EEE17__annotate_deleteB8ue170006Ev, symObjAddr: 0x2804, symBinAddr: 0x100005820, symSize: 0xB8 }
  - { offsetInCU: 0x18511, offset: 0x18511, size: 0x8, addend: 0x0, symName: __ZNSt3__116reverse_iteratorIP7AddressEC1B8ue170006ES2_, symObjAddr: 0x29E8, symBinAddr: 0x100005A04, symSize: 0x34 }
  - { offsetInCU: 0x18548, offset: 0x18548, size: 0x8, addend: 0x0, symName: __ZNKSt3__116reverse_iteratorIP7AddressE4baseB8ue170006Ev, symObjAddr: 0x2A1C, symBinAddr: 0x100005A38, symSize: 0x18 }
  - { offsetInCU: 0x1856D, offset: 0x1856D, size: 0x8, addend: 0x0, symName: __ZNKSt3__16vectorI7AddressNS_9allocatorIS1_EEE14__annotate_newB8ue170006Em, symObjAddr: 0x2A70, symBinAddr: 0x100005A8C, symSize: 0xAC }
  - { offsetInCU: 0x185A1, offset: 0x185A1, size: 0x8, addend: 0x0, symName: __ZNKSt3__16vectorI7AddressNS_9allocatorIS1_EEE31__annotate_contiguous_containerB8ue170006EPKvS6_S6_S6_, symObjAddr: 0x2B1C, symBinAddr: 0x100005B38, symSize: 0x20 }
  - { offsetInCU: 0x185F6, offset: 0x185F6, size: 0x8, addend: 0x0, symName: __ZNKSt3__16vectorI7AddressNS_9allocatorIS1_EEE4dataB8ue170006Ev, symObjAddr: 0x2B3C, symBinAddr: 0x100005B58, symSize: 0x28 }
  - { offsetInCU: 0x1861B, offset: 0x1861B, size: 0x8, addend: 0x0, symName: __ZNSt3__129_AllocatorDestroyRangeReverseINS_9allocatorI7AddressEENS_16reverse_iteratorIPS2_EEEC1B8ue170006ERS3_RS6_S9_, symObjAddr: 0x2BB0, symBinAddr: 0x100005BCC, symSize: 0x44 }
  - { offsetInCU: 0x18671, offset: 0x18671, size: 0x8, addend: 0x0, symName: __ZNKSt3__116reverse_iteratorIP7AddressEdeB8ue170006Ev, symObjAddr: 0x2C60, symBinAddr: 0x100005C7C, symSize: 0x28 }
  - { offsetInCU: 0x186A4, offset: 0x186A4, size: 0x8, addend: 0x0, symName: __ZNSt3__116reverse_iteratorIP7AddressEppB8ue170006Ev, symObjAddr: 0x2C88, symBinAddr: 0x100005CA4, symSize: 0x20 }
  - { offsetInCU: 0x186C9, offset: 0x186C9, size: 0x8, addend: 0x0, symName: __ZNSt3__128__exception_guard_exceptionsINS_29_AllocatorDestroyRangeReverseINS_9allocatorI7AddressEENS_16reverse_iteratorIPS3_EEEEE10__completeB8ue170006Ev, symObjAddr: 0x2CA8, symBinAddr: 0x100005CC4, symSize: 0x1C }
  - { offsetInCU: 0x186EE, offset: 0x186EE, size: 0x8, addend: 0x0, symName: __ZNSt3__128__exception_guard_exceptionsINS_29_AllocatorDestroyRangeReverseINS_9allocatorI7AddressEENS_16reverse_iteratorIPS3_EEEEED1B8ue170006Ev, symObjAddr: 0x2CC4, symBinAddr: 0x100005CE0, symSize: 0x2C }
  - { offsetInCU: 0x18717, offset: 0x18717, size: 0x8, addend: 0x0, symName: __ZNSt3__128__exception_guard_exceptionsINS_29_AllocatorDestroyRangeReverseINS_9allocatorI7AddressEENS_16reverse_iteratorIPS3_EEEEEC1B8ue170006ES8_, symObjAddr: 0x2CF0, symBinAddr: 0x100005D0C, symSize: 0x34 }
  - { offsetInCU: 0x1874F, offset: 0x1874F, size: 0x8, addend: 0x0, symName: __ZNSt3__128__exception_guard_exceptionsINS_29_AllocatorDestroyRangeReverseINS_9allocatorI7AddressEENS_16reverse_iteratorIPS3_EEEEEC2B8ue170006ES8_, symObjAddr: 0x2D24, symBinAddr: 0x100005D40, symSize: 0x30 }
  - { offsetInCU: 0x18787, offset: 0x18787, size: 0x8, addend: 0x0, symName: __ZNSt3__129_AllocatorDestroyRangeReverseINS_9allocatorI7AddressEENS_16reverse_iteratorIPS2_EEEC2B8ue170006ERS3_RS6_S9_, symObjAddr: 0x2D54, symBinAddr: 0x100005D70, symSize: 0x38 }
  - { offsetInCU: 0x187E2, offset: 0x187E2, size: 0x8, addend: 0x0, symName: __ZNSt3__119__to_address_helperINS_16reverse_iteratorIP7AddressEEvE6__callB8ue170006ERKS4_, symObjAddr: 0x2D8C, symBinAddr: 0x100005DA8, symSize: 0x38 }
  - { offsetInCU: 0x18805, offset: 0x18805, size: 0x8, addend: 0x0, symName: __ZNKSt3__116reverse_iteratorIP7AddressEptB8ue170006Ev, symObjAddr: 0x2DC4, symBinAddr: 0x100005DE0, symSize: 0x24 }
  - { offsetInCU: 0x1882A, offset: 0x1882A, size: 0x8, addend: 0x0, symName: __ZNSt3__128__exception_guard_exceptionsINS_29_AllocatorDestroyRangeReverseINS_9allocatorI7AddressEENS_16reverse_iteratorIPS3_EEEEED2B8ue170006Ev, symObjAddr: 0x2DE8, symBinAddr: 0x100005E04, symSize: 0x50 }
  - { offsetInCU: 0x18853, offset: 0x18853, size: 0x8, addend: 0x0, symName: __ZNKSt3__129_AllocatorDestroyRangeReverseINS_9allocatorI7AddressEENS_16reverse_iteratorIPS2_EEEclB8ue170006Ev, symObjAddr: 0x2E38, symBinAddr: 0x100005E54, symSize: 0xB4 }
  - { offsetInCU: 0x18879, offset: 0x18879, size: 0x8, addend: 0x0, symName: __ZNSt3__116reverse_iteratorINS0_IP7AddressEEEC1B8ue170006ES3_, symObjAddr: 0x2F5C, symBinAddr: 0x100005F78, symSize: 0x3C }
  - { offsetInCU: 0x188B0, offset: 0x188B0, size: 0x8, addend: 0x0, symName: __ZNSt3__116allocator_traitsINS_9allocatorI7AddressEEE7destroyB8ue170006IS2_vEEvRS3_PT_, symObjAddr: 0x2FF8, symBinAddr: 0x100006014, symSize: 0x2C }
  - { offsetInCU: 0x188ED, offset: 0x188ED, size: 0x8, addend: 0x0, symName: __ZNSt3__116reverse_iteratorINS0_IP7AddressEEEppB8ue170006Ev, symObjAddr: 0x3048, symBinAddr: 0x100006064, symSize: 0x30 }
  - { offsetInCU: 0x18912, offset: 0x18912, size: 0x8, addend: 0x0, symName: __ZNKSt3__116reverse_iteratorINS0_IP7AddressEEE4baseB8ue170006Ev, symObjAddr: 0x3078, symBinAddr: 0x100006094, symSize: 0x24 }
  - { offsetInCU: 0x18937, offset: 0x18937, size: 0x8, addend: 0x0, symName: __ZNSt3__19allocatorI7AddressE7destroyB8ue170006EPS1_, symObjAddr: 0x309C, symBinAddr: 0x1000060B8, symSize: 0x28 }
  - { offsetInCU: 0x1896F, offset: 0x1896F, size: 0x8, addend: 0x0, symName: __ZNSt3__119__to_address_helperINS_16reverse_iteratorINS1_IP7AddressEEEEvE6__callB8ue170006ERKS5_, symObjAddr: 0x30C4, symBinAddr: 0x1000060E0, symSize: 0x38 }
  - { offsetInCU: 0x18992, offset: 0x18992, size: 0x8, addend: 0x0, symName: __ZNKSt3__116reverse_iteratorINS0_IP7AddressEEEptB8ue170006Ev, symObjAddr: 0x30FC, symBinAddr: 0x100006118, symSize: 0x24 }
  - { offsetInCU: 0x189B7, offset: 0x189B7, size: 0x8, addend: 0x0, symName: __ZNKSt3__116reverse_iteratorINS0_IP7AddressEEEdeB8ue170006Ev, symObjAddr: 0x3120, symBinAddr: 0x10000613C, symSize: 0x34 }
  - { offsetInCU: 0x189EA, offset: 0x189EA, size: 0x8, addend: 0x0, symName: __ZNSt3__116reverse_iteratorIP7AddressEmmB8ue170006Ev, symObjAddr: 0x3154, symBinAddr: 0x100006170, symSize: 0x20 }
  - { offsetInCU: 0x18A0F, offset: 0x18A0F, size: 0x8, addend: 0x0, symName: __ZNSt3__116reverse_iteratorINS0_IP7AddressEEEC2B8ue170006ES3_, symObjAddr: 0x3174, symBinAddr: 0x100006190, symSize: 0x2C }
  - { offsetInCU: 0x18A46, offset: 0x18A46, size: 0x8, addend: 0x0, symName: __ZNSt3__116reverse_iteratorIP7AddressEC2B8ue170006ES2_, symObjAddr: 0x31A0, symBinAddr: 0x1000061BC, symSize: 0x28 }
  - { offsetInCU: 0x18A7D, offset: 0x18A7D, size: 0x8, addend: 0x0, symName: __ZNSt3__114__split_bufferI7AddressRNS_9allocatorIS1_EEED2Ev, symObjAddr: 0x31C8, symBinAddr: 0x1000061E4, symSize: 0x8C }
  - { offsetInCU: 0x18AA8, offset: 0x18AA8, size: 0x8, addend: 0x0, symName: __ZNSt3__114__split_bufferI7AddressRNS_9allocatorIS1_EEE5clearB8ue170006Ev, symObjAddr: 0x3254, symBinAddr: 0x100006270, symSize: 0x28 }
  - { offsetInCU: 0x18ACD, offset: 0x18ACD, size: 0x8, addend: 0x0, symName: __ZNSt3__116allocator_traitsINS_9allocatorI7AddressEEE10deallocateB8ue170006ERS3_PS2_m, symObjAddr: 0x327C, symBinAddr: 0x100006298, symSize: 0x34 }
  - { offsetInCU: 0x18B0F, offset: 0x18B0F, size: 0x8, addend: 0x0, symName: __ZNKSt3__114__split_bufferI7AddressRNS_9allocatorIS1_EEE8capacityB8ue170006Ev, symObjAddr: 0x32B0, symBinAddr: 0x1000062CC, symSize: 0x40 }
  - { offsetInCU: 0x18B34, offset: 0x18B34, size: 0x8, addend: 0x0, symName: __ZNSt3__114__split_bufferI7AddressRNS_9allocatorIS1_EEE17__destruct_at_endB8ue170006EPS1_, symObjAddr: 0x32F0, symBinAddr: 0x10000630C, symSize: 0x2C }
  - { offsetInCU: 0x18B66, offset: 0x18B66, size: 0x8, addend: 0x0, symName: __ZNSt3__114__split_bufferI7AddressRNS_9allocatorIS1_EEE17__destruct_at_endB8ue170006EPS1_NS_17integral_constantIbLb0EEE, symObjAddr: 0x331C, symBinAddr: 0x100006338, symSize: 0x80 }
  - { offsetInCU: 0x18BA6, offset: 0x18BA6, size: 0x8, addend: 0x0, symName: __ZNSt3__19allocatorI7AddressE10deallocateB8ue170006EPS1_m, symObjAddr: 0x339C, symBinAddr: 0x1000063B8, symSize: 0x40 }
  - { offsetInCU: 0x18BE7, offset: 0x18BE7, size: 0x8, addend: 0x0, symName: __ZNKSt3__114__split_bufferI7AddressRNS_9allocatorIS1_EEE9__end_capB8ue170006Ev, symObjAddr: 0x3458, symBinAddr: 0x100006474, symSize: 0x28 }
  - { offsetInCU: 0x18C0C, offset: 0x18C0C, size: 0x8, addend: 0x0, symName: __ZNKSt3__117__compressed_pairIP7AddressRNS_9allocatorIS1_EEE5firstB8ue170006Ev, symObjAddr: 0x3480, symBinAddr: 0x10000649C, symSize: 0x24 }
  - { offsetInCU: 0x18C31, offset: 0x18C31, size: 0x8, addend: 0x0, symName: __ZN7AddressC2ERKNSt3__112basic_stringIcNS0_11char_traitsIcEENS0_9allocatorIcEEEEii, symObjAddr: 0x34A4, symBinAddr: 0x1000064C0, symSize: 0x4C }
  - { offsetInCU: 0x18C84, offset: 0x18C84, size: 0x8, addend: 0x0, symName: __ZN5GraphC2Ev, symObjAddr: 0x34F0, symBinAddr: 0x10000650C, symSize: 0x2C }
  - { offsetInCU: 0x18CAF, offset: 0x18CAF, size: 0x8, addend: 0x0, symName: __ZNSt3__16vectorINS_4pairI7AddressNS0_INS1_IS2_dEENS_9allocatorIS3_EEEEEENS4_IS7_EEEC1B8ue170006Ev, symObjAddr: 0x351C, symBinAddr: 0x100006538, symSize: 0x2C }
  - { offsetInCU: 0x18CD8, offset: 0x18CD8, size: 0x8, addend: 0x0, symName: __ZNSt3__16vectorINS_4pairI7AddressNS0_INS1_IS2_dEENS_9allocatorIS3_EEEEEENS4_IS7_EEEC2B8ue170006Ev, symObjAddr: 0x3548, symBinAddr: 0x100006564, symSize: 0x4C }
  - { offsetInCU: 0x18D01, offset: 0x18D01, size: 0x8, addend: 0x0, symName: __ZNSt3__117__compressed_pairIPNS_4pairI7AddressNS_6vectorINS1_IS2_dEENS_9allocatorIS4_EEEEEENS5_IS8_EEEC1B8ue170006IDnNS_18__default_init_tagEEEOT_OT0_, symObjAddr: 0x3594, symBinAddr: 0x1000065B0, symSize: 0x3C }
  - { offsetInCU: 0x18D58, offset: 0x18D58, size: 0x8, addend: 0x0, symName: __ZNSt3__117__compressed_pairIPNS_4pairI7AddressNS_6vectorINS1_IS2_dEENS_9allocatorIS4_EEEEEENS5_IS8_EEEC2B8ue170006IDnNS_18__default_init_tagEEEOT_OT0_, symObjAddr: 0x35D0, symBinAddr: 0x1000065EC, symSize: 0x40 }
  - { offsetInCU: 0x18DAF, offset: 0x18DAF, size: 0x8, addend: 0x0, symName: __ZNSt3__122__compressed_pair_elemIPNS_4pairI7AddressNS_6vectorINS1_IS2_dEENS_9allocatorIS4_EEEEEELi0ELb0EEC2B8ue170006IDnvEEOT_, symObjAddr: 0x3610, symBinAddr: 0x10000662C, symSize: 0x1C }
  - { offsetInCU: 0x18DF0, offset: 0x18DF0, size: 0x8, addend: 0x0, symName: __ZNSt3__122__compressed_pair_elemINS_9allocatorINS_4pairI7AddressNS_6vectorINS2_IS3_dEENS1_IS5_EEEEEEEELi1ELb1EEC2B8ue170006ENS_18__default_init_tagE, symObjAddr: 0x362C, symBinAddr: 0x100006648, symSize: 0x2C }
  - { offsetInCU: 0x18E24, offset: 0x18E24, size: 0x8, addend: 0x0, symName: __ZNSt3__19allocatorINS_4pairI7AddressNS_6vectorINS1_IS2_dEENS0_IS4_EEEEEEEC2B8ue170006Ev, symObjAddr: 0x3658, symBinAddr: 0x100006674, symSize: 0x2C }
  - { offsetInCU: 0x18E4D, offset: 0x18E4D, size: 0x8, addend: 0x0, symName: __ZNSt3__116__non_trivial_ifILb1ENS_9allocatorINS_4pairI7AddressNS_6vectorINS2_IS3_dEENS1_IS5_EEEEEEEEEC2B8ue170006Ev, symObjAddr: 0x3684, symBinAddr: 0x1000066A0, symSize: 0x14 }
  - { offsetInCU: 0x18E76, offset: 0x18E76, size: 0x8, addend: 0x0, symName: __ZNKSt3__111__wrap_iterIPK7AddressE4baseB8ue170006Ev, symObjAddr: 0x36E0, symBinAddr: 0x1000066FC, symSize: 0x18 }
  - { offsetInCU: 0x18E9A, offset: 0x18E9A, size: 0x8, addend: 0x0, symName: __ZNSt3__16vectorINS_4pairI7AddressNS0_INS1_IS2_dEENS_9allocatorIS3_EEEEEENS4_IS7_EEE9push_backB8ue170006EOS7_, symObjAddr: 0x36F8, symBinAddr: 0x100006714, symSize: 0x6C }
  - { offsetInCU: 0x18ED0, offset: 0x18ED0, size: 0x8, addend: 0x0, symName: __ZNSt3__16vectorINS_4pairI7AddressdEENS_9allocatorIS3_EEEC1B8ue170006Ev, symObjAddr: 0x3764, symBinAddr: 0x100006780, symSize: 0x2C }
  - { offsetInCU: 0x18EF9, offset: 0x18EF9, size: 0x8, addend: 0x0, symName: __ZNSt3__14pairI7AddressNS_6vectorINS0_IS1_dEENS_9allocatorIS3_EEEEEC1B8ue170006ILb1ELPv0EEERKS1_RKS6_, symObjAddr: 0x3790, symBinAddr: 0x1000067AC, symSize: 0x3C }
  - { offsetInCU: 0x18F4E, offset: 0x18F4E, size: 0x8, addend: 0x0, symName: __ZNSt3__14pairI7AddressNS_6vectorINS0_IS1_dEENS_9allocatorIS3_EEEEED1Ev, symObjAddr: 0x37CC, symBinAddr: 0x1000067E8, symSize: 0x2C }
  - { offsetInCU: 0x18F79, offset: 0x18F79, size: 0x8, addend: 0x0, symName: __ZNSt3__16vectorINS_4pairI7AddressdEENS_9allocatorIS3_EEED1B8ue170006Ev, symObjAddr: 0x37F8, symBinAddr: 0x100006814, symSize: 0x2C }
  - { offsetInCU: 0x18FA2, offset: 0x18FA2, size: 0x8, addend: 0x0, symName: __ZNSt3__16vectorINS_4pairI7AddressNS0_INS1_IS2_dEENS_9allocatorIS3_EEEEEENS4_IS7_EEE9__end_capB8ue170006Ev, symObjAddr: 0x3824, symBinAddr: 0x100006840, symSize: 0x28 }
  - { offsetInCU: 0x18FC7, offset: 0x18FC7, size: 0x8, addend: 0x0, symName: __ZNSt3__16vectorINS_4pairI7AddressNS0_INS1_IS2_dEENS_9allocatorIS3_EEEEEENS4_IS7_EEE22__construct_one_at_endB8ue170006IJS7_EEEvDpOT_, symObjAddr: 0x384C, symBinAddr: 0x100006868, symSize: 0x90 }
  - { offsetInCU: 0x19014, offset: 0x19014, size: 0x8, addend: 0x0, symName: __ZNSt3__16vectorINS_4pairI7AddressNS0_INS1_IS2_dEENS_9allocatorIS3_EEEEEENS4_IS7_EEE21__push_back_slow_pathIS7_EEvOT_, symObjAddr: 0x38DC, symBinAddr: 0x1000068F8, symSize: 0xD8 }
  - { offsetInCU: 0x19071, offset: 0x19071, size: 0x8, addend: 0x0, symName: __ZNSt3__117__compressed_pairIPNS_4pairI7AddressNS_6vectorINS1_IS2_dEENS_9allocatorIS4_EEEEEENS5_IS8_EEE5firstB8ue170006Ev, symObjAddr: 0x39B4, symBinAddr: 0x1000069D0, symSize: 0x24 }
  - { offsetInCU: 0x19096, offset: 0x19096, size: 0x8, addend: 0x0, symName: __ZNSt3__122__compressed_pair_elemIPNS_4pairI7AddressNS_6vectorINS1_IS2_dEENS_9allocatorIS4_EEEEEELi0ELb0EE5__getB8ue170006Ev, symObjAddr: 0x39D8, symBinAddr: 0x1000069F4, symSize: 0x14 }
  - { offsetInCU: 0x190D4, offset: 0x190D4, size: 0x8, addend: 0x0, symName: __ZNSt3__16vectorINS_4pairI7AddressNS0_INS1_IS2_dEENS_9allocatorIS3_EEEEEENS4_IS7_EEE21_ConstructTransactionC1B8ue170006ERS9_m, symObjAddr: 0x39EC, symBinAddr: 0x100006A08, symSize: 0x3C }
  - { offsetInCU: 0x1911B, offset: 0x1911B, size: 0x8, addend: 0x0, symName: __ZNSt3__116allocator_traitsINS_9allocatorINS_4pairI7AddressNS_6vectorINS2_IS3_dEENS1_IS5_EEEEEEEEE9constructB8ue170006IS8_JS8_EvEEvRS9_PT_DpOT0_, symObjAddr: 0x3A28, symBinAddr: 0x100006A44, symSize: 0x34 }
  - { offsetInCU: 0x19172, offset: 0x19172, size: 0x8, addend: 0x0, symName: __ZNSt3__16vectorINS_4pairI7AddressNS0_INS1_IS2_dEENS_9allocatorIS3_EEEEEENS4_IS7_EEE7__allocB8ue170006Ev, symObjAddr: 0x3A5C, symBinAddr: 0x100006A78, symSize: 0x28 }
  - { offsetInCU: 0x19197, offset: 0x19197, size: 0x8, addend: 0x0, symName: __ZNSt3__16vectorINS_4pairI7AddressNS0_INS1_IS2_dEENS_9allocatorIS3_EEEEEENS4_IS7_EEE21_ConstructTransactionD1B8ue170006Ev, symObjAddr: 0x3A98, symBinAddr: 0x100006AB4, symSize: 0x2C }
  - { offsetInCU: 0x191C0, offset: 0x191C0, size: 0x8, addend: 0x0, symName: __ZNSt3__16vectorINS_4pairI7AddressNS0_INS1_IS2_dEENS_9allocatorIS3_EEEEEENS4_IS7_EEE21_ConstructTransactionC2B8ue170006ERS9_m, symObjAddr: 0x3AC4, symBinAddr: 0x100006AE0, symSize: 0x4C }
  - { offsetInCU: 0x19207, offset: 0x19207, size: 0x8, addend: 0x0, symName: __ZNSt3__19allocatorINS_4pairI7AddressNS_6vectorINS1_IS2_dEENS0_IS4_EEEEEEE9constructB8ue170006IS7_JS7_EEEvPT_DpOT0_, symObjAddr: 0x3B10, symBinAddr: 0x100006B2C, symSize: 0x30 }
  - { offsetInCU: 0x1925C, offset: 0x1925C, size: 0x8, addend: 0x0, symName: __ZNSt3__14pairI7AddressNS_6vectorINS0_IS1_dEENS_9allocatorIS3_EEEEEC1B8ue170006EOS7_, symObjAddr: 0x3B40, symBinAddr: 0x100006B5C, symSize: 0x34 }
  - { offsetInCU: 0x19290, offset: 0x19290, size: 0x8, addend: 0x0, symName: __ZNSt3__14pairI7AddressNS_6vectorINS0_IS1_dEENS_9allocatorIS3_EEEEEC2B8ue170006EOS7_, symObjAddr: 0x3B74, symBinAddr: 0x100006B90, symSize: 0x48 }
  - { offsetInCU: 0x192C4, offset: 0x192C4, size: 0x8, addend: 0x0, symName: __ZNSt3__16vectorINS_4pairI7AddressdEENS_9allocatorIS3_EEEC1B8ue170006EOS6_, symObjAddr: 0x3BBC, symBinAddr: 0x100006BD8, symSize: 0x34 }
  - { offsetInCU: 0x192FE, offset: 0x192FE, size: 0x8, addend: 0x0, symName: __ZNSt3__16vectorINS_4pairI7AddressdEENS_9allocatorIS3_EEEC2B8ue170006EOS6_, symObjAddr: 0x3BF0, symBinAddr: 0x100006C0C, symSize: 0xC4 }
  - { offsetInCU: 0x19338, offset: 0x19338, size: 0x8, addend: 0x0, symName: __ZNSt3__16vectorINS_4pairI7AddressdEENS_9allocatorIS3_EEE7__allocB8ue170006Ev, symObjAddr: 0x3CB4, symBinAddr: 0x100006CD0, symSize: 0x28 }
  - { offsetInCU: 0x19362, offset: 0x19362, size: 0x8, addend: 0x0, symName: __ZNSt3__117__compressed_pairIPNS_4pairI7AddressdEENS_9allocatorIS3_EEEC1B8ue170006IDnS6_EEOT_OT0_, symObjAddr: 0x3CDC, symBinAddr: 0x100006CF8, symSize: 0x3C }
  - { offsetInCU: 0x193B9, offset: 0x193B9, size: 0x8, addend: 0x0, symName: __ZNSt3__16vectorINS_4pairI7AddressdEENS_9allocatorIS3_EEE9__end_capB8ue170006Ev, symObjAddr: 0x3D18, symBinAddr: 0x100006D34, symSize: 0x28 }
  - { offsetInCU: 0x193DE, offset: 0x193DE, size: 0x8, addend: 0x0, symName: __ZNSt3__117__compressed_pairIPNS_4pairI7AddressdEENS_9allocatorIS3_EEE6secondB8ue170006Ev, symObjAddr: 0x3D40, symBinAddr: 0x100006D5C, symSize: 0x24 }
  - { offsetInCU: 0x19403, offset: 0x19403, size: 0x8, addend: 0x0, symName: __ZNSt3__122__compressed_pair_elemINS_9allocatorINS_4pairI7AddressdEEEELi1ELb1EE5__getB8ue170006Ev, symObjAddr: 0x3D64, symBinAddr: 0x100006D80, symSize: 0x14 }
  - { offsetInCU: 0x19428, offset: 0x19428, size: 0x8, addend: 0x0, symName: __ZNSt3__117__compressed_pairIPNS_4pairI7AddressdEENS_9allocatorIS3_EEEC2B8ue170006IDnS6_EEOT_OT0_, symObjAddr: 0x3D78, symBinAddr: 0x100006D94, symSize: 0x44 }
  - { offsetInCU: 0x1947F, offset: 0x1947F, size: 0x8, addend: 0x0, symName: __ZNSt3__122__compressed_pair_elemIPNS_4pairI7AddressdEELi0ELb0EEC2B8ue170006IDnvEEOT_, symObjAddr: 0x3DBC, symBinAddr: 0x100006DD8, symSize: 0x1C }
  - { offsetInCU: 0x194C0, offset: 0x194C0, size: 0x8, addend: 0x0, symName: __ZNSt3__122__compressed_pair_elemINS_9allocatorINS_4pairI7AddressdEEEELi1ELb1EEC2B8ue170006IS5_vEEOT_, symObjAddr: 0x3DD8, symBinAddr: 0x100006DF4, symSize: 0x18 }
  - { offsetInCU: 0x19501, offset: 0x19501, size: 0x8, addend: 0x0, symName: __ZNSt3__117__compressed_pairIPNS_4pairI7AddressdEENS_9allocatorIS3_EEE5firstB8ue170006Ev, symObjAddr: 0x3DF0, symBinAddr: 0x100006E0C, symSize: 0x24 }
  - { offsetInCU: 0x19526, offset: 0x19526, size: 0x8, addend: 0x0, symName: __ZNSt3__122__compressed_pair_elemIPNS_4pairI7AddressdEELi0ELb0EE5__getB8ue170006Ev, symObjAddr: 0x3E14, symBinAddr: 0x100006E30, symSize: 0x14 }
  - { offsetInCU: 0x1954B, offset: 0x1954B, size: 0x8, addend: 0x0, symName: __ZNSt3__117__compressed_pairIPNS_4pairI7AddressNS_6vectorINS1_IS2_dEENS_9allocatorIS4_EEEEEENS5_IS8_EEE6secondB8ue170006Ev, symObjAddr: 0x3E28, symBinAddr: 0x100006E44, symSize: 0x24 }
  - { offsetInCU: 0x19570, offset: 0x19570, size: 0x8, addend: 0x0, symName: __ZNSt3__122__compressed_pair_elemINS_9allocatorINS_4pairI7AddressNS_6vectorINS2_IS3_dEENS1_IS5_EEEEEEEELi1ELb1EE5__getB8ue170006Ev, symObjAddr: 0x3E4C, symBinAddr: 0x100006E68, symSize: 0x14 }
  - { offsetInCU: 0x19595, offset: 0x19595, size: 0x8, addend: 0x0, symName: __ZNSt3__16vectorINS_4pairI7AddressNS0_INS1_IS2_dEENS_9allocatorIS3_EEEEEENS4_IS7_EEE21_ConstructTransactionD2B8ue170006Ev, symObjAddr: 0x3E60, symBinAddr: 0x100006E7C, symSize: 0x20 }
  - { offsetInCU: 0x195BD, offset: 0x195BD, size: 0x8, addend: 0x0, symName: __ZNKSt3__16vectorINS_4pairI7AddressNS0_INS1_IS2_dEENS_9allocatorIS3_EEEEEENS4_IS7_EEE11__recommendB8ue170006Em, symObjAddr: 0x3E80, symBinAddr: 0x100006E9C, symSize: 0xB4 }
  - { offsetInCU: 0x19611, offset: 0x19611, size: 0x8, addend: 0x0, symName: __ZNKSt3__16vectorINS_4pairI7AddressNS0_INS1_IS2_dEENS_9allocatorIS3_EEEEEENS4_IS7_EEE4sizeB8ue170006Ev, symObjAddr: 0x3F34, symBinAddr: 0x100006F50, symSize: 0x28 }
  - { offsetInCU: 0x19636, offset: 0x19636, size: 0x8, addend: 0x0, symName: __ZNSt3__114__split_bufferINS_4pairI7AddressNS_6vectorINS1_IS2_dEENS_9allocatorIS4_EEEEEERNS5_IS8_EEEC1EmmSA_, symObjAddr: 0x3F5C, symBinAddr: 0x100006F78, symSize: 0x44 }
  - { offsetInCU: 0x1968B, offset: 0x1968B, size: 0x8, addend: 0x0, symName: __ZNSt3__114__split_bufferINS_4pairI7AddressNS_6vectorINS1_IS2_dEENS_9allocatorIS4_EEEEEERNS5_IS8_EEED1Ev, symObjAddr: 0x40B0, symBinAddr: 0x1000070CC, symSize: 0x2C }
  - { offsetInCU: 0x196B5, offset: 0x196B5, size: 0x8, addend: 0x0, symName: __ZNKSt3__16vectorINS_4pairI7AddressNS0_INS1_IS2_dEENS_9allocatorIS3_EEEEEENS4_IS7_EEE8max_sizeEv, symObjAddr: 0x40DC, symBinAddr: 0x1000070F8, symSize: 0x60 }
  - { offsetInCU: 0x196DC, offset: 0x196DC, size: 0x8, addend: 0x0, symName: __ZNKSt3__16vectorINS_4pairI7AddressNS0_INS1_IS2_dEENS_9allocatorIS3_EEEEEENS4_IS7_EEE20__throw_length_errorB8ue170006Ev, symObjAddr: 0x413C, symBinAddr: 0x100007158, symSize: 0x1C }
  - { offsetInCU: 0x19701, offset: 0x19701, size: 0x8, addend: 0x0, symName: __ZNKSt3__16vectorINS_4pairI7AddressNS0_INS1_IS2_dEENS_9allocatorIS3_EEEEEENS4_IS7_EEE8capacityB8ue170006Ev, symObjAddr: 0x4158, symBinAddr: 0x100007174, symSize: 0x40 }
  - { offsetInCU: 0x19730, offset: 0x19730, size: 0x8, addend: 0x0, symName: __ZNSt3__116allocator_traitsINS_9allocatorINS_4pairI7AddressNS_6vectorINS2_IS3_dEENS1_IS5_EEEEEEEEE8max_sizeB8ue170006IS9_vEEmRKS9_, symObjAddr: 0x4198, symBinAddr: 0x1000071B4, symSize: 0x24 }
  - { offsetInCU: 0x1975E, offset: 0x1975E, size: 0x8, addend: 0x0, symName: __ZNKSt3__16vectorINS_4pairI7AddressNS0_INS1_IS2_dEENS_9allocatorIS3_EEEEEENS4_IS7_EEE7__allocB8ue170006Ev, symObjAddr: 0x41BC, symBinAddr: 0x1000071D8, symSize: 0x28 }
  - { offsetInCU: 0x19783, offset: 0x19783, size: 0x8, addend: 0x0, symName: __ZNKSt3__19allocatorINS_4pairI7AddressNS_6vectorINS1_IS2_dEENS0_IS4_EEEEEEE8max_sizeB8ue170006Ev, symObjAddr: 0x41E4, symBinAddr: 0x100007200, symSize: 0x20 }
  - { offsetInCU: 0x197A8, offset: 0x197A8, size: 0x8, addend: 0x0, symName: __ZNKSt3__117__compressed_pairIPNS_4pairI7AddressNS_6vectorINS1_IS2_dEENS_9allocatorIS4_EEEEEENS5_IS8_EEE6secondB8ue170006Ev, symObjAddr: 0x4204, symBinAddr: 0x100007220, symSize: 0x24 }
  - { offsetInCU: 0x197CD, offset: 0x197CD, size: 0x8, addend: 0x0, symName: __ZNKSt3__122__compressed_pair_elemINS_9allocatorINS_4pairI7AddressNS_6vectorINS2_IS3_dEENS1_IS5_EEEEEEEELi1ELb1EE5__getB8ue170006Ev, symObjAddr: 0x4228, symBinAddr: 0x100007244, symSize: 0x14 }
  - { offsetInCU: 0x197F2, offset: 0x197F2, size: 0x8, addend: 0x0, symName: __ZNKSt3__16vectorINS_4pairI7AddressNS0_INS1_IS2_dEENS_9allocatorIS3_EEEEEENS4_IS7_EEE9__end_capB8ue170006Ev, symObjAddr: 0x423C, symBinAddr: 0x100007258, symSize: 0x28 }
  - { offsetInCU: 0x19817, offset: 0x19817, size: 0x8, addend: 0x0, symName: __ZNKSt3__117__compressed_pairIPNS_4pairI7AddressNS_6vectorINS1_IS2_dEENS_9allocatorIS4_EEEEEENS5_IS8_EEE5firstB8ue170006Ev, symObjAddr: 0x4264, symBinAddr: 0x100007280, symSize: 0x24 }
  - { offsetInCU: 0x1983C, offset: 0x1983C, size: 0x8, addend: 0x0, symName: __ZNKSt3__122__compressed_pair_elemIPNS_4pairI7AddressNS_6vectorINS1_IS2_dEENS_9allocatorIS4_EEEEEELi0ELb0EE5__getB8ue170006Ev, symObjAddr: 0x4288, symBinAddr: 0x1000072A4, symSize: 0x14 }
  - { offsetInCU: 0x19861, offset: 0x19861, size: 0x8, addend: 0x0, symName: __ZNSt3__114__split_bufferINS_4pairI7AddressNS_6vectorINS1_IS2_dEENS_9allocatorIS4_EEEEEERNS5_IS8_EEEC2EmmSA_, symObjAddr: 0x429C, symBinAddr: 0x1000072B8, symSize: 0xE0 }
  - { offsetInCU: 0x198D4, offset: 0x198D4, size: 0x8, addend: 0x0, symName: __ZNSt3__117__compressed_pairIPNS_4pairI7AddressNS_6vectorINS1_IS2_dEENS_9allocatorIS4_EEEEEERNS5_IS8_EEEC1B8ue170006IDnSB_EEOT_OT0_, symObjAddr: 0x437C, symBinAddr: 0x100007398, symSize: 0x3C }
  - { offsetInCU: 0x1992B, offset: 0x1992B, size: 0x8, addend: 0x0, symName: __ZNSt3__114__split_bufferINS_4pairI7AddressNS_6vectorINS1_IS2_dEENS_9allocatorIS4_EEEEEERNS5_IS8_EEE7__allocB8ue170006Ev, symObjAddr: 0x43F8, symBinAddr: 0x100007414, symSize: 0x28 }
  - { offsetInCU: 0x19950, offset: 0x19950, size: 0x8, addend: 0x0, symName: __ZNSt3__114__split_bufferINS_4pairI7AddressNS_6vectorINS1_IS2_dEENS_9allocatorIS4_EEEEEERNS5_IS8_EEE9__end_capB8ue170006Ev, symObjAddr: 0x4420, symBinAddr: 0x10000743C, symSize: 0x28 }
  - { offsetInCU: 0x19975, offset: 0x19975, size: 0x8, addend: 0x0, symName: __ZNSt3__117__compressed_pairIPNS_4pairI7AddressNS_6vectorINS1_IS2_dEENS_9allocatorIS4_EEEEEERNS5_IS8_EEEC2B8ue170006IDnSB_EEOT_OT0_, symObjAddr: 0x4448, symBinAddr: 0x100007464, symSize: 0x48 }
  - { offsetInCU: 0x199CC, offset: 0x199CC, size: 0x8, addend: 0x0, symName: __ZNSt3__122__compressed_pair_elemIRNS_9allocatorINS_4pairI7AddressNS_6vectorINS2_IS3_dEENS1_IS5_EEEEEEEELi1ELb0EEC2B8ue170006ISA_vEEOT_, symObjAddr: 0x4490, symBinAddr: 0x1000074AC, symSize: 0x20 }
  - { offsetInCU: 0x19A0D, offset: 0x19A0D, size: 0x8, addend: 0x0, symName: __ZNSt3__19allocatorINS_4pairI7AddressNS_6vectorINS1_IS2_dEENS0_IS4_EEEEEEE8allocateB8ue170006Em, symObjAddr: 0x44B0, symBinAddr: 0x1000074CC, symSize: 0x5C }
  - { offsetInCU: 0x19A40, offset: 0x19A40, size: 0x8, addend: 0x0, symName: __ZNSt3__117__compressed_pairIPNS_4pairI7AddressNS_6vectorINS1_IS2_dEENS_9allocatorIS4_EEEEEERNS5_IS8_EEE6secondB8ue170006Ev, symObjAddr: 0x450C, symBinAddr: 0x100007528, symSize: 0x28 }
  - { offsetInCU: 0x19A65, offset: 0x19A65, size: 0x8, addend: 0x0, symName: __ZNSt3__122__compressed_pair_elemIRNS_9allocatorINS_4pairI7AddressNS_6vectorINS2_IS3_dEENS1_IS5_EEEEEEEELi1ELb0EE5__getB8ue170006Ev, symObjAddr: 0x4534, symBinAddr: 0x100007550, symSize: 0x18 }
  - { offsetInCU: 0x19A8A, offset: 0x19A8A, size: 0x8, addend: 0x0, symName: __ZNSt3__117__compressed_pairIPNS_4pairI7AddressNS_6vectorINS1_IS2_dEENS_9allocatorIS4_EEEEEERNS5_IS8_EEE5firstB8ue170006Ev, symObjAddr: 0x454C, symBinAddr: 0x100007568, symSize: 0x24 }
  - { offsetInCU: 0x19AAF, offset: 0x19AAF, size: 0x8, addend: 0x0, symName: __ZNKSt3__16vectorINS_4pairI7AddressNS0_INS1_IS2_dEENS_9allocatorIS3_EEEEEENS4_IS7_EEE17__annotate_deleteB8ue170006Ev, symObjAddr: 0x4570, symBinAddr: 0x10000758C, symSize: 0xD4 }
  - { offsetInCU: 0x19AD4, offset: 0x19AD4, size: 0x8, addend: 0x0, symName: __ZNSt3__116reverse_iteratorIPNS_4pairI7AddressNS_6vectorINS1_IS2_dEENS_9allocatorIS4_EEEEEEEC1B8ue170006ES9_, symObjAddr: 0x4770, symBinAddr: 0x10000778C, symSize: 0x34 }
  - { offsetInCU: 0x19B0B, offset: 0x19B0B, size: 0x8, addend: 0x0, symName: __ZNKSt3__116reverse_iteratorIPNS_4pairI7AddressNS_6vectorINS1_IS2_dEENS_9allocatorIS4_EEEEEEE4baseB8ue170006Ev, symObjAddr: 0x47A4, symBinAddr: 0x1000077C0, symSize: 0x18 }
  - { offsetInCU: 0x19B30, offset: 0x19B30, size: 0x8, addend: 0x0, symName: __ZNKSt3__16vectorINS_4pairI7AddressNS0_INS1_IS2_dEENS_9allocatorIS3_EEEEEENS4_IS7_EEE14__annotate_newB8ue170006Em, symObjAddr: 0x47F8, symBinAddr: 0x100007814, symSize: 0xC8 }
  - { offsetInCU: 0x19B64, offset: 0x19B64, size: 0x8, addend: 0x0, symName: __ZNKSt3__16vectorINS_4pairI7AddressNS0_INS1_IS2_dEENS_9allocatorIS3_EEEEEENS4_IS7_EEE31__annotate_contiguous_containerB8ue170006EPKvSB_SB_SB_, symObjAddr: 0x48C0, symBinAddr: 0x1000078DC, symSize: 0x20 }
  - { offsetInCU: 0x19BB9, offset: 0x19BB9, size: 0x8, addend: 0x0, symName: __ZNKSt3__16vectorINS_4pairI7AddressNS0_INS1_IS2_dEENS_9allocatorIS3_EEEEEENS4_IS7_EEE4dataB8ue170006Ev, symObjAddr: 0x48E0, symBinAddr: 0x1000078FC, symSize: 0x28 }
  - { offsetInCU: 0x19BDE, offset: 0x19BDE, size: 0x8, addend: 0x0, symName: __ZNSt3__129_AllocatorDestroyRangeReverseINS_9allocatorINS_4pairI7AddressNS_6vectorINS2_IS3_dEENS1_IS5_EEEEEEEENS_16reverse_iteratorIPS8_EEEC1B8ue170006ERS9_RSC_SF_, symObjAddr: 0x4954, symBinAddr: 0x100007970, symSize: 0x44 }
  - { offsetInCU: 0x19C34, offset: 0x19C34, size: 0x8, addend: 0x0, symName: __ZNKSt3__116reverse_iteratorIPNS_4pairI7AddressNS_6vectorINS1_IS2_dEENS_9allocatorIS4_EEEEEEEdeB8ue170006Ev, symObjAddr: 0x4A04, symBinAddr: 0x100007A20, symSize: 0x28 }
  - { offsetInCU: 0x19C67, offset: 0x19C67, size: 0x8, addend: 0x0, symName: __ZNSt3__116reverse_iteratorIPNS_4pairI7AddressNS_6vectorINS1_IS2_dEENS_9allocatorIS4_EEEEEEEppB8ue170006Ev, symObjAddr: 0x4A2C, symBinAddr: 0x100007A48, symSize: 0x20 }
  - { offsetInCU: 0x19C8C, offset: 0x19C8C, size: 0x8, addend: 0x0, symName: __ZNSt3__128__exception_guard_exceptionsINS_29_AllocatorDestroyRangeReverseINS_9allocatorINS_4pairI7AddressNS_6vectorINS3_IS4_dEENS2_IS6_EEEEEEEENS_16reverse_iteratorIPS9_EEEEE10__completeB8ue170006Ev, symObjAddr: 0x4A4C, symBinAddr: 0x100007A68, symSize: 0x1C }
  - { offsetInCU: 0x19CB1, offset: 0x19CB1, size: 0x8, addend: 0x0, symName: __ZNSt3__128__exception_guard_exceptionsINS_29_AllocatorDestroyRangeReverseINS_9allocatorINS_4pairI7AddressNS_6vectorINS3_IS4_dEENS2_IS6_EEEEEEEENS_16reverse_iteratorIPS9_EEEEED1B8ue170006Ev, symObjAddr: 0x4A68, symBinAddr: 0x100007A84, symSize: 0x2C }
  - { offsetInCU: 0x19CDA, offset: 0x19CDA, size: 0x8, addend: 0x0, symName: __ZNSt3__128__exception_guard_exceptionsINS_29_AllocatorDestroyRangeReverseINS_9allocatorINS_4pairI7AddressNS_6vectorINS3_IS4_dEENS2_IS6_EEEEEEEENS_16reverse_iteratorIPS9_EEEEEC1B8ue170006ESE_, symObjAddr: 0x4A94, symBinAddr: 0x100007AB0, symSize: 0x34 }
  - { offsetInCU: 0x19D12, offset: 0x19D12, size: 0x8, addend: 0x0, symName: __ZNSt3__128__exception_guard_exceptionsINS_29_AllocatorDestroyRangeReverseINS_9allocatorINS_4pairI7AddressNS_6vectorINS3_IS4_dEENS2_IS6_EEEEEEEENS_16reverse_iteratorIPS9_EEEEEC2B8ue170006ESE_, symObjAddr: 0x4AC8, symBinAddr: 0x100007AE4, symSize: 0x30 }
  - { offsetInCU: 0x19D4A, offset: 0x19D4A, size: 0x8, addend: 0x0, symName: __ZNSt3__129_AllocatorDestroyRangeReverseINS_9allocatorINS_4pairI7AddressNS_6vectorINS2_IS3_dEENS1_IS5_EEEEEEEENS_16reverse_iteratorIPS8_EEEC2B8ue170006ERS9_RSC_SF_, symObjAddr: 0x4AF8, symBinAddr: 0x100007B14, symSize: 0x38 }
  - { offsetInCU: 0x19DA5, offset: 0x19DA5, size: 0x8, addend: 0x0, symName: __ZNSt3__119__to_address_helperINS_16reverse_iteratorIPNS_4pairI7AddressNS_6vectorINS2_IS3_dEENS_9allocatorIS5_EEEEEEEEvE6__callB8ue170006ERKSB_, symObjAddr: 0x4B30, symBinAddr: 0x100007B4C, symSize: 0x38 }
  - { offsetInCU: 0x19DC8, offset: 0x19DC8, size: 0x8, addend: 0x0, symName: __ZNKSt3__116reverse_iteratorIPNS_4pairI7AddressNS_6vectorINS1_IS2_dEENS_9allocatorIS4_EEEEEEEptB8ue170006Ev, symObjAddr: 0x4B68, symBinAddr: 0x100007B84, symSize: 0x24 }
  - { offsetInCU: 0x19DED, offset: 0x19DED, size: 0x8, addend: 0x0, symName: __ZNSt3__128__exception_guard_exceptionsINS_29_AllocatorDestroyRangeReverseINS_9allocatorINS_4pairI7AddressNS_6vectorINS3_IS4_dEENS2_IS6_EEEEEEEENS_16reverse_iteratorIPS9_EEEEED2B8ue170006Ev, symObjAddr: 0x4B8C, symBinAddr: 0x100007BA8, symSize: 0x50 }
  - { offsetInCU: 0x19E16, offset: 0x19E16, size: 0x8, addend: 0x0, symName: __ZNKSt3__129_AllocatorDestroyRangeReverseINS_9allocatorINS_4pairI7AddressNS_6vectorINS2_IS3_dEENS1_IS5_EEEEEEEENS_16reverse_iteratorIPS8_EEEclB8ue170006Ev, symObjAddr: 0x4BDC, symBinAddr: 0x100007BF8, symSize: 0xB4 }
  - { offsetInCU: 0x19E3C, offset: 0x19E3C, size: 0x8, addend: 0x0, symName: __ZNSt3__116reverse_iteratorINS0_IPNS_4pairI7AddressNS_6vectorINS1_IS2_dEENS_9allocatorIS4_EEEEEEEEEC1B8ue170006ESA_, symObjAddr: 0x4D00, symBinAddr: 0x100007D1C, symSize: 0x3C }
  - { offsetInCU: 0x19E73, offset: 0x19E73, size: 0x8, addend: 0x0, symName: __ZNSt3__116allocator_traitsINS_9allocatorINS_4pairI7AddressNS_6vectorINS2_IS3_dEENS1_IS5_EEEEEEEEE7destroyB8ue170006IS8_vEEvRS9_PT_, symObjAddr: 0x4D9C, symBinAddr: 0x100007DB8, symSize: 0x2C }
  - { offsetInCU: 0x19EB0, offset: 0x19EB0, size: 0x8, addend: 0x0, symName: __ZNSt3__116reverse_iteratorINS0_IPNS_4pairI7AddressNS_6vectorINS1_IS2_dEENS_9allocatorIS4_EEEEEEEEEppB8ue170006Ev, symObjAddr: 0x4DEC, symBinAddr: 0x100007E08, symSize: 0x30 }
  - { offsetInCU: 0x19ED5, offset: 0x19ED5, size: 0x8, addend: 0x0, symName: __ZNKSt3__116reverse_iteratorINS0_IPNS_4pairI7AddressNS_6vectorINS1_IS2_dEENS_9allocatorIS4_EEEEEEEEE4baseB8ue170006Ev, symObjAddr: 0x4E1C, symBinAddr: 0x100007E38, symSize: 0x24 }
  - { offsetInCU: 0x19EFA, offset: 0x19EFA, size: 0x8, addend: 0x0, symName: __ZNSt3__19allocatorINS_4pairI7AddressNS_6vectorINS1_IS2_dEENS0_IS4_EEEEEEE7destroyB8ue170006EPS7_, symObjAddr: 0x4E40, symBinAddr: 0x100007E5C, symSize: 0x28 }
  - { offsetInCU: 0x19F32, offset: 0x19F32, size: 0x8, addend: 0x0, symName: __ZNSt3__119__to_address_helperINS_16reverse_iteratorINS1_IPNS_4pairI7AddressNS_6vectorINS2_IS3_dEENS_9allocatorIS5_EEEEEEEEEEvE6__callB8ue170006ERKSC_, symObjAddr: 0x4E68, symBinAddr: 0x100007E84, symSize: 0x38 }
  - { offsetInCU: 0x19F55, offset: 0x19F55, size: 0x8, addend: 0x0, symName: __ZNKSt3__116reverse_iteratorINS0_IPNS_4pairI7AddressNS_6vectorINS1_IS2_dEENS_9allocatorIS4_EEEEEEEEEptB8ue170006Ev, symObjAddr: 0x4EA0, symBinAddr: 0x100007EBC, symSize: 0x24 }
  - { offsetInCU: 0x19F7A, offset: 0x19F7A, size: 0x8, addend: 0x0, symName: __ZNKSt3__116reverse_iteratorINS0_IPNS_4pairI7AddressNS_6vectorINS1_IS2_dEENS_9allocatorIS4_EEEEEEEEEdeB8ue170006Ev, symObjAddr: 0x4EC4, symBinAddr: 0x100007EE0, symSize: 0x34 }
  - { offsetInCU: 0x19FAD, offset: 0x19FAD, size: 0x8, addend: 0x0, symName: __ZNSt3__116reverse_iteratorIPNS_4pairI7AddressNS_6vectorINS1_IS2_dEENS_9allocatorIS4_EEEEEEEmmB8ue170006Ev, symObjAddr: 0x4EF8, symBinAddr: 0x100007F14, symSize: 0x20 }
  - { offsetInCU: 0x19FD2, offset: 0x19FD2, size: 0x8, addend: 0x0, symName: __ZNSt3__116reverse_iteratorINS0_IPNS_4pairI7AddressNS_6vectorINS1_IS2_dEENS_9allocatorIS4_EEEEEEEEEC2B8ue170006ESA_, symObjAddr: 0x4F18, symBinAddr: 0x100007F34, symSize: 0x2C }
  - { offsetInCU: 0x1A009, offset: 0x1A009, size: 0x8, addend: 0x0, symName: __ZNSt3__116reverse_iteratorIPNS_4pairI7AddressNS_6vectorINS1_IS2_dEENS_9allocatorIS4_EEEEEEEC2B8ue170006ES9_, symObjAddr: 0x4F44, symBinAddr: 0x100007F60, symSize: 0x28 }
  - { offsetInCU: 0x1A040, offset: 0x1A040, size: 0x8, addend: 0x0, symName: __ZNSt3__114__split_bufferINS_4pairI7AddressNS_6vectorINS1_IS2_dEENS_9allocatorIS4_EEEEEERNS5_IS8_EEED2Ev, symObjAddr: 0x4F6C, symBinAddr: 0x100007F88, symSize: 0x8C }
  - { offsetInCU: 0x1A06B, offset: 0x1A06B, size: 0x8, addend: 0x0, symName: __ZNSt3__114__split_bufferINS_4pairI7AddressNS_6vectorINS1_IS2_dEENS_9allocatorIS4_EEEEEERNS5_IS8_EEE5clearB8ue170006Ev, symObjAddr: 0x4FF8, symBinAddr: 0x100008014, symSize: 0x28 }
  - { offsetInCU: 0x1A090, offset: 0x1A090, size: 0x8, addend: 0x0, symName: __ZNSt3__116allocator_traitsINS_9allocatorINS_4pairI7AddressNS_6vectorINS2_IS3_dEENS1_IS5_EEEEEEEEE10deallocateB8ue170006ERS9_PS8_m, symObjAddr: 0x5020, symBinAddr: 0x10000803C, symSize: 0x34 }
  - { offsetInCU: 0x1A0D2, offset: 0x1A0D2, size: 0x8, addend: 0x0, symName: __ZNKSt3__114__split_bufferINS_4pairI7AddressNS_6vectorINS1_IS2_dEENS_9allocatorIS4_EEEEEERNS5_IS8_EEE8capacityB8ue170006Ev, symObjAddr: 0x5054, symBinAddr: 0x100008070, symSize: 0x40 }
  - { offsetInCU: 0x1A0F7, offset: 0x1A0F7, size: 0x8, addend: 0x0, symName: __ZNSt3__114__split_bufferINS_4pairI7AddressNS_6vectorINS1_IS2_dEENS_9allocatorIS4_EEEEEERNS5_IS8_EEE17__destruct_at_endB8ue170006EPS8_, symObjAddr: 0x5094, symBinAddr: 0x1000080B0, symSize: 0x2C }
  - { offsetInCU: 0x1A129, offset: 0x1A129, size: 0x8, addend: 0x0, symName: __ZNSt3__114__split_bufferINS_4pairI7AddressNS_6vectorINS1_IS2_dEENS_9allocatorIS4_EEEEEERNS5_IS8_EEE17__destruct_at_endB8ue170006EPS8_NS_17integral_constantIbLb0EEE, symObjAddr: 0x50C0, symBinAddr: 0x1000080DC, symSize: 0x80 }
  - { offsetInCU: 0x1A169, offset: 0x1A169, size: 0x8, addend: 0x0, symName: __ZNSt3__19allocatorINS_4pairI7AddressNS_6vectorINS1_IS2_dEENS0_IS4_EEEEEEE10deallocateB8ue170006EPS7_m, symObjAddr: 0x5140, symBinAddr: 0x10000815C, symSize: 0x44 }
  - { offsetInCU: 0x1A1AA, offset: 0x1A1AA, size: 0x8, addend: 0x0, symName: __ZNKSt3__114__split_bufferINS_4pairI7AddressNS_6vectorINS1_IS2_dEENS_9allocatorIS4_EEEEEERNS5_IS8_EEE9__end_capB8ue170006Ev, symObjAddr: 0x5184, symBinAddr: 0x1000081A0, symSize: 0x28 }
  - { offsetInCU: 0x1A1CF, offset: 0x1A1CF, size: 0x8, addend: 0x0, symName: __ZNKSt3__117__compressed_pairIPNS_4pairI7AddressNS_6vectorINS1_IS2_dEENS_9allocatorIS4_EEEEEERNS5_IS8_EEE5firstB8ue170006Ev, symObjAddr: 0x51AC, symBinAddr: 0x1000081C8, symSize: 0x24 }
  - { offsetInCU: 0x1A1F4, offset: 0x1A1F4, size: 0x8, addend: 0x0, symName: __ZNSt3__16vectorINS_4pairI7AddressdEENS_9allocatorIS3_EEEC2B8ue170006Ev, symObjAddr: 0x51D0, symBinAddr: 0x1000081EC, symSize: 0x4C }
  - { offsetInCU: 0x1A21D, offset: 0x1A21D, size: 0x8, addend: 0x0, symName: __ZNSt3__117__compressed_pairIPNS_4pairI7AddressdEENS_9allocatorIS3_EEEC1B8ue170006IDnNS_18__default_init_tagEEEOT_OT0_, symObjAddr: 0x521C, symBinAddr: 0x100008238, symSize: 0x3C }
  - { offsetInCU: 0x1A274, offset: 0x1A274, size: 0x8, addend: 0x0, symName: __ZNSt3__117__compressed_pairIPNS_4pairI7AddressdEENS_9allocatorIS3_EEEC2B8ue170006IDnNS_18__default_init_tagEEEOT_OT0_, symObjAddr: 0x5258, symBinAddr: 0x100008274, symSize: 0x40 }
  - { offsetInCU: 0x1A2CB, offset: 0x1A2CB, size: 0x8, addend: 0x0, symName: __ZNSt3__122__compressed_pair_elemINS_9allocatorINS_4pairI7AddressdEEEELi1ELb1EEC2B8ue170006ENS_18__default_init_tagE, symObjAddr: 0x5298, symBinAddr: 0x1000082B4, symSize: 0x2C }
  - { offsetInCU: 0x1A2FF, offset: 0x1A2FF, size: 0x8, addend: 0x0, symName: __ZNSt3__19allocatorINS_4pairI7AddressdEEEC2B8ue170006Ev, symObjAddr: 0x52C4, symBinAddr: 0x1000082E0, symSize: 0x2C }
  - { offsetInCU: 0x1A328, offset: 0x1A328, size: 0x8, addend: 0x0, symName: __ZNSt3__116__non_trivial_ifILb1ENS_9allocatorINS_4pairI7AddressdEEEEEC2B8ue170006Ev, symObjAddr: 0x52F0, symBinAddr: 0x10000830C, symSize: 0x14 }
  - { offsetInCU: 0x1A351, offset: 0x1A351, size: 0x8, addend: 0x0, symName: __ZNSt3__14pairI7AddressNS_6vectorINS0_IS1_dEENS_9allocatorIS3_EEEEEC2B8ue170006ILb1ELPv0EEERKS1_RKS6_, symObjAddr: 0x5304, symBinAddr: 0x100008320, symSize: 0x70 }
  - { offsetInCU: 0x1A3A6, offset: 0x1A3A6, size: 0x8, addend: 0x0, symName: __ZNSt3__16vectorINS_4pairI7AddressdEENS_9allocatorIS3_EEEC1ERKS6_, symObjAddr: 0x5374, symBinAddr: 0x100008390, symSize: 0x34 }
  - { offsetInCU: 0x1A3E0, offset: 0x1A3E0, size: 0x8, addend: 0x0, symName: __ZNSt3__16vectorINS_4pairI7AddressdEENS_9allocatorIS3_EEEC2ERKS6_, symObjAddr: 0x53A8, symBinAddr: 0x1000083C4, symSize: 0x94 }
  - { offsetInCU: 0x1A424, offset: 0x1A424, size: 0x8, addend: 0x0, symName: __ZNSt3__116allocator_traitsINS_9allocatorINS_4pairI7AddressdEEEEE37select_on_container_copy_constructionB8ue170006IS5_vvEES5_RKS5_, symObjAddr: 0x543C, symBinAddr: 0x100008458, symSize: 0x10 }
  - { offsetInCU: 0x1A453, offset: 0x1A453, size: 0x8, addend: 0x0, symName: __ZNKSt3__16vectorINS_4pairI7AddressdEENS_9allocatorIS3_EEE7__allocB8ue170006Ev, symObjAddr: 0x544C, symBinAddr: 0x100008468, symSize: 0x28 }
  - { offsetInCU: 0x1A478, offset: 0x1A478, size: 0x8, addend: 0x0, symName: __ZNSt3__16vectorINS_4pairI7AddressdEENS_9allocatorIS3_EEE16__init_with_sizeB8ue170006IPS3_S8_EEvT_T0_m, symObjAddr: 0x5474, symBinAddr: 0x100008490, symSize: 0xB8 }
  - { offsetInCU: 0x1A4EB, offset: 0x1A4EB, size: 0x8, addend: 0x0, symName: __ZNKSt3__16vectorINS_4pairI7AddressdEENS_9allocatorIS3_EEE4sizeB8ue170006Ev, symObjAddr: 0x552C, symBinAddr: 0x100008548, symSize: 0x28 }
  - { offsetInCU: 0x1A510, offset: 0x1A510, size: 0x8, addend: 0x0, symName: __ZNKSt3__117__compressed_pairIPNS_4pairI7AddressdEENS_9allocatorIS3_EEE6secondB8ue170006Ev, symObjAddr: 0x5554, symBinAddr: 0x100008570, symSize: 0x24 }
  - { offsetInCU: 0x1A535, offset: 0x1A535, size: 0x8, addend: 0x0, symName: __ZNKSt3__122__compressed_pair_elemINS_9allocatorINS_4pairI7AddressdEEEELi1ELb1EE5__getB8ue170006Ev, symObjAddr: 0x5578, symBinAddr: 0x100008594, symSize: 0x14 }
  - { offsetInCU: 0x1A55A, offset: 0x1A55A, size: 0x8, addend: 0x0, symName: __ZNSt3__16vectorINS_4pairI7AddressdEENS_9allocatorIS3_EEE16__destroy_vectorC1B8ue170006ERS6_, symObjAddr: 0x55CC, symBinAddr: 0x1000085E8, symSize: 0x34 }
  - { offsetInCU: 0x1A592, offset: 0x1A592, size: 0x8, addend: 0x0, symName: __ZNSt3__16vectorINS_4pairI7AddressdEENS_9allocatorIS3_EEE11__vallocateB8ue170006Em, symObjAddr: 0x5600, symBinAddr: 0x10000861C, symSize: 0xB4 }
  - { offsetInCU: 0x1A5D4, offset: 0x1A5D4, size: 0x8, addend: 0x0, symName: __ZNSt3__16vectorINS_4pairI7AddressdEENS_9allocatorIS3_EEE18__construct_at_endIPS3_S8_EEvT_T0_m, symObjAddr: 0x56B4, symBinAddr: 0x1000086D0, symSize: 0x8C }
  - { offsetInCU: 0x1A649, offset: 0x1A649, size: 0x8, addend: 0x0, symName: __ZNSt3__128__exception_guard_exceptionsINS_6vectorINS_4pairI7AddressdEENS_9allocatorIS4_EEE16__destroy_vectorEE10__completeB8ue170006Ev, symObjAddr: 0x5740, symBinAddr: 0x10000875C, symSize: 0x1C }
  - { offsetInCU: 0x1A66E, offset: 0x1A66E, size: 0x8, addend: 0x0, symName: __ZNSt3__128__exception_guard_exceptionsINS_6vectorINS_4pairI7AddressdEENS_9allocatorIS4_EEE16__destroy_vectorEED1B8ue170006Ev, symObjAddr: 0x575C, symBinAddr: 0x100008778, symSize: 0x2C }
  - { offsetInCU: 0x1A697, offset: 0x1A697, size: 0x8, addend: 0x0, symName: __ZNSt3__128__exception_guard_exceptionsINS_6vectorINS_4pairI7AddressdEENS_9allocatorIS4_EEE16__destroy_vectorEEC1B8ue170006ES8_, symObjAddr: 0x5788, symBinAddr: 0x1000087A4, symSize: 0x34 }
  - { offsetInCU: 0x1A6CE, offset: 0x1A6CE, size: 0x8, addend: 0x0, symName: __ZNSt3__128__exception_guard_exceptionsINS_6vectorINS_4pairI7AddressdEENS_9allocatorIS4_EEE16__destroy_vectorEEC2B8ue170006ES8_, symObjAddr: 0x57BC, symBinAddr: 0x1000087D8, symSize: 0x24 }
  - { offsetInCU: 0x1A705, offset: 0x1A705, size: 0x8, addend: 0x0, symName: __ZNSt3__16vectorINS_4pairI7AddressdEENS_9allocatorIS3_EEE16__destroy_vectorC2B8ue170006ERS6_, symObjAddr: 0x57E0, symBinAddr: 0x1000087FC, symSize: 0x20 }
  - { offsetInCU: 0x1A73C, offset: 0x1A73C, size: 0x8, addend: 0x0, symName: __ZNKSt3__16vectorINS_4pairI7AddressdEENS_9allocatorIS3_EEE8max_sizeEv, symObjAddr: 0x5800, symBinAddr: 0x10000881C, symSize: 0x60 }
  - { offsetInCU: 0x1A763, offset: 0x1A763, size: 0x8, addend: 0x0, symName: __ZNKSt3__16vectorINS_4pairI7AddressdEENS_9allocatorIS3_EEE20__throw_length_errorB8ue170006Ev, symObjAddr: 0x5860, symBinAddr: 0x10000887C, symSize: 0x1C }
  - { offsetInCU: 0x1A788, offset: 0x1A788, size: 0x8, addend: 0x0, symName: __ZNKSt3__16vectorINS_4pairI7AddressdEENS_9allocatorIS3_EEE14__annotate_newB8ue170006Em, symObjAddr: 0x58BC, symBinAddr: 0x1000088D8, symSize: 0xC8 }
  - { offsetInCU: 0x1A7BC, offset: 0x1A7BC, size: 0x8, addend: 0x0, symName: __ZNSt3__116allocator_traitsINS_9allocatorINS_4pairI7AddressdEEEEE8max_sizeB8ue170006IS5_vEEmRKS5_, symObjAddr: 0x5984, symBinAddr: 0x1000089A0, symSize: 0x24 }
  - { offsetInCU: 0x1A7EA, offset: 0x1A7EA, size: 0x8, addend: 0x0, symName: __ZNKSt3__19allocatorINS_4pairI7AddressdEEE8max_sizeB8ue170006Ev, symObjAddr: 0x59A8, symBinAddr: 0x1000089C4, symSize: 0x18 }
  - { offsetInCU: 0x1A80F, offset: 0x1A80F, size: 0x8, addend: 0x0, symName: __ZNSt3__19allocatorINS_4pairI7AddressdEEE8allocateB8ue170006Em, symObjAddr: 0x59C0, symBinAddr: 0x1000089DC, symSize: 0x5C }
  - { offsetInCU: 0x1A842, offset: 0x1A842, size: 0x8, addend: 0x0, symName: __ZNKSt3__16vectorINS_4pairI7AddressdEENS_9allocatorIS3_EEE31__annotate_contiguous_containerB8ue170006EPKvS8_S8_S8_, symObjAddr: 0x5A1C, symBinAddr: 0x100008A38, symSize: 0x20 }
  - { offsetInCU: 0x1A897, offset: 0x1A897, size: 0x8, addend: 0x0, symName: __ZNKSt3__16vectorINS_4pairI7AddressdEENS_9allocatorIS3_EEE4dataB8ue170006Ev, symObjAddr: 0x5A3C, symBinAddr: 0x100008A58, symSize: 0x28 }
  - { offsetInCU: 0x1A8BC, offset: 0x1A8BC, size: 0x8, addend: 0x0, symName: __ZNKSt3__16vectorINS_4pairI7AddressdEENS_9allocatorIS3_EEE8capacityB8ue170006Ev, symObjAddr: 0x5A64, symBinAddr: 0x100008A80, symSize: 0x40 }
  - { offsetInCU: 0x1A8E1, offset: 0x1A8E1, size: 0x8, addend: 0x0, symName: __ZNKSt3__16vectorINS_4pairI7AddressdEENS_9allocatorIS3_EEE9__end_capB8ue170006Ev, symObjAddr: 0x5AB8, symBinAddr: 0x100008AD4, symSize: 0x28 }
  - { offsetInCU: 0x1A906, offset: 0x1A906, size: 0x8, addend: 0x0, symName: __ZNKSt3__117__compressed_pairIPNS_4pairI7AddressdEENS_9allocatorIS3_EEE5firstB8ue170006Ev, symObjAddr: 0x5AE0, symBinAddr: 0x100008AFC, symSize: 0x24 }
  - { offsetInCU: 0x1A92B, offset: 0x1A92B, size: 0x8, addend: 0x0, symName: __ZNKSt3__122__compressed_pair_elemIPNS_4pairI7AddressdEELi0ELb0EE5__getB8ue170006Ev, symObjAddr: 0x5B04, symBinAddr: 0x100008B20, symSize: 0x14 }
  - { offsetInCU: 0x1A969, offset: 0x1A969, size: 0x8, addend: 0x0, symName: __ZNSt3__16vectorINS_4pairI7AddressdEENS_9allocatorIS3_EEE21_ConstructTransactionC1B8ue170006ERS6_m, symObjAddr: 0x5B18, symBinAddr: 0x100008B34, symSize: 0x3C }
  - { offsetInCU: 0x1A9B0, offset: 0x1A9B0, size: 0x8, addend: 0x0, symName: __ZNSt3__16vectorINS_4pairI7AddressdEENS_9allocatorIS3_EEE21_ConstructTransactionD1B8ue170006Ev, symObjAddr: 0x5BD4, symBinAddr: 0x100008BF0, symSize: 0x2C }
  - { offsetInCU: 0x1A9D9, offset: 0x1A9D9, size: 0x8, addend: 0x0, symName: __ZNSt3__16vectorINS_4pairI7AddressdEENS_9allocatorIS3_EEE21_ConstructTransactionC2B8ue170006ERS6_m, symObjAddr: 0x5C00, symBinAddr: 0x100008C1C, symSize: 0x4C }
  - { offsetInCU: 0x1AA3E, offset: 0x1AA3E, size: 0x8, addend: 0x0, symName: __ZNSt3__14pairIPNS0_I7AddressdEES3_EC1B8ue170006IS3_S3_LPv0EEEOT_OT0_, symObjAddr: 0x5E38, symBinAddr: 0x100008E54, symSize: 0x3C }
  - { offsetInCU: 0x1AA9B, offset: 0x1AA9B, size: 0x8, addend: 0x0, symName: __ZNSt3__14pairIPNS0_I7AddressdEES3_EC2B8ue170006IS3_S3_LPv0EEEOT_OT0_, symObjAddr: 0x5E74, symBinAddr: 0x100008E90, symSize: 0x34 }
  - { offsetInCU: 0x1AAF8, offset: 0x1AAF8, size: 0x8, addend: 0x0, symName: __ZNSt3__129_AllocatorDestroyRangeReverseINS_9allocatorINS_4pairI7AddressdEEEEPS4_EC1B8ue170006ERS5_RS6_S9_, symObjAddr: 0x5EF4, symBinAddr: 0x100008F10, symSize: 0x44 }
  - { offsetInCU: 0x1AB4E, offset: 0x1AB4E, size: 0x8, addend: 0x0, symName: __ZNSt3__116allocator_traitsINS_9allocatorINS_4pairI7AddressdEEEEE9constructB8ue170006IS4_JRS4_EvEEvRS5_PT_DpOT0_, symObjAddr: 0x5F38, symBinAddr: 0x100008F54, symSize: 0x34 }
  - { offsetInCU: 0x1ABA5, offset: 0x1ABA5, size: 0x8, addend: 0x0, symName: __ZNSt3__128__exception_guard_exceptionsINS_29_AllocatorDestroyRangeReverseINS_9allocatorINS_4pairI7AddressdEEEEPS5_EEE10__completeB8ue170006Ev, symObjAddr: 0x5F6C, symBinAddr: 0x100008F88, symSize: 0x1C }
  - { offsetInCU: 0x1ABCA, offset: 0x1ABCA, size: 0x8, addend: 0x0, symName: __ZNSt3__128__exception_guard_exceptionsINS_29_AllocatorDestroyRangeReverseINS_9allocatorINS_4pairI7AddressdEEEEPS5_EEED1B8ue170006Ev, symObjAddr: 0x5F88, symBinAddr: 0x100008FA4, symSize: 0x2C }
  - { offsetInCU: 0x1ABF3, offset: 0x1ABF3, size: 0x8, addend: 0x0, symName: __ZNSt3__128__exception_guard_exceptionsINS_29_AllocatorDestroyRangeReverseINS_9allocatorINS_4pairI7AddressdEEEEPS5_EEEC1B8ue170006ES8_, symObjAddr: 0x5FB4, symBinAddr: 0x100008FD0, symSize: 0x34 }
  - { offsetInCU: 0x1AC2B, offset: 0x1AC2B, size: 0x8, addend: 0x0, symName: __ZNSt3__128__exception_guard_exceptionsINS_29_AllocatorDestroyRangeReverseINS_9allocatorINS_4pairI7AddressdEEEEPS5_EEEC2B8ue170006ES8_, symObjAddr: 0x5FE8, symBinAddr: 0x100009004, symSize: 0x30 }
  - { offsetInCU: 0x1AC63, offset: 0x1AC63, size: 0x8, addend: 0x0, symName: __ZNSt3__129_AllocatorDestroyRangeReverseINS_9allocatorINS_4pairI7AddressdEEEEPS4_EC2B8ue170006ERS5_RS6_S9_, symObjAddr: 0x6018, symBinAddr: 0x100009034, symSize: 0x38 }
  - { offsetInCU: 0x1ACB9, offset: 0x1ACB9, size: 0x8, addend: 0x0, symName: __ZNSt3__19allocatorINS_4pairI7AddressdEEE9constructB8ue170006IS3_JRS3_EEEvPT_DpOT0_, symObjAddr: 0x6050, symBinAddr: 0x10000906C, symSize: 0x30 }
  - { offsetInCU: 0x1AD0E, offset: 0x1AD0E, size: 0x8, addend: 0x0, symName: __ZNSt3__14pairI7AddressdEC1B8ue170006ERKS2_, symObjAddr: 0x6080, symBinAddr: 0x10000909C, symSize: 0x34 }
  - { offsetInCU: 0x1AD42, offset: 0x1AD42, size: 0x8, addend: 0x0, symName: __ZNSt3__14pairI7AddressdEC2B8ue170006ERKS2_, symObjAddr: 0x60B4, symBinAddr: 0x1000090D0, symSize: 0x40 }
  - { offsetInCU: 0x1AD76, offset: 0x1AD76, size: 0x8, addend: 0x0, symName: __ZNSt3__128__exception_guard_exceptionsINS_29_AllocatorDestroyRangeReverseINS_9allocatorINS_4pairI7AddressdEEEEPS5_EEED2B8ue170006Ev, symObjAddr: 0x60F4, symBinAddr: 0x100009110, symSize: 0x50 }
  - { offsetInCU: 0x1AD9F, offset: 0x1AD9F, size: 0x8, addend: 0x0, symName: __ZNKSt3__129_AllocatorDestroyRangeReverseINS_9allocatorINS_4pairI7AddressdEEEEPS4_EclB8ue170006Ev, symObjAddr: 0x6144, symBinAddr: 0x100009160, symSize: 0x68 }
  - { offsetInCU: 0x1ADC4, offset: 0x1ADC4, size: 0x8, addend: 0x0, symName: __ZNSt3__116reverse_iteratorIPNS_4pairI7AddressdEEEC1B8ue170006ES4_, symObjAddr: 0x621C, symBinAddr: 0x100009238, symSize: 0x34 }
  - { offsetInCU: 0x1ADFB, offset: 0x1ADFB, size: 0x8, addend: 0x0, symName: __ZNSt3__116allocator_traitsINS_9allocatorINS_4pairI7AddressdEEEEE7destroyB8ue170006IS4_vEEvRS5_PT_, symObjAddr: 0x6298, symBinAddr: 0x1000092B4, symSize: 0x2C }
  - { offsetInCU: 0x1AE38, offset: 0x1AE38, size: 0x8, addend: 0x0, symName: __ZNSt3__116reverse_iteratorIPNS_4pairI7AddressdEEEppB8ue170006Ev, symObjAddr: 0x62E8, symBinAddr: 0x100009304, symSize: 0x20 }
  - { offsetInCU: 0x1AE5D, offset: 0x1AE5D, size: 0x8, addend: 0x0, symName: __ZNKSt3__116reverse_iteratorIPNS_4pairI7AddressdEEE4baseB8ue170006Ev, symObjAddr: 0x6308, symBinAddr: 0x100009324, symSize: 0x18 }
  - { offsetInCU: 0x1AE82, offset: 0x1AE82, size: 0x8, addend: 0x0, symName: __ZNSt3__19allocatorINS_4pairI7AddressdEEE7destroyB8ue170006EPS3_, symObjAddr: 0x6320, symBinAddr: 0x10000933C, symSize: 0x28 }
  - { offsetInCU: 0x1AEB5, offset: 0x1AEB5, size: 0x8, addend: 0x0, symName: __ZNSt3__14pairI7AddressdED1Ev, symObjAddr: 0x6348, symBinAddr: 0x100009364, symSize: 0x2C }
  - { offsetInCU: 0x1AEE0, offset: 0x1AEE0, size: 0x8, addend: 0x0, symName: __ZNSt3__14pairI7AddressdED2Ev, symObjAddr: 0x6374, symBinAddr: 0x100009390, symSize: 0x2C }
  - { offsetInCU: 0x1AF10, offset: 0x1AF10, size: 0x8, addend: 0x0, symName: __ZNSt3__119__to_address_helperINS_16reverse_iteratorIPNS_4pairI7AddressdEEEEvE6__callB8ue170006ERKS6_, symObjAddr: 0x63A0, symBinAddr: 0x1000093BC, symSize: 0x38 }
  - { offsetInCU: 0x1AF33, offset: 0x1AF33, size: 0x8, addend: 0x0, symName: __ZNKSt3__116reverse_iteratorIPNS_4pairI7AddressdEEEptB8ue170006Ev, symObjAddr: 0x63D8, symBinAddr: 0x1000093F4, symSize: 0x24 }
  - { offsetInCU: 0x1AF58, offset: 0x1AF58, size: 0x8, addend: 0x0, symName: __ZNKSt3__116reverse_iteratorIPNS_4pairI7AddressdEEEdeB8ue170006Ev, symObjAddr: 0x63FC, symBinAddr: 0x100009418, symSize: 0x28 }
  - { offsetInCU: 0x1AF8B, offset: 0x1AF8B, size: 0x8, addend: 0x0, symName: __ZNSt3__116reverse_iteratorIPNS_4pairI7AddressdEEEC2B8ue170006ES4_, symObjAddr: 0x6424, symBinAddr: 0x100009440, symSize: 0x28 }
  - { offsetInCU: 0x1AFC2, offset: 0x1AFC2, size: 0x8, addend: 0x0, symName: __ZNSt3__118__unwrap_iter_implIPNS_4pairI7AddressdEELb1EE8__unwrapB8ue170006ES4_, symObjAddr: 0x644C, symBinAddr: 0x100009468, symSize: 0x24 }
  - { offsetInCU: 0x1AFE5, offset: 0x1AFE5, size: 0x8, addend: 0x0, symName: __ZNSt3__118__unwrap_iter_implIPNS_4pairI7AddressdEELb1EE8__rewrapB8ue170006ES4_S4_, symObjAddr: 0x6470, symBinAddr: 0x10000948C, symSize: 0x58 }
  - { offsetInCU: 0x1B016, offset: 0x1B016, size: 0x8, addend: 0x0, symName: __ZNSt3__16vectorINS_4pairI7AddressdEENS_9allocatorIS3_EEE21_ConstructTransactionD2B8ue170006Ev, symObjAddr: 0x64C8, symBinAddr: 0x1000094E4, symSize: 0x20 }
  - { offsetInCU: 0x1B03F, offset: 0x1B03F, size: 0x8, addend: 0x0, symName: __ZNSt3__128__exception_guard_exceptionsINS_6vectorINS_4pairI7AddressdEENS_9allocatorIS4_EEE16__destroy_vectorEED2B8ue170006Ev, symObjAddr: 0x64E8, symBinAddr: 0x100009504, symSize: 0x50 }
  - { offsetInCU: 0x1B068, offset: 0x1B068, size: 0x8, addend: 0x0, symName: __ZNSt3__16vectorINS_4pairI7AddressdEENS_9allocatorIS3_EEE16__destroy_vectorclB8ue170006Ev, symObjAddr: 0x6538, symBinAddr: 0x100009554, symSize: 0x90 }
  - { offsetInCU: 0x1B08D, offset: 0x1B08D, size: 0x8, addend: 0x0, symName: __ZNSt3__16vectorINS_4pairI7AddressdEENS_9allocatorIS3_EEE7__clearB8ue170006Ev, symObjAddr: 0x65C8, symBinAddr: 0x1000095E4, symSize: 0x28 }
  - { offsetInCU: 0x1B0B2, offset: 0x1B0B2, size: 0x8, addend: 0x0, symName: __ZNKSt3__16vectorINS_4pairI7AddressdEENS_9allocatorIS3_EEE17__annotate_deleteB8ue170006Ev, symObjAddr: 0x65F0, symBinAddr: 0x10000960C, symSize: 0xD4 }
  - { offsetInCU: 0x1B0D7, offset: 0x1B0D7, size: 0x8, addend: 0x0, symName: __ZNSt3__116allocator_traitsINS_9allocatorINS_4pairI7AddressdEEEEE10deallocateB8ue170006ERS5_PS4_m, symObjAddr: 0x66C4, symBinAddr: 0x1000096E0, symSize: 0x34 }
  - { offsetInCU: 0x1B119, offset: 0x1B119, size: 0x8, addend: 0x0, symName: __ZNSt3__16vectorINS_4pairI7AddressdEENS_9allocatorIS3_EEE22__base_destruct_at_endB8ue170006EPS3_, symObjAddr: 0x66F8, symBinAddr: 0x100009714, symSize: 0x8C }
  - { offsetInCU: 0x1B15C, offset: 0x1B15C, size: 0x8, addend: 0x0, symName: __ZNSt3__19allocatorINS_4pairI7AddressdEEE10deallocateB8ue170006EPS3_m, symObjAddr: 0x6784, symBinAddr: 0x1000097A0, symSize: 0x44 }
  - { offsetInCU: 0x1B19D, offset: 0x1B19D, size: 0x8, addend: 0x0, symName: __ZNSt3__14pairI7AddressNS_6vectorINS0_IS1_dEENS_9allocatorIS3_EEEEED2Ev, symObjAddr: 0x67C8, symBinAddr: 0x1000097E4, symSize: 0x38 }
  - { offsetInCU: 0x1B1C8, offset: 0x1B1C8, size: 0x8, addend: 0x0, symName: __ZNSt3__16vectorINS_4pairI7AddressdEENS_9allocatorIS3_EEED2B8ue170006Ev, symObjAddr: 0x6800, symBinAddr: 0x10000981C, symSize: 0x40 }
  - { offsetInCU: 0x1B1F0, offset: 0x1B1F0, size: 0x8, addend: 0x0, symName: __ZNSt3__16vectorINS_4pairI7AddressNS0_INS1_IS2_dEENS_9allocatorIS3_EEEEEENS4_IS7_EEE5beginB8ue170006Ev, symObjAddr: 0x6840, symBinAddr: 0x10000985C, symSize: 0x30 }
  - { offsetInCU: 0x1B216, offset: 0x1B216, size: 0x8, addend: 0x0, symName: __ZNSt3__16vectorINS_4pairI7AddressNS0_INS1_IS2_dEENS_9allocatorIS3_EEEEEENS4_IS7_EEE3endB8ue170006Ev, symObjAddr: 0x6870, symBinAddr: 0x10000988C, symSize: 0x30 }
  - { offsetInCU: 0x1B23D, offset: 0x1B23D, size: 0x8, addend: 0x0, symName: __ZNKSt3__111__wrap_iterIPNS_4pairI7AddressNS_6vectorINS1_IS2_dEENS_9allocatorIS4_EEEEEEEdeB8ue170006Ev, symObjAddr: 0x68D4, symBinAddr: 0x1000098F0, symSize: 0x18 }
  - { offsetInCU: 0x1B261, offset: 0x1B261, size: 0x8, addend: 0x0, symName: __ZNSt3__16vectorINS_4pairI7AddressdEENS_9allocatorIS3_EEE9push_backB8ue170006EOS3_, symObjAddr: 0x6A34, symBinAddr: 0x100009A50, symSize: 0x6C }
  - { offsetInCU: 0x1B29C, offset: 0x1B29C, size: 0x8, addend: 0x0, symName: __ZNSt3__14pairI7AddressdEC1B8ue170006IRKS1_RdLPv0EEEOT_OT0_, symObjAddr: 0x6AA0, symBinAddr: 0x100009ABC, symSize: 0x3C }
  - { offsetInCU: 0x1B2F9, offset: 0x1B2F9, size: 0x8, addend: 0x0, symName: __ZNSt3__111__wrap_iterIPNS_4pairI7AddressNS_6vectorINS1_IS2_dEENS_9allocatorIS4_EEEEEEEppB8ue170006Ev, symObjAddr: 0x6ADC, symBinAddr: 0x100009AF8, symSize: 0x20 }
  - { offsetInCU: 0x1B31E, offset: 0x1B31E, size: 0x8, addend: 0x0, symName: __ZNSt3__16vectorINS_4pairI7AddressNS0_INS1_IS2_dEENS_9allocatorIS3_EEEEEENS4_IS7_EEE11__make_iterB8ue170006EPS7_, symObjAddr: 0x6AFC, symBinAddr: 0x100009B18, symSize: 0x30 }
  - { offsetInCU: 0x1B352, offset: 0x1B352, size: 0x8, addend: 0x0, symName: __ZNSt3__111__wrap_iterIPNS_4pairI7AddressNS_6vectorINS1_IS2_dEENS_9allocatorIS4_EEEEEEEC1B8ue170006ES9_, symObjAddr: 0x6B2C, symBinAddr: 0x100009B48, symSize: 0x34 }
  - { offsetInCU: 0x1B389, offset: 0x1B389, size: 0x8, addend: 0x0, symName: __ZNSt3__111__wrap_iterIPNS_4pairI7AddressNS_6vectorINS1_IS2_dEENS_9allocatorIS4_EEEEEEEC2B8ue170006ES9_, symObjAddr: 0x6B60, symBinAddr: 0x100009B7C, symSize: 0x20 }
  - { offsetInCU: 0x1B3C0, offset: 0x1B3C0, size: 0x8, addend: 0x0, symName: __ZNKSt3__111__wrap_iterIPNS_4pairI7AddressNS_6vectorINS1_IS2_dEENS_9allocatorIS4_EEEEEEE4baseB8ue170006Ev, symObjAddr: 0x6BC8, symBinAddr: 0x100009BE4, symSize: 0x18 }
  - { offsetInCU: 0x1B3E5, offset: 0x1B3E5, size: 0x8, addend: 0x0, symName: __ZNKSt3__112basic_stringIcNS_11char_traitsIcEENS_9allocatorIcEEE4sizeB8ue170006Ev, symObjAddr: 0x6BE0, symBinAddr: 0x100009BFC, symSize: 0x54 }
  - { offsetInCU: 0x1B40A, offset: 0x1B40A, size: 0x8, addend: 0x0, symName: __ZNKSt3__112basic_stringIcNS_11char_traitsIcEENS_9allocatorIcEEE4dataB8ue170006Ev, symObjAddr: 0x6C34, symBinAddr: 0x100009C50, symSize: 0x28 }
  - { offsetInCU: 0x1B42F, offset: 0x1B42F, size: 0x8, addend: 0x0, symName: __ZNKSt3__112basic_stringIcNS_11char_traitsIcEENS_9allocatorIcEEE9__is_longB8ue170006Ev, symObjAddr: 0x6C5C, symBinAddr: 0x100009C78, symSize: 0x38 }
  - { offsetInCU: 0x1B454, offset: 0x1B454, size: 0x8, addend: 0x0, symName: __ZNSt3__111char_traitsIcE7compareB8ue170006EPKcS3_m, symObjAddr: 0x6C94, symBinAddr: 0x100009CB0, symSize: 0x34 }
  - { offsetInCU: 0x1B493, offset: 0x1B493, size: 0x8, addend: 0x0, symName: __ZNKSt3__112basic_stringIcNS_11char_traitsIcEENS_9allocatorIcEEE15__get_long_sizeB8ue170006Ev, symObjAddr: 0x6CC8, symBinAddr: 0x100009CE4, symSize: 0x28 }
  - { offsetInCU: 0x1B4B8, offset: 0x1B4B8, size: 0x8, addend: 0x0, symName: __ZNKSt3__112basic_stringIcNS_11char_traitsIcEENS_9allocatorIcEEE16__get_short_sizeB8ue170006Ev, symObjAddr: 0x6CF0, symBinAddr: 0x100009D0C, symSize: 0x34 }
  - { offsetInCU: 0x1B4DD, offset: 0x1B4DD, size: 0x8, addend: 0x0, symName: __ZNKSt3__117__compressed_pairINS_12basic_stringIcNS_11char_traitsIcEENS_9allocatorIcEEE5__repES5_E5firstB8ue170006Ev, symObjAddr: 0x6D24, symBinAddr: 0x100009D40, symSize: 0x24 }
  - { offsetInCU: 0x1B502, offset: 0x1B502, size: 0x8, addend: 0x0, symName: __ZNKSt3__122__compressed_pair_elemINS_12basic_stringIcNS_11char_traitsIcEENS_9allocatorIcEEE5__repELi0ELb0EE5__getB8ue170006Ev, symObjAddr: 0x6D48, symBinAddr: 0x100009D64, symSize: 0x14 }
  - { offsetInCU: 0x1B527, offset: 0x1B527, size: 0x8, addend: 0x0, symName: __ZNKSt3__112basic_stringIcNS_11char_traitsIcEENS_9allocatorIcEEE13__get_pointerB8ue170006Ev, symObjAddr: 0x6D70, symBinAddr: 0x100009D8C, symSize: 0x54 }
  - { offsetInCU: 0x1B54C, offset: 0x1B54C, size: 0x8, addend: 0x0, symName: __ZNKSt3__112basic_stringIcNS_11char_traitsIcEENS_9allocatorIcEEE18__get_long_pointerB8ue170006Ev, symObjAddr: 0x6DC4, symBinAddr: 0x100009DE0, symSize: 0x28 }
  - { offsetInCU: 0x1B571, offset: 0x1B571, size: 0x8, addend: 0x0, symName: __ZNKSt3__112basic_stringIcNS_11char_traitsIcEENS_9allocatorIcEEE19__get_short_pointerB8ue170006Ev, symObjAddr: 0x6DEC, symBinAddr: 0x100009E08, symSize: 0x28 }
  - { offsetInCU: 0x1B596, offset: 0x1B596, size: 0x8, addend: 0x0, symName: __ZNSt3__114pointer_traitsIPKcE10pointer_toB8ue170006ERS1_, symObjAddr: 0x6E14, symBinAddr: 0x100009E30, symSize: 0x14 }
  - { offsetInCU: 0x1B5B9, offset: 0x1B5B9, size: 0x8, addend: 0x0, symName: __ZNSt3__16vectorINS_4pairI7AddressdEENS_9allocatorIS3_EEE22__construct_one_at_endB8ue170006IJS3_EEEvDpOT_, symObjAddr: 0x6E28, symBinAddr: 0x100009E44, symSize: 0x90 }
  - { offsetInCU: 0x1B606, offset: 0x1B606, size: 0x8, addend: 0x0, symName: __ZNSt3__16vectorINS_4pairI7AddressdEENS_9allocatorIS3_EEE21__push_back_slow_pathIS3_EEvOT_, symObjAddr: 0x6EB8, symBinAddr: 0x100009ED4, symSize: 0xD8 }
  - { offsetInCU: 0x1B663, offset: 0x1B663, size: 0x8, addend: 0x0, symName: __ZNSt3__116allocator_traitsINS_9allocatorINS_4pairI7AddressdEEEEE9constructB8ue170006IS4_JS4_EvEEvRS5_PT_DpOT0_, symObjAddr: 0x6F90, symBinAddr: 0x100009FAC, symSize: 0x34 }
  - { offsetInCU: 0x1B6BA, offset: 0x1B6BA, size: 0x8, addend: 0x0, symName: __ZNSt3__19allocatorINS_4pairI7AddressdEEE9constructB8ue170006IS3_JS3_EEEvPT_DpOT0_, symObjAddr: 0x6FC4, symBinAddr: 0x100009FE0, symSize: 0x30 }
  - { offsetInCU: 0x1B70F, offset: 0x1B70F, size: 0x8, addend: 0x0, symName: __ZNSt3__14pairI7AddressdEC1B8ue170006EOS2_, symObjAddr: 0x6FF4, symBinAddr: 0x10000A010, symSize: 0x34 }
  - { offsetInCU: 0x1B743, offset: 0x1B743, size: 0x8, addend: 0x0, symName: __ZNSt3__14pairI7AddressdEC2B8ue170006EOS2_, symObjAddr: 0x7028, symBinAddr: 0x10000A044, symSize: 0x40 }
  - { offsetInCU: 0x1B776, offset: 0x1B776, size: 0x8, addend: 0x0, symName: __ZNKSt3__16vectorINS_4pairI7AddressdEENS_9allocatorIS3_EEE11__recommendB8ue170006Em, symObjAddr: 0x7068, symBinAddr: 0x10000A084, symSize: 0xB4 }
  - { offsetInCU: 0x1B7CA, offset: 0x1B7CA, size: 0x8, addend: 0x0, symName: __ZNSt3__114__split_bufferINS_4pairI7AddressdEERNS_9allocatorIS3_EEEC1EmmS6_, symObjAddr: 0x711C, symBinAddr: 0x10000A138, symSize: 0x44 }
  - { offsetInCU: 0x1B81F, offset: 0x1B81F, size: 0x8, addend: 0x0, symName: __ZNSt3__114__split_bufferINS_4pairI7AddressdEERNS_9allocatorIS3_EEED1Ev, symObjAddr: 0x7270, symBinAddr: 0x10000A28C, symSize: 0x2C }
  - { offsetInCU: 0x1B84A, offset: 0x1B84A, size: 0x8, addend: 0x0, symName: __ZNSt3__114__split_bufferINS_4pairI7AddressdEERNS_9allocatorIS3_EEEC2EmmS6_, symObjAddr: 0x729C, symBinAddr: 0x10000A2B8, symSize: 0xE0 }
  - { offsetInCU: 0x1B8BD, offset: 0x1B8BD, size: 0x8, addend: 0x0, symName: __ZNSt3__117__compressed_pairIPNS_4pairI7AddressdEERNS_9allocatorIS3_EEEC1B8ue170006IDnS7_EEOT_OT0_, symObjAddr: 0x737C, symBinAddr: 0x10000A398, symSize: 0x3C }
  - { offsetInCU: 0x1B914, offset: 0x1B914, size: 0x8, addend: 0x0, symName: __ZNSt3__114__split_bufferINS_4pairI7AddressdEERNS_9allocatorIS3_EEE7__allocB8ue170006Ev, symObjAddr: 0x73B8, symBinAddr: 0x10000A3D4, symSize: 0x28 }
  - { offsetInCU: 0x1B939, offset: 0x1B939, size: 0x8, addend: 0x0, symName: __ZNSt3__114__split_bufferINS_4pairI7AddressdEERNS_9allocatorIS3_EEE9__end_capB8ue170006Ev, symObjAddr: 0x73E0, symBinAddr: 0x10000A3FC, symSize: 0x28 }
  - { offsetInCU: 0x1B95E, offset: 0x1B95E, size: 0x8, addend: 0x0, symName: __ZNSt3__117__compressed_pairIPNS_4pairI7AddressdEERNS_9allocatorIS3_EEEC2B8ue170006IDnS7_EEOT_OT0_, symObjAddr: 0x7408, symBinAddr: 0x10000A424, symSize: 0x48 }
  - { offsetInCU: 0x1B9B5, offset: 0x1B9B5, size: 0x8, addend: 0x0, symName: __ZNSt3__122__compressed_pair_elemIRNS_9allocatorINS_4pairI7AddressdEEEELi1ELb0EEC2B8ue170006IS6_vEEOT_, symObjAddr: 0x7450, symBinAddr: 0x10000A46C, symSize: 0x20 }
  - { offsetInCU: 0x1B9F6, offset: 0x1B9F6, size: 0x8, addend: 0x0, symName: __ZNSt3__117__compressed_pairIPNS_4pairI7AddressdEERNS_9allocatorIS3_EEE6secondB8ue170006Ev, symObjAddr: 0x7470, symBinAddr: 0x10000A48C, symSize: 0x28 }
  - { offsetInCU: 0x1BA1B, offset: 0x1BA1B, size: 0x8, addend: 0x0, symName: __ZNSt3__122__compressed_pair_elemIRNS_9allocatorINS_4pairI7AddressdEEEELi1ELb0EE5__getB8ue170006Ev, symObjAddr: 0x7498, symBinAddr: 0x10000A4B4, symSize: 0x18 }
  - { offsetInCU: 0x1BA40, offset: 0x1BA40, size: 0x8, addend: 0x0, symName: __ZNSt3__117__compressed_pairIPNS_4pairI7AddressdEERNS_9allocatorIS3_EEE5firstB8ue170006Ev, symObjAddr: 0x74B0, symBinAddr: 0x10000A4CC, symSize: 0x24 }
  - { offsetInCU: 0x1BA65, offset: 0x1BA65, size: 0x8, addend: 0x0, symName: __ZNSt3__129_AllocatorDestroyRangeReverseINS_9allocatorINS_4pairI7AddressdEEEENS_16reverse_iteratorIPS4_EEEC1B8ue170006ERS5_RS8_SB_, symObjAddr: 0x7678, symBinAddr: 0x10000A694, symSize: 0x44 }
  - { offsetInCU: 0x1BABB, offset: 0x1BABB, size: 0x8, addend: 0x0, symName: __ZNSt3__128__exception_guard_exceptionsINS_29_AllocatorDestroyRangeReverseINS_9allocatorINS_4pairI7AddressdEEEENS_16reverse_iteratorIPS5_EEEEE10__completeB8ue170006Ev, symObjAddr: 0x76BC, symBinAddr: 0x10000A6D8, symSize: 0x1C }
  - { offsetInCU: 0x1BAE0, offset: 0x1BAE0, size: 0x8, addend: 0x0, symName: __ZNSt3__128__exception_guard_exceptionsINS_29_AllocatorDestroyRangeReverseINS_9allocatorINS_4pairI7AddressdEEEENS_16reverse_iteratorIPS5_EEEEED1B8ue170006Ev, symObjAddr: 0x76D8, symBinAddr: 0x10000A6F4, symSize: 0x2C }
  - { offsetInCU: 0x1BB09, offset: 0x1BB09, size: 0x8, addend: 0x0, symName: __ZNSt3__128__exception_guard_exceptionsINS_29_AllocatorDestroyRangeReverseINS_9allocatorINS_4pairI7AddressdEEEENS_16reverse_iteratorIPS5_EEEEEC1B8ue170006ESA_, symObjAddr: 0x7704, symBinAddr: 0x10000A720, symSize: 0x34 }
  - { offsetInCU: 0x1BB41, offset: 0x1BB41, size: 0x8, addend: 0x0, symName: __ZNSt3__128__exception_guard_exceptionsINS_29_AllocatorDestroyRangeReverseINS_9allocatorINS_4pairI7AddressdEEEENS_16reverse_iteratorIPS5_EEEEEC2B8ue170006ESA_, symObjAddr: 0x7738, symBinAddr: 0x10000A754, symSize: 0x30 }
  - { offsetInCU: 0x1BB79, offset: 0x1BB79, size: 0x8, addend: 0x0, symName: __ZNSt3__129_AllocatorDestroyRangeReverseINS_9allocatorINS_4pairI7AddressdEEEENS_16reverse_iteratorIPS4_EEEC2B8ue170006ERS5_RS8_SB_, symObjAddr: 0x7768, symBinAddr: 0x10000A784, symSize: 0x38 }
  - { offsetInCU: 0x1BBCF, offset: 0x1BBCF, size: 0x8, addend: 0x0, symName: __ZNSt3__128__exception_guard_exceptionsINS_29_AllocatorDestroyRangeReverseINS_9allocatorINS_4pairI7AddressdEEEENS_16reverse_iteratorIPS5_EEEEED2B8ue170006Ev, symObjAddr: 0x77A0, symBinAddr: 0x10000A7BC, symSize: 0x50 }
  - { offsetInCU: 0x1BBF8, offset: 0x1BBF8, size: 0x8, addend: 0x0, symName: __ZNKSt3__129_AllocatorDestroyRangeReverseINS_9allocatorINS_4pairI7AddressdEEEENS_16reverse_iteratorIPS4_EEEclB8ue170006Ev, symObjAddr: 0x77F0, symBinAddr: 0x10000A80C, symSize: 0xB4 }
  - { offsetInCU: 0x1BC1E, offset: 0x1BC1E, size: 0x8, addend: 0x0, symName: __ZNSt3__116reverse_iteratorINS0_IPNS_4pairI7AddressdEEEEEC1B8ue170006ES5_, symObjAddr: 0x7914, symBinAddr: 0x10000A930, symSize: 0x3C }
  - { offsetInCU: 0x1BC55, offset: 0x1BC55, size: 0x8, addend: 0x0, symName: __ZNSt3__116reverse_iteratorINS0_IPNS_4pairI7AddressdEEEEEppB8ue170006Ev, symObjAddr: 0x79D4, symBinAddr: 0x10000A9F0, symSize: 0x30 }
  - { offsetInCU: 0x1BC7A, offset: 0x1BC7A, size: 0x8, addend: 0x0, symName: __ZNKSt3__116reverse_iteratorINS0_IPNS_4pairI7AddressdEEEEE4baseB8ue170006Ev, symObjAddr: 0x7A04, symBinAddr: 0x10000AA20, symSize: 0x24 }
  - { offsetInCU: 0x1BCA4, offset: 0x1BCA4, size: 0x8, addend: 0x0, symName: __ZNSt3__119__to_address_helperINS_16reverse_iteratorINS1_IPNS_4pairI7AddressdEEEEEEvE6__callB8ue170006ERKS7_, symObjAddr: 0x7A28, symBinAddr: 0x10000AA44, symSize: 0x38 }
  - { offsetInCU: 0x1BCC7, offset: 0x1BCC7, size: 0x8, addend: 0x0, symName: __ZNKSt3__116reverse_iteratorINS0_IPNS_4pairI7AddressdEEEEEptB8ue170006Ev, symObjAddr: 0x7A60, symBinAddr: 0x10000AA7C, symSize: 0x24 }
  - { offsetInCU: 0x1BCEC, offset: 0x1BCEC, size: 0x8, addend: 0x0, symName: __ZNKSt3__116reverse_iteratorINS0_IPNS_4pairI7AddressdEEEEEdeB8ue170006Ev, symObjAddr: 0x7A84, symBinAddr: 0x10000AAA0, symSize: 0x34 }
  - { offsetInCU: 0x1BD1F, offset: 0x1BD1F, size: 0x8, addend: 0x0, symName: __ZNSt3__116reverse_iteratorIPNS_4pairI7AddressdEEEmmB8ue170006Ev, symObjAddr: 0x7AB8, symBinAddr: 0x10000AAD4, symSize: 0x20 }
  - { offsetInCU: 0x1BD44, offset: 0x1BD44, size: 0x8, addend: 0x0, symName: __ZNSt3__116reverse_iteratorINS0_IPNS_4pairI7AddressdEEEEEC2B8ue170006ES5_, symObjAddr: 0x7AD8, symBinAddr: 0x10000AAF4, symSize: 0x2C }
  - { offsetInCU: 0x1BD7B, offset: 0x1BD7B, size: 0x8, addend: 0x0, symName: __ZNSt3__114__split_bufferINS_4pairI7AddressdEERNS_9allocatorIS3_EEED2Ev, symObjAddr: 0x7B04, symBinAddr: 0x10000AB20, symSize: 0x8C }
  - { offsetInCU: 0x1BDA6, offset: 0x1BDA6, size: 0x8, addend: 0x0, symName: __ZNSt3__114__split_bufferINS_4pairI7AddressdEERNS_9allocatorIS3_EEE5clearB8ue170006Ev, symObjAddr: 0x7B90, symBinAddr: 0x10000ABAC, symSize: 0x28 }
  - { offsetInCU: 0x1BDCB, offset: 0x1BDCB, size: 0x8, addend: 0x0, symName: __ZNKSt3__114__split_bufferINS_4pairI7AddressdEERNS_9allocatorIS3_EEE8capacityB8ue170006Ev, symObjAddr: 0x7BB8, symBinAddr: 0x10000ABD4, symSize: 0x40 }
  - { offsetInCU: 0x1BDF0, offset: 0x1BDF0, size: 0x8, addend: 0x0, symName: __ZNSt3__114__split_bufferINS_4pairI7AddressdEERNS_9allocatorIS3_EEE17__destruct_at_endB8ue170006EPS3_, symObjAddr: 0x7BF8, symBinAddr: 0x10000AC14, symSize: 0x2C }
  - { offsetInCU: 0x1BE22, offset: 0x1BE22, size: 0x8, addend: 0x0, symName: __ZNSt3__114__split_bufferINS_4pairI7AddressdEERNS_9allocatorIS3_EEE17__destruct_at_endB8ue170006EPS3_NS_17integral_constantIbLb0EEE, symObjAddr: 0x7C24, symBinAddr: 0x10000AC40, symSize: 0x80 }
  - { offsetInCU: 0x1BE62, offset: 0x1BE62, size: 0x8, addend: 0x0, symName: __ZNKSt3__114__split_bufferINS_4pairI7AddressdEERNS_9allocatorIS3_EEE9__end_capB8ue170006Ev, symObjAddr: 0x7CA4, symBinAddr: 0x10000ACC0, symSize: 0x28 }
  - { offsetInCU: 0x1BE87, offset: 0x1BE87, size: 0x8, addend: 0x0, symName: __ZNKSt3__117__compressed_pairIPNS_4pairI7AddressdEERNS_9allocatorIS3_EEE5firstB8ue170006Ev, symObjAddr: 0x7CCC, symBinAddr: 0x10000ACE8, symSize: 0x24 }
  - { offsetInCU: 0x1BEAC, offset: 0x1BEAC, size: 0x8, addend: 0x0, symName: __ZNSt3__14pairI7AddressdEC2B8ue170006IRKS1_RdLPv0EEEOT_OT0_, symObjAddr: 0x7CF0, symBinAddr: 0x10000AD0C, symSize: 0x44 }
  - { offsetInCU: 0x1BF09, offset: 0x1BF09, size: 0x8, addend: 0x0, symName: __ZN7AddressC2ERKS_, symObjAddr: 0x7D34, symBinAddr: 0x10000AD50, symSize: 0x40 }
  - { offsetInCU: 0x1BF3D, offset: 0x1BF3D, size: 0x8, addend: 0x0, symName: __ZN10LinkedListI4NodeEC1Ev, symObjAddr: 0x7D74, symBinAddr: 0x10000AD90, symSize: 0x2C }
  - { offsetInCU: 0x1BF66, offset: 0x1BF66, size: 0x8, addend: 0x0, symName: __ZN4NodeC1EP7Address, symObjAddr: 0x7DA0, symBinAddr: 0x10000ADBC, symSize: 0x34 }
  - { offsetInCU: 0x1BF9D, offset: 0x1BF9D, size: 0x8, addend: 0x0, symName: __ZN10LinkedListI4NodeE6insertEPS0_, symObjAddr: 0x7DD4, symBinAddr: 0x10000ADF0, symSize: 0x2C }
  - { offsetInCU: 0x1C070, offset: 0x1C070, size: 0x8, addend: 0x0, symName: __ZNSt3__113unordered_mapINS_12basic_stringIcNS_11char_traitsIcEENS_9allocatorIcEEEEP4NodeNS_4hashIS6_EENS_8equal_toIS6_EENS4_INS_4pairIKS6_S8_EEEEEC1B8ue170006Ev, symObjAddr: 0x7E00, symBinAddr: 0x10000AE1C, symSize: 0x2C }
  - { offsetInCU: 0x1C098, offset: 0x1C098, size: 0x8, addend: 0x0, symName: __ZNSt3__113unordered_mapINS_12basic_stringIcNS_11char_traitsIcEENS_9allocatorIcEEEEP4NodeNS_4hashIS6_EENS_8equal_toIS6_EENS4_INS_4pairIKS6_S8_EEEEEixERSE_, symObjAddr: 0x7E2C, symBinAddr: 0x10000AE48, symSize: 0x80 }
  - { offsetInCU: 0x1C0CE, offset: 0x1C0CE, size: 0x8, addend: 0x0, symName: __ZNK10LinkedListI4NodeE7isEmptyEv, symObjAddr: 0x7EAC, symBinAddr: 0x10000AEC8, symSize: 0x24 }
  - { offsetInCU: 0x1C0F3, offset: 0x1C0F3, size: 0x8, addend: 0x0, symName: __ZN5Graph14findLowestNodeEP10LinkedListI4NodeE, symObjAddr: 0x7ED0, symBinAddr: 0x10000AEEC, symSize: 0xA0 }
  - { offsetInCU: 0x1C150, offset: 0x1C150, size: 0x8, addend: 0x0, symName: __ZN10LinkedListI4NodeE6removeEPS0_, symObjAddr: 0x7F70, symBinAddr: 0x10000AF8C, symSize: 0xEC }
  - { offsetInCU: 0x1C19F, offset: 0x1C19F, size: 0x8, addend: 0x0, symName: __ZN5Graph15reconstructPathEP4Node, symObjAddr: 0x80A8, symBinAddr: 0x10000B0C4, symSize: 0xC4 }
  - { offsetInCU: 0x1C1EE, offset: 0x1C1EE, size: 0x8, addend: 0x0, symName: __ZNK5Graph16getAdjacentNodesEPK7Address, symObjAddr: 0x816C, symBinAddr: 0x10000B188, symSize: 0x1D4 }
  - { offsetInCU: 0x1C2C9, offset: 0x1C2C9, size: 0x8, addend: 0x0, symName: __ZNK5Graph13getEdgeWeightEPK7AddressS2_, symObjAddr: 0x8340, symBinAddr: 0x10000B35C, symSize: 0x120 }
  - { offsetInCU: 0x1C3B0, offset: 0x1C3B0, size: 0x8, addend: 0x0, symName: __ZNSt3__113unordered_mapINS_12basic_stringIcNS_11char_traitsIcEENS_9allocatorIcEEEEP4NodeNS_4hashIS6_EENS_8equal_toIS6_EENS4_INS_4pairIKS6_S8_EEEEE4findB8ue170006ERSE_, symObjAddr: 0x8490, symBinAddr: 0x10000B4AC, symSize: 0x40 }
  - { offsetInCU: 0x1C3E4, offset: 0x1C3E4, size: 0x8, addend: 0x0, symName: __ZNSt3__113unordered_mapINS_12basic_stringIcNS_11char_traitsIcEENS_9allocatorIcEEEEP4NodeNS_4hashIS6_EENS_8equal_toIS6_EENS4_INS_4pairIKS6_S8_EEEEE3endB8ue170006Ev, symObjAddr: 0x84D0, symBinAddr: 0x10000B4EC, symSize: 0x38 }
  - { offsetInCU: 0x1C409, offset: 0x1C409, size: 0x8, addend: 0x0, symName: __ZNSt3__113unordered_mapINS_12basic_stringIcNS_11char_traitsIcEENS_9allocatorIcEEEEP4NodeNS_4hashIS6_EENS_8equal_toIS6_EENS4_INS_4pairIKS6_S8_EEEEED1B8ue170006Ev, symObjAddr: 0x8508, symBinAddr: 0x10000B524, symSize: 0x2C }
  - { offsetInCU: 0x1C432, offset: 0x1C432, size: 0x8, addend: 0x0, symName: __ZN10LinkedListI4NodeEC2Ev, symObjAddr: 0x8534, symBinAddr: 0x10000B550, symSize: 0x18 }
  - { offsetInCU: 0x1C45B, offset: 0x1C45B, size: 0x8, addend: 0x0, symName: __ZN4NodeC2EP7Address, symObjAddr: 0x854C, symBinAddr: 0x10000B568, symSize: 0x30 }
  - { offsetInCU: 0x1C492, offset: 0x1C492, size: 0x8, addend: 0x0, symName: __ZNSt3__113unordered_mapINS_12basic_stringIcNS_11char_traitsIcEENS_9allocatorIcEEEEP4NodeNS_4hashIS6_EENS_8equal_toIS6_EENS4_INS_4pairIKS6_S8_EEEEEC2B8ue170006Ev, symObjAddr: 0x857C, symBinAddr: 0x10000B598, symSize: 0x2C }
  - { offsetInCU: 0x1C4BB, offset: 0x1C4BB, size: 0x8, addend: 0x0, symName: __ZNSt3__112__hash_tableINS_17__hash_value_typeINS_12basic_stringIcNS_11char_traitsIcEENS_9allocatorIcEEEEP4NodeEENS_22__unordered_map_hasherIS7_SA_NS_4hashIS7_EENS_8equal_toIS7_EELb1EEENS_21__unordered_map_equalIS7_SA_SF_SD_Lb1EEENS5_ISA_EEEC1Ev, symObjAddr: 0x85A8, symBinAddr: 0x10000B5C4, symSize: 0x2C }
  - { offsetInCU: 0x1C4E6, offset: 0x1C4E6, size: 0x8, addend: 0x0, symName: __ZNSt3__112__hash_tableINS_17__hash_value_typeINS_12basic_stringIcNS_11char_traitsIcEENS_9allocatorIcEEEEP4NodeEENS_22__unordered_map_hasherIS7_SA_NS_4hashIS7_EENS_8equal_toIS7_EELb1EEENS_21__unordered_map_equalIS7_SA_SF_SD_Lb1EEENS5_ISA_EEEC2Ev, symObjAddr: 0x85D4, symBinAddr: 0x10000B5F0, symSize: 0x7C }
  - { offsetInCU: 0x1C511, offset: 0x1C511, size: 0x8, addend: 0x0, symName: __ZNSt3__110unique_ptrIA_PNS_16__hash_node_baseIPNS_11__hash_nodeINS_17__hash_value_typeINS_12basic_stringIcNS_11char_traitsIcEENS_9allocatorIcEEEEP4NodeEEPvEEEENS_25__bucket_list_deallocatorINS7_ISH_EEEEEC1B8ue170006ILb1EvEEv, symObjAddr: 0x8650, symBinAddr: 0x10000B66C, symSize: 0x2C }
  - { offsetInCU: 0x1C545, offset: 0x1C545, size: 0x8, addend: 0x0, symName: __ZNSt3__117__compressed_pairINS_16__hash_node_baseIPNS_11__hash_nodeINS_17__hash_value_typeINS_12basic_stringIcNS_11char_traitsIcEENS_9allocatorIcEEEEP4NodeEEPvEEEENS7_ISE_EEEC1B8ue170006ILb1EvEEv, symObjAddr: 0x867C, symBinAddr: 0x10000B698, symSize: 0x2C }
  - { offsetInCU: 0x1C57E, offset: 0x1C57E, size: 0x8, addend: 0x0, symName: __ZNSt3__117__compressed_pairImNS_22__unordered_map_hasherINS_12basic_stringIcNS_11char_traitsIcEENS_9allocatorIcEEEENS_17__hash_value_typeIS7_P4NodeEENS_4hashIS7_EENS_8equal_toIS7_EELb1EEEEC1B8ue170006IiNS_18__default_init_tagEEEOT_OT0_, symObjAddr: 0x86A8, symBinAddr: 0x10000B6C4, symSize: 0x3C }
  - { offsetInCU: 0x1C5DA, offset: 0x1C5DA, size: 0x8, addend: 0x0, symName: __ZNSt3__117__compressed_pairIfNS_21__unordered_map_equalINS_12basic_stringIcNS_11char_traitsIcEENS_9allocatorIcEEEENS_17__hash_value_typeIS7_P4NodeEENS_8equal_toIS7_EENS_4hashIS7_EELb1EEEEC1B8ue170006IfNS_18__default_init_tagEEEOT_OT0_, symObjAddr: 0x86E4, symBinAddr: 0x10000B700, symSize: 0x3C }
  - { offsetInCU: 0x1C631, offset: 0x1C631, size: 0x8, addend: 0x0, symName: __ZNSt3__110unique_ptrIA_PNS_16__hash_node_baseIPNS_11__hash_nodeINS_17__hash_value_typeINS_12basic_stringIcNS_11char_traitsIcEENS_9allocatorIcEEEEP4NodeEEPvEEEENS_25__bucket_list_deallocatorINS7_ISH_EEEEEC2B8ue170006ILb1EvEEv, symObjAddr: 0x8720, symBinAddr: 0x10000B73C, symSize: 0x3C }
  - { offsetInCU: 0x1C66A, offset: 0x1C66A, size: 0x8, addend: 0x0, symName: __ZNSt3__117__compressed_pairIPPNS_16__hash_node_baseIPNS_11__hash_nodeINS_17__hash_value_typeINS_12basic_stringIcNS_11char_traitsIcEENS_9allocatorIcEEEEP4NodeEEPvEEEENS_25__bucket_list_deallocatorINS7_ISH_EEEEEC1B8ue170006INS_16__value_init_tagESO_EEOT_OT0_, symObjAddr: 0x875C, symBinAddr: 0x10000B778, symSize: 0x3C }
  - { offsetInCU: 0x1C6C1, offset: 0x1C6C1, size: 0x8, addend: 0x0, symName: __ZNSt3__117__compressed_pairIPPNS_16__hash_node_baseIPNS_11__hash_nodeINS_17__hash_value_typeINS_12basic_stringIcNS_11char_traitsIcEENS_9allocatorIcEEEEP4NodeEEPvEEEENS_25__bucket_list_deallocatorINS7_ISH_EEEEEC2B8ue170006INS_16__value_init_tagESO_EEOT_OT0_, symObjAddr: 0x8798, symBinAddr: 0x10000B7B4, symSize: 0x40 }
  - { offsetInCU: 0x1C718, offset: 0x1C718, size: 0x8, addend: 0x0, symName: __ZNSt3__122__compressed_pair_elemIPPNS_16__hash_node_baseIPNS_11__hash_nodeINS_17__hash_value_typeINS_12basic_stringIcNS_11char_traitsIcEENS_9allocatorIcEEEEP4NodeEEPvEEEELi0ELb0EEC2B8ue170006ENS_16__value_init_tagE, symObjAddr: 0x87D8, symBinAddr: 0x10000B7F4, symSize: 0x18 }
  - { offsetInCU: 0x1C74C, offset: 0x1C74C, size: 0x8, addend: 0x0, symName: __ZNSt3__122__compressed_pair_elemINS_25__bucket_list_deallocatorINS_9allocatorIPNS_16__hash_node_baseIPNS_11__hash_nodeINS_17__hash_value_typeINS_12basic_stringIcNS_11char_traitsIcEENS2_IcEEEEP4NodeEEPvEEEEEEEELi1ELb0EEC2B8ue170006ENS_16__value_init_tagE, symObjAddr: 0x87F0, symBinAddr: 0x10000B80C, symSize: 0x2C }
  - { offsetInCU: 0x1C780, offset: 0x1C780, size: 0x8, addend: 0x0, symName: __ZNSt3__125__bucket_list_deallocatorINS_9allocatorIPNS_16__hash_node_baseIPNS_11__hash_nodeINS_17__hash_value_typeINS_12basic_stringIcNS_11char_traitsIcEENS1_IcEEEEP4NodeEEPvEEEEEEEC1B8ue170006Ev, symObjAddr: 0x881C, symBinAddr: 0x10000B838, symSize: 0x2C }
  - { offsetInCU: 0x1C7A9, offset: 0x1C7A9, size: 0x8, addend: 0x0, symName: __ZNSt3__125__bucket_list_deallocatorINS_9allocatorIPNS_16__hash_node_baseIPNS_11__hash_nodeINS_17__hash_value_typeINS_12basic_stringIcNS_11char_traitsIcEENS1_IcEEEEP4NodeEEPvEEEEEEEC2B8ue170006Ev, symObjAddr: 0x8848, symBinAddr: 0x10000B864, symSize: 0x40 }
  - { offsetInCU: 0x1C7D2, offset: 0x1C7D2, size: 0x8, addend: 0x0, symName: __ZNSt3__117__compressed_pairImNS_9allocatorIPNS_16__hash_node_baseIPNS_11__hash_nodeINS_17__hash_value_typeINS_12basic_stringIcNS_11char_traitsIcEENS1_IcEEEEP4NodeEEPvEEEEEEEC1B8ue170006IiNS_18__default_init_tagEEEOT_OT0_, symObjAddr: 0x8888, symBinAddr: 0x10000B8A4, symSize: 0x3C }
  - { offsetInCU: 0x1C829, offset: 0x1C829, size: 0x8, addend: 0x0, symName: __ZNSt3__117__compressed_pairImNS_9allocatorIPNS_16__hash_node_baseIPNS_11__hash_nodeINS_17__hash_value_typeINS_12basic_stringIcNS_11char_traitsIcEENS1_IcEEEEP4NodeEEPvEEEEEEEC2B8ue170006IiNS_18__default_init_tagEEEOT_OT0_, symObjAddr: 0x88C4, symBinAddr: 0x10000B8E0, symSize: 0x40 }
  - { offsetInCU: 0x1C880, offset: 0x1C880, size: 0x8, addend: 0x0, symName: __ZNSt3__122__compressed_pair_elemImLi0ELb0EEC2B8ue170006IivEEOT_, symObjAddr: 0x8904, symBinAddr: 0x10000B920, symSize: 0x24 }
  - { offsetInCU: 0x1C8C1, offset: 0x1C8C1, size: 0x8, addend: 0x0, symName: __ZNSt3__122__compressed_pair_elemINS_9allocatorIPNS_16__hash_node_baseIPNS_11__hash_nodeINS_17__hash_value_typeINS_12basic_stringIcNS_11char_traitsIcEENS1_IcEEEEP4NodeEEPvEEEEEELi1ELb1EEC2B8ue170006ENS_18__default_init_tagE, symObjAddr: 0x8928, symBinAddr: 0x10000B944, symSize: 0x2C }
  - { offsetInCU: 0x1C8F5, offset: 0x1C8F5, size: 0x8, addend: 0x0, symName: __ZNSt3__19allocatorIPNS_16__hash_node_baseIPNS_11__hash_nodeINS_17__hash_value_typeINS_12basic_stringIcNS_11char_traitsIcEENS0_IcEEEEP4NodeEEPvEEEEEC2B8ue170006Ev, symObjAddr: 0x8954, symBinAddr: 0x10000B970, symSize: 0x2C }
  - { offsetInCU: 0x1C91E, offset: 0x1C91E, size: 0x8, addend: 0x0, symName: __ZNSt3__116__non_trivial_ifILb1ENS_9allocatorIPNS_16__hash_node_baseIPNS_11__hash_nodeINS_17__hash_value_typeINS_12basic_stringIcNS_11char_traitsIcEENS1_IcEEEEP4NodeEEPvEEEEEEEC2B8ue170006Ev, symObjAddr: 0x8980, symBinAddr: 0x10000B99C, symSize: 0x14 }
  - { offsetInCU: 0x1C947, offset: 0x1C947, size: 0x8, addend: 0x0, symName: __ZNSt3__117__compressed_pairINS_16__hash_node_baseIPNS_11__hash_nodeINS_17__hash_value_typeINS_12basic_stringIcNS_11char_traitsIcEENS_9allocatorIcEEEEP4NodeEEPvEEEENS7_ISE_EEEC2B8ue170006ILb1EvEEv, symObjAddr: 0x8994, symBinAddr: 0x10000B9B0, symSize: 0x34 }
  - { offsetInCU: 0x1C97B, offset: 0x1C97B, size: 0x8, addend: 0x0, symName: __ZNSt3__122__compressed_pair_elemINS_16__hash_node_baseIPNS_11__hash_nodeINS_17__hash_value_typeINS_12basic_stringIcNS_11char_traitsIcEENS_9allocatorIcEEEEP4NodeEEPvEEEELi0ELb0EEC2B8ue170006ENS_16__value_init_tagE, symObjAddr: 0x89C8, symBinAddr: 0x10000B9E4, symSize: 0x2C }
  - { offsetInCU: 0x1C9AF, offset: 0x1C9AF, size: 0x8, addend: 0x0, symName: __ZNSt3__122__compressed_pair_elemINS_9allocatorINS_11__hash_nodeINS_17__hash_value_typeINS_12basic_stringIcNS_11char_traitsIcEENS1_IcEEEEP4NodeEEPvEEEELi1ELb1EEC2B8ue170006ENS_16__value_init_tagE, symObjAddr: 0x89F4, symBinAddr: 0x10000BA10, symSize: 0x2C }
  - { offsetInCU: 0x1C9E3, offset: 0x1C9E3, size: 0x8, addend: 0x0, symName: __ZNSt3__116__hash_node_baseIPNS_11__hash_nodeINS_17__hash_value_typeINS_12basic_stringIcNS_11char_traitsIcEENS_9allocatorIcEEEEP4NodeEEPvEEEC1B8ue170006Ev, symObjAddr: 0x8A20, symBinAddr: 0x10000BA3C, symSize: 0x2C }
  - { offsetInCU: 0x1CA0C, offset: 0x1CA0C, size: 0x8, addend: 0x0, symName: __ZNSt3__116__hash_node_baseIPNS_11__hash_nodeINS_17__hash_value_typeINS_12basic_stringIcNS_11char_traitsIcEENS_9allocatorIcEEEEP4NodeEEPvEEEC2B8ue170006Ev, symObjAddr: 0x8A4C, symBinAddr: 0x10000BA68, symSize: 0x18 }
  - { offsetInCU: 0x1CA35, offset: 0x1CA35, size: 0x8, addend: 0x0, symName: __ZNSt3__19allocatorINS_11__hash_nodeINS_17__hash_value_typeINS_12basic_stringIcNS_11char_traitsIcEENS0_IcEEEEP4NodeEEPvEEEC2B8ue170006Ev, symObjAddr: 0x8A64, symBinAddr: 0x10000BA80, symSize: 0x2C }
  - { offsetInCU: 0x1CA5E, offset: 0x1CA5E, size: 0x8, addend: 0x0, symName: __ZNSt3__116__non_trivial_ifILb1ENS_9allocatorINS_11__hash_nodeINS_17__hash_value_typeINS_12basic_stringIcNS_11char_traitsIcEENS1_IcEEEEP4NodeEEPvEEEEEC2B8ue170006Ev, symObjAddr: 0x8A90, symBinAddr: 0x10000BAAC, symSize: 0x14 }
  - { offsetInCU: 0x1CA87, offset: 0x1CA87, size: 0x8, addend: 0x0, symName: __ZNSt3__117__compressed_pairImNS_22__unordered_map_hasherINS_12basic_stringIcNS_11char_traitsIcEENS_9allocatorIcEEEENS_17__hash_value_typeIS7_P4NodeEENS_4hashIS7_EENS_8equal_toIS7_EELb1EEEEC2B8ue170006IiNS_18__default_init_tagEEEOT_OT0_, symObjAddr: 0x8AA4, symBinAddr: 0x10000BAC0, symSize: 0x40 }
  - { offsetInCU: 0x1CADE, offset: 0x1CADE, size: 0x8, addend: 0x0, symName: __ZNSt3__122__compressed_pair_elemINS_22__unordered_map_hasherINS_12basic_stringIcNS_11char_traitsIcEENS_9allocatorIcEEEENS_17__hash_value_typeIS7_P4NodeEENS_4hashIS7_EENS_8equal_toIS7_EELb1EEELi1ELb1EEC2B8ue170006ENS_18__default_init_tagE, symObjAddr: 0x8AE4, symBinAddr: 0x10000BB00, symSize: 0x2C }
  - { offsetInCU: 0x1CB12, offset: 0x1CB12, size: 0x8, addend: 0x0, symName: __ZNSt3__122__unordered_map_hasherINS_12basic_stringIcNS_11char_traitsIcEENS_9allocatorIcEEEENS_17__hash_value_typeIS6_P4NodeEENS_4hashIS6_EENS_8equal_toIS6_EELb1EEC2B8ue170006Ev, symObjAddr: 0x8B10, symBinAddr: 0x10000BB2C, symSize: 0x14 }
  - { offsetInCU: 0x1CB3B, offset: 0x1CB3B, size: 0x8, addend: 0x0, symName: __ZNSt3__117__compressed_pairIfNS_21__unordered_map_equalINS_12basic_stringIcNS_11char_traitsIcEENS_9allocatorIcEEEENS_17__hash_value_typeIS7_P4NodeEENS_8equal_toIS7_EENS_4hashIS7_EELb1EEEEC2B8ue170006IfNS_18__default_init_tagEEEOT_OT0_, symObjAddr: 0x8B24, symBinAddr: 0x10000BB40, symSize: 0x40 }
  - { offsetInCU: 0x1CB92, offset: 0x1CB92, size: 0x8, addend: 0x0, symName: __ZNSt3__122__compressed_pair_elemIfLi0ELb0EEC2B8ue170006IfvEEOT_, symObjAddr: 0x8B64, symBinAddr: 0x10000BB80, symSize: 0x24 }
  - { offsetInCU: 0x1CBD3, offset: 0x1CBD3, size: 0x8, addend: 0x0, symName: __ZNSt3__122__compressed_pair_elemINS_21__unordered_map_equalINS_12basic_stringIcNS_11char_traitsIcEENS_9allocatorIcEEEENS_17__hash_value_typeIS7_P4NodeEENS_8equal_toIS7_EENS_4hashIS7_EELb1EEELi1ELb1EEC2B8ue170006ENS_18__default_init_tagE, symObjAddr: 0x8B88, symBinAddr: 0x10000BBA4, symSize: 0x2C }
  - { offsetInCU: 0x1CC07, offset: 0x1CC07, size: 0x8, addend: 0x0, symName: __ZNSt3__121__unordered_map_equalINS_12basic_stringIcNS_11char_traitsIcEENS_9allocatorIcEEEENS_17__hash_value_typeIS6_P4NodeEENS_8equal_toIS6_EENS_4hashIS6_EELb1EEC2B8ue170006Ev, symObjAddr: 0x8BB4, symBinAddr: 0x10000BBD0, symSize: 0x14 }
  - { offsetInCU: 0x1CC43, offset: 0x1CC43, size: 0x8, addend: 0x0, symName: __ZNSt3__112__hash_tableINS_17__hash_value_typeINS_12basic_stringIcNS_11char_traitsIcEENS_9allocatorIcEEEEP4NodeEENS_22__unordered_map_hasherIS7_SA_NS_4hashIS7_EENS_8equal_toIS7_EELb1EEENS_21__unordered_map_equalIS7_SA_SF_SD_Lb1EEENS5_ISA_EEE25__emplace_unique_key_argsIS7_JRKNS_21piecewise_construct_tENS_5tupleIJRKS7_EEENSP_IJEEEEEENS_4pairINS_15__hash_iteratorIPNS_11__hash_nodeISA_PvEEEEbEERKT_DpOT0_, symObjAddr: 0x8BC8, symBinAddr: 0x10000BBE4, symSize: 0x4E8 }
  - { offsetInCU: 0x1CD4C, offset: 0x1CD4C, size: 0x8, addend: 0x0, symName: __ZNKSt3__115__hash_iteratorIPNS_11__hash_nodeINS_17__hash_value_typeINS_12basic_stringIcNS_11char_traitsIcEENS_9allocatorIcEEEEP4NodeEEPvEEEptB8ue170006Ev, symObjAddr: 0x90E0, symBinAddr: 0x10000C0FC, symSize: 0x30 }
  - { offsetInCU: 0x1CD71, offset: 0x1CD71, size: 0x8, addend: 0x0, symName: __ZNSt3__117__hash_value_typeINS_12basic_stringIcNS_11char_traitsIcEENS_9allocatorIcEEEEP4NodeE11__get_valueB8ue170006Ev, symObjAddr: 0x9110, symBinAddr: 0x10000C12C, symSize: 0x14 }
  - { offsetInCU: 0x1CD96, offset: 0x1CD96, size: 0x8, addend: 0x0, symName: __ZNSt3__112__hash_tableINS_17__hash_value_typeINS_12basic_stringIcNS_11char_traitsIcEENS_9allocatorIcEEEEP4NodeEENS_22__unordered_map_hasherIS7_SA_NS_4hashIS7_EENS_8equal_toIS7_EELb1EEENS_21__unordered_map_equalIS7_SA_SF_SD_Lb1EEENS5_ISA_EEE13hash_functionB8ue170006Ev, symObjAddr: 0x9124, symBinAddr: 0x10000C140, symSize: 0x28 }
  - { offsetInCU: 0x1CDBB, offset: 0x1CDBB, size: 0x8, addend: 0x0, symName: __ZNKSt3__122__unordered_map_hasherINS_12basic_stringIcNS_11char_traitsIcEENS_9allocatorIcEEEENS_17__hash_value_typeIS6_P4NodeEENS_4hashIS6_EENS_8equal_toIS6_EELb1EEclB8ue170006ERKS6_, symObjAddr: 0x914C, symBinAddr: 0x10000C168, symSize: 0x2C }
  - { offsetInCU: 0x1CDEF, offset: 0x1CDEF, size: 0x8, addend: 0x0, symName: __ZNKSt3__112__hash_tableINS_17__hash_value_typeINS_12basic_stringIcNS_11char_traitsIcEENS_9allocatorIcEEEEP4NodeEENS_22__unordered_map_hasherIS7_SA_NS_4hashIS7_EENS_8equal_toIS7_EELb1EEENS_21__unordered_map_equalIS7_SA_SF_SD_Lb1EEENS5_ISA_EEE12bucket_countB8ue170006Ev, symObjAddr: 0x9178, symBinAddr: 0x10000C194, symSize: 0x28 }
  - { offsetInCU: 0x1CE14, offset: 0x1CE14, size: 0x8, addend: 0x0, symName: __ZNKSt3__110unique_ptrIA_PNS_16__hash_node_baseIPNS_11__hash_nodeINS_17__hash_value_typeINS_12basic_stringIcNS_11char_traitsIcEENS_9allocatorIcEEEEP4NodeEEPvEEEENS_25__bucket_list_deallocatorINS7_ISH_EEEEEixB8ue170006Em, symObjAddr: 0x9238, symBinAddr: 0x10000C254, symSize: 0x34 }
  - { offsetInCU: 0x1CE48, offset: 0x1CE48, size: 0x8, addend: 0x0, symName: __ZNKSt3__116__hash_node_baseIPNS_11__hash_nodeINS_17__hash_value_typeINS_12basic_stringIcNS_11char_traitsIcEENS_9allocatorIcEEEEP4NodeEEPvEEE6__hashB8ue170006Ev, symObjAddr: 0x926C, symBinAddr: 0x10000C288, symSize: 0x18 }
  - { offsetInCU: 0x1CE6D, offset: 0x1CE6D, size: 0x8, addend: 0x0, symName: __ZNSt3__112__hash_tableINS_17__hash_value_typeINS_12basic_stringIcNS_11char_traitsIcEENS_9allocatorIcEEEEP4NodeEENS_22__unordered_map_hasherIS7_SA_NS_4hashIS7_EENS_8equal_toIS7_EELb1EEENS_21__unordered_map_equalIS7_SA_SF_SD_Lb1EEENS5_ISA_EEE6key_eqB8ue170006Ev, symObjAddr: 0x9284, symBinAddr: 0x10000C2A0, symSize: 0x28 }
  - { offsetInCU: 0x1CE92, offset: 0x1CE92, size: 0x8, addend: 0x0, symName: __ZNKSt3__121__unordered_map_equalINS_12basic_stringIcNS_11char_traitsIcEENS_9allocatorIcEEEENS_17__hash_value_typeIS6_P4NodeEENS_8equal_toIS6_EENS_4hashIS6_EELb1EEclB8ue170006ERKSA_RKS6_, symObjAddr: 0x92AC, symBinAddr: 0x10000C2C8, symSize: 0x48 }
  - { offsetInCU: 0x1CED5, offset: 0x1CED5, size: 0x8, addend: 0x0, symName: __ZNSt3__116__hash_node_baseIPNS_11__hash_nodeINS_17__hash_value_typeINS_12basic_stringIcNS_11char_traitsIcEENS_9allocatorIcEEEEP4NodeEEPvEEE8__upcastB8ue170006Ev, symObjAddr: 0x92F4, symBinAddr: 0x10000C310, symSize: 0x24 }
  - { offsetInCU: 0x1CEF9, offset: 0x1CEF9, size: 0x8, addend: 0x0, symName: __ZNSt3__112__hash_tableINS_17__hash_value_typeINS_12basic_stringIcNS_11char_traitsIcEENS_9allocatorIcEEEEP4NodeEENS_22__unordered_map_hasherIS7_SA_NS_4hashIS7_EENS_8equal_toIS7_EELb1EEENS_21__unordered_map_equalIS7_SA_SF_SD_Lb1EEENS5_ISA_EEE21__construct_node_hashIRKNS_21piecewise_construct_tEJNS_5tupleIJRKS7_EEENSP_IJEEEEEENS_10unique_ptrINS_11__hash_nodeISA_PvEENS_22__hash_node_destructorINS5_ISX_EEEEEEmOT_DpOT0_, symObjAddr: 0x9318, symBinAddr: 0x10000C334, symSize: 0x150 }
  - { offsetInCU: 0x1CF94, offset: 0x1CF94, size: 0x8, addend: 0x0, symName: __ZNSt3__112__hash_tableINS_17__hash_value_typeINS_12basic_stringIcNS_11char_traitsIcEENS_9allocatorIcEEEEP4NodeEENS_22__unordered_map_hasherIS7_SA_NS_4hashIS7_EENS_8equal_toIS7_EELb1EEENS_21__unordered_map_equalIS7_SA_SF_SD_Lb1EEENS5_ISA_EEE4sizeB8ue170006Ev, symObjAddr: 0x9468, symBinAddr: 0x10000C484, symSize: 0x28 }
  - { offsetInCU: 0x1CFB9, offset: 0x1CFB9, size: 0x8, addend: 0x0, symName: __ZNSt3__112__hash_tableINS_17__hash_value_typeINS_12basic_stringIcNS_11char_traitsIcEENS_9allocatorIcEEEEP4NodeEENS_22__unordered_map_hasherIS7_SA_NS_4hashIS7_EENS_8equal_toIS7_EELb1EEENS_21__unordered_map_equalIS7_SA_SF_SD_Lb1EEENS5_ISA_EEE15max_load_factorB8ue170006Ev, symObjAddr: 0x9490, symBinAddr: 0x10000C4AC, symSize: 0x28 }
  - { offsetInCU: 0x1CFDE, offset: 0x1CFDE, size: 0x8, addend: 0x0, symName: __ZNSt3__112__hash_tableINS_17__hash_value_typeINS_12basic_stringIcNS_11char_traitsIcEENS_9allocatorIcEEEEP4NodeEENS_22__unordered_map_hasherIS7_SA_NS_4hashIS7_EENS_8equal_toIS7_EELb1EEENS_21__unordered_map_equalIS7_SA_SF_SD_Lb1EEENS5_ISA_EEE15__rehash_uniqueB8ue170006Em, symObjAddr: 0x94B8, symBinAddr: 0x10000C4D4, symSize: 0x2C }
  - { offsetInCU: 0x1D011, offset: 0x1D011, size: 0x8, addend: 0x0, symName: __Z4ceilB8ue170006f, symObjAddr: 0x9534, symBinAddr: 0x10000C550, symSize: 0x18 }
  - { offsetInCU: 0x1D040, offset: 0x1D040, size: 0x8, addend: 0x0, symName: __ZNSt3__117__compressed_pairINS_16__hash_node_baseIPNS_11__hash_nodeINS_17__hash_value_typeINS_12basic_stringIcNS_11char_traitsIcEENS_9allocatorIcEEEEP4NodeEEPvEEEENS7_ISE_EEE5firstB8ue170006Ev, symObjAddr: 0x954C, symBinAddr: 0x10000C568, symSize: 0x24 }
  - { offsetInCU: 0x1D065, offset: 0x1D065, size: 0x8, addend: 0x0, symName: __ZNSt3__116__hash_node_baseIPNS_11__hash_nodeINS_17__hash_value_typeINS_12basic_stringIcNS_11char_traitsIcEENS_9allocatorIcEEEEP4NodeEEPvEEE5__ptrB8ue170006Ev, symObjAddr: 0x9570, symBinAddr: 0x10000C58C, symSize: 0x24 }
  - { offsetInCU: 0x1D08A, offset: 0x1D08A, size: 0x8, addend: 0x0, symName: __ZNKSt3__110unique_ptrINS_11__hash_nodeINS_17__hash_value_typeINS_12basic_stringIcNS_11char_traitsIcEENS_9allocatorIcEEEEP4NodeEEPvEENS_22__hash_node_destructorINS6_ISD_EEEEEptB8ue170006Ev, symObjAddr: 0x9594, symBinAddr: 0x10000C5B0, symSize: 0x28 }
  - { offsetInCU: 0x1D0AF, offset: 0x1D0AF, size: 0x8, addend: 0x0, symName: __ZNKSt3__110unique_ptrINS_11__hash_nodeINS_17__hash_value_typeINS_12basic_stringIcNS_11char_traitsIcEENS_9allocatorIcEEEEP4NodeEEPvEENS_22__hash_node_destructorINS6_ISD_EEEEE3getB8ue170006Ev, symObjAddr: 0x95BC, symBinAddr: 0x10000C5D8, symSize: 0x28 }
  - { offsetInCU: 0x1D0D4, offset: 0x1D0D4, size: 0x8, addend: 0x0, symName: __ZNSt3__110unique_ptrINS_11__hash_nodeINS_17__hash_value_typeINS_12basic_stringIcNS_11char_traitsIcEENS_9allocatorIcEEEEP4NodeEEPvEENS_22__hash_node_destructorINS6_ISD_EEEEE7releaseB8ue170006Ev, symObjAddr: 0x95E4, symBinAddr: 0x10000C600, symSize: 0x44 }
  - { offsetInCU: 0x1D108, offset: 0x1D108, size: 0x8, addend: 0x0, symName: __ZNSt3__110unique_ptrINS_11__hash_nodeINS_17__hash_value_typeINS_12basic_stringIcNS_11char_traitsIcEENS_9allocatorIcEEEEP4NodeEEPvEENS_22__hash_node_destructorINS6_ISD_EEEEED1B8ue170006Ev, symObjAddr: 0x9628, symBinAddr: 0x10000C644, symSize: 0x2C }
  - { offsetInCU: 0x1D131, offset: 0x1D131, size: 0x8, addend: 0x0, symName: __ZNSt3__115__hash_iteratorIPNS_11__hash_nodeINS_17__hash_value_typeINS_12basic_stringIcNS_11char_traitsIcEENS_9allocatorIcEEEEP4NodeEEPvEEEC1B8ue170006EPNS_16__hash_node_baseISE_EE, symObjAddr: 0x9654, symBinAddr: 0x10000C670, symSize: 0x34 }
  - { offsetInCU: 0x1D173, offset: 0x1D173, size: 0x8, addend: 0x0, symName: __ZNSt3__14pairINS_15__hash_iteratorIPNS_11__hash_nodeINS_17__hash_value_typeINS_12basic_stringIcNS_11char_traitsIcEENS_9allocatorIcEEEEP4NodeEEPvEEEEbEC1B8ue170006ISG_RbLSD_0EEEOT_OT0_, symObjAddr: 0x9688, symBinAddr: 0x10000C6A4, symSize: 0x3C }
  - { offsetInCU: 0x1D1D0, offset: 0x1D1D0, size: 0x8, addend: 0x0, symName: __ZNSt3__117__compressed_pairImNS_22__unordered_map_hasherINS_12basic_stringIcNS_11char_traitsIcEENS_9allocatorIcEEEENS_17__hash_value_typeIS7_P4NodeEENS_4hashIS7_EENS_8equal_toIS7_EELb1EEEE6secondB8ue170006Ev, symObjAddr: 0x96C4, symBinAddr: 0x10000C6E0, symSize: 0x24 }
  - { offsetInCU: 0x1D1F5, offset: 0x1D1F5, size: 0x8, addend: 0x0, symName: __ZNSt3__122__compressed_pair_elemINS_22__unordered_map_hasherINS_12basic_stringIcNS_11char_traitsIcEENS_9allocatorIcEEEENS_17__hash_value_typeIS7_P4NodeEENS_4hashIS7_EENS_8equal_toIS7_EELb1EEELi1ELb1EE5__getB8ue170006Ev, symObjAddr: 0x96E8, symBinAddr: 0x10000C704, symSize: 0x14 }
  - { offsetInCU: 0x1D21A, offset: 0x1D21A, size: 0x8, addend: 0x0, symName: __ZNKSt3__113__string_hashIcNS_9allocatorIcEEEclB8ue170006ERKNS_12basic_stringIcNS_11char_traitsIcEES2_EE, symObjAddr: 0x96FC, symBinAddr: 0x10000C718, symSize: 0x64 }
  - { offsetInCU: 0x1D24E, offset: 0x1D24E, size: 0x8, addend: 0x0, symName: __ZNKSt3__121__murmur2_or_cityhashImLm64EEclB8ue170006EPKvm, symObjAddr: 0x979C, symBinAddr: 0x10000C7B8, symSize: 0x410 }
  - { offsetInCU: 0x1D2E7, offset: 0x1D2E7, size: 0x8, addend: 0x0, symName: __ZNSt3__121__murmur2_or_cityhashImLm64EE18__hash_len_0_to_16B8ue170006EPKcm, symObjAddr: 0x9BAC, symBinAddr: 0x10000CBC8, symSize: 0x1C0 }
  - { offsetInCU: 0x1D3C3, offset: 0x1D3C3, size: 0x8, addend: 0x0, symName: __ZNSt3__121__murmur2_or_cityhashImLm64EE19__hash_len_17_to_32B8ue170006EPKcm, symObjAddr: 0x9D6C, symBinAddr: 0x10000CD88, symSize: 0x130 }
  - { offsetInCU: 0x1D42C, offset: 0x1D42C, size: 0x8, addend: 0x0, symName: __ZNSt3__121__murmur2_or_cityhashImLm64EE19__hash_len_33_to_64B8ue170006EPKcm, symObjAddr: 0x9E9C, symBinAddr: 0x10000CEB8, symSize: 0x2B8 }
  - { offsetInCU: 0x1D4E1, offset: 0x1D4E1, size: 0x8, addend: 0x0, symName: __ZNSt3__121__murmur2_or_cityhashImLm64EE13__hash_len_16B8ue170006Emm, symObjAddr: 0xA174, symBinAddr: 0x10000D190, symSize: 0x80 }
  - { offsetInCU: 0x1D53C, offset: 0x1D53C, size: 0x8, addend: 0x0, symName: __ZNSt3__121__murmur2_or_cityhashImLm64EE29__weak_hash_len_32_with_seedsB8ue170006EPKcmm, symObjAddr: 0xA1F4, symBinAddr: 0x10000D210, symSize: 0x88 }
  - { offsetInCU: 0x1D57B, offset: 0x1D57B, size: 0x8, addend: 0x0, symName: __ZNSt3__121__murmur2_or_cityhashImLm64EE8__rotateB8ue170006Emi, symObjAddr: 0xA27C, symBinAddr: 0x10000D298, symSize: 0x64 }
  - { offsetInCU: 0x1D5AC, offset: 0x1D5AC, size: 0x8, addend: 0x0, symName: __ZNSt3__14pairImmEaSB8ue170006EOS1_, symObjAddr: 0xA2E0, symBinAddr: 0x10000D2FC, symSize: 0x30 }
  - { offsetInCU: 0x1D5E0, offset: 0x1D5E0, size: 0x8, addend: 0x0, symName: __ZNSt3__121__murmur2_or_cityhashImLm64EE11__shift_mixB8ue170006Em, symObjAddr: 0xA34C, symBinAddr: 0x10000D368, symSize: 0x1C }
  - { offsetInCU: 0x1D603, offset: 0x1D603, size: 0x8, addend: 0x0, symName: __ZNSt3__121__murmur2_or_cityhashImLm64EE22__rotate_by_at_least_1B8ue170006Emi, symObjAddr: 0xA368, symBinAddr: 0x10000D384, symSize: 0x38 }
  - { offsetInCU: 0x1D634, offset: 0x1D634, size: 0x8, addend: 0x0, symName: __ZNSt3__121__murmur2_or_cityhashImLm64EE29__weak_hash_len_32_with_seedsB8ue170006Emmmmmm, symObjAddr: 0xA3C0, symBinAddr: 0x10000D3DC, symSize: 0xD8 }
  - { offsetInCU: 0x1D6B0, offset: 0x1D6B0, size: 0x8, addend: 0x0, symName: __ZNSt3__14pairImmEC1B8ue170006ImmLPv0EEEOT_OT0_, symObjAddr: 0xA498, symBinAddr: 0x10000D4B4, symSize: 0x3C }
  - { offsetInCU: 0x1D70D, offset: 0x1D70D, size: 0x8, addend: 0x0, symName: __ZNSt3__14pairImmEC2B8ue170006ImmLPv0EEEOT_OT0_, symObjAddr: 0xA4D4, symBinAddr: 0x10000D4F0, symSize: 0x34 }
  - { offsetInCU: 0x1D76A, offset: 0x1D76A, size: 0x8, addend: 0x0, symName: __ZNKSt3__110unique_ptrIA_PNS_16__hash_node_baseIPNS_11__hash_nodeINS_17__hash_value_typeINS_12basic_stringIcNS_11char_traitsIcEENS_9allocatorIcEEEEP4NodeEEPvEEEENS_25__bucket_list_deallocatorINS7_ISH_EEEEE11get_deleterB8ue170006Ev, symObjAddr: 0xA508, symBinAddr: 0x10000D524, symSize: 0x24 }
  - { offsetInCU: 0x1D78F, offset: 0x1D78F, size: 0x8, addend: 0x0, symName: __ZNKSt3__125__bucket_list_deallocatorINS_9allocatorIPNS_16__hash_node_baseIPNS_11__hash_nodeINS_17__hash_value_typeINS_12basic_stringIcNS_11char_traitsIcEENS1_IcEEEEP4NodeEEPvEEEEEEE4sizeB8ue170006Ev, symObjAddr: 0xA52C, symBinAddr: 0x10000D548, symSize: 0x28 }
  - { offsetInCU: 0x1D7B4, offset: 0x1D7B4, size: 0x8, addend: 0x0, symName: __ZNKSt3__117__compressed_pairIPPNS_16__hash_node_baseIPNS_11__hash_nodeINS_17__hash_value_typeINS_12basic_stringIcNS_11char_traitsIcEENS_9allocatorIcEEEEP4NodeEEPvEEEENS_25__bucket_list_deallocatorINS7_ISH_EEEEE6secondB8ue170006Ev, symObjAddr: 0xA554, symBinAddr: 0x10000D570, symSize: 0x28 }
  - { offsetInCU: 0x1D7D9, offset: 0x1D7D9, size: 0x8, addend: 0x0, symName: __ZNKSt3__122__compressed_pair_elemINS_25__bucket_list_deallocatorINS_9allocatorIPNS_16__hash_node_baseIPNS_11__hash_nodeINS_17__hash_value_typeINS_12basic_stringIcNS_11char_traitsIcEENS2_IcEEEEP4NodeEEPvEEEEEEEELi1ELb0EE5__getB8ue170006Ev, symObjAddr: 0xA57C, symBinAddr: 0x10000D598, symSize: 0x14 }
  - { offsetInCU: 0x1D7FE, offset: 0x1D7FE, size: 0x8, addend: 0x0, symName: __ZNKSt3__117__compressed_pairImNS_9allocatorIPNS_16__hash_node_baseIPNS_11__hash_nodeINS_17__hash_value_typeINS_12basic_stringIcNS_11char_traitsIcEENS1_IcEEEEP4NodeEEPvEEEEEEE5firstB8ue170006Ev, symObjAddr: 0xA590, symBinAddr: 0x10000D5AC, symSize: 0x24 }
  - { offsetInCU: 0x1D823, offset: 0x1D823, size: 0x8, addend: 0x0, symName: __ZNKSt3__122__compressed_pair_elemImLi0ELb0EE5__getB8ue170006Ev, symObjAddr: 0xA5B4, symBinAddr: 0x10000D5D0, symSize: 0x14 }
  - { offsetInCU: 0x1D848, offset: 0x1D848, size: 0x8, addend: 0x0, symName: __ZNKSt3__117__compressed_pairIPPNS_16__hash_node_baseIPNS_11__hash_nodeINS_17__hash_value_typeINS_12basic_stringIcNS_11char_traitsIcEENS_9allocatorIcEEEEP4NodeEEPvEEEENS_25__bucket_list_deallocatorINS7_ISH_EEEEE5firstB8ue170006Ev, symObjAddr: 0xA5C8, symBinAddr: 0x10000D5E4, symSize: 0x24 }
  - { offsetInCU: 0x1D86D, offset: 0x1D86D, size: 0x8, addend: 0x0, symName: __ZNKSt3__122__compressed_pair_elemIPPNS_16__hash_node_baseIPNS_11__hash_nodeINS_17__hash_value_typeINS_12basic_stringIcNS_11char_traitsIcEENS_9allocatorIcEEEEP4NodeEEPvEEEELi0ELb0EE5__getB8ue170006Ev, symObjAddr: 0xA5EC, symBinAddr: 0x10000D608, symSize: 0x14 }
  - { offsetInCU: 0x1D892, offset: 0x1D892, size: 0x8, addend: 0x0, symName: __ZNSt3__117__compressed_pairIfNS_21__unordered_map_equalINS_12basic_stringIcNS_11char_traitsIcEENS_9allocatorIcEEEENS_17__hash_value_typeIS7_P4NodeEENS_8equal_toIS7_EENS_4hashIS7_EELb1EEEE6secondB8ue170006Ev, symObjAddr: 0xA600, symBinAddr: 0x10000D61C, symSize: 0x24 }
  - { offsetInCU: 0x1D8B7, offset: 0x1D8B7, size: 0x8, addend: 0x0, symName: __ZNSt3__122__compressed_pair_elemINS_21__unordered_map_equalINS_12basic_stringIcNS_11char_traitsIcEENS_9allocatorIcEEEENS_17__hash_value_typeIS7_P4NodeEENS_8equal_toIS7_EENS_4hashIS7_EELb1EEELi1ELb1EE5__getB8ue170006Ev, symObjAddr: 0xA624, symBinAddr: 0x10000D640, symSize: 0x14 }
  - { offsetInCU: 0x1D8DC, offset: 0x1D8DC, size: 0x8, addend: 0x0, symName: __ZNKSt3__18equal_toINS_12basic_stringIcNS_11char_traitsIcEENS_9allocatorIcEEEEEclB8ue170006ERKS6_S9_, symObjAddr: 0xA638, symBinAddr: 0x10000D654, symSize: 0x34 }
  - { offsetInCU: 0x1D91F, offset: 0x1D91F, size: 0x8, addend: 0x0, symName: __ZNKSt3__117__hash_value_typeINS_12basic_stringIcNS_11char_traitsIcEENS_9allocatorIcEEEEP4NodeE11__get_valueB8ue170006Ev, symObjAddr: 0xA66C, symBinAddr: 0x10000D688, symSize: 0x14 }
  - { offsetInCU: 0x1D944, offset: 0x1D944, size: 0x8, addend: 0x0, symName: __ZNSt3__114pointer_traitsIPNS_16__hash_node_baseIPNS_11__hash_nodeINS_17__hash_value_typeINS_12basic_stringIcNS_11char_traitsIcEENS_9allocatorIcEEEEP4NodeEEPvEEEEE10pointer_toB8ue170006ERSG_, symObjAddr: 0xA680, symBinAddr: 0x10000D69C, symSize: 0x14 }
  - { offsetInCU: 0x1D967, offset: 0x1D967, size: 0x8, addend: 0x0, symName: __ZNSt3__112__hash_tableINS_17__hash_value_typeINS_12basic_stringIcNS_11char_traitsIcEENS_9allocatorIcEEEEP4NodeEENS_22__unordered_map_hasherIS7_SA_NS_4hashIS7_EENS_8equal_toIS7_EELb1EEENS_21__unordered_map_equalIS7_SA_SF_SD_Lb1EEENS5_ISA_EEE12__node_allocB8ue170006Ev, symObjAddr: 0xA694, symBinAddr: 0x10000D6B0, symSize: 0x28 }
  - { offsetInCU: 0x1D98C, offset: 0x1D98C, size: 0x8, addend: 0x0, symName: __ZNSt3__116allocator_traitsINS_9allocatorINS_11__hash_nodeINS_17__hash_value_typeINS_12basic_stringIcNS_11char_traitsIcEENS1_IcEEEEP4NodeEEPvEEEEE8allocateB8ue170006ERSE_m, symObjAddr: 0xA6BC, symBinAddr: 0x10000D6D8, symSize: 0x2C }
  - { offsetInCU: 0x1D9BF, offset: 0x1D9BF, size: 0x8, addend: 0x0, symName: __ZNSt3__122__hash_node_destructorINS_9allocatorINS_11__hash_nodeINS_17__hash_value_typeINS_12basic_stringIcNS_11char_traitsIcEENS1_IcEEEEP4NodeEEPvEEEEEC1B8ue170006ERSE_b, symObjAddr: 0xA6E8, symBinAddr: 0x10000D704, symSize: 0x48 }
  - { offsetInCU: 0x1DA0B, offset: 0x1DA0B, size: 0x8, addend: 0x0, symName: __ZNSt3__110unique_ptrINS_11__hash_nodeINS_17__hash_value_typeINS_12basic_stringIcNS_11char_traitsIcEENS_9allocatorIcEEEEP4NodeEEPvEENS_22__hash_node_destructorINS6_ISD_EEEEEC1B8ue170006ILb1EvEEPSD_NS_16__dependent_typeINS_27__unique_ptr_deleter_sfinaeISG_EEXT_EE20__good_rval_ref_typeE, symObjAddr: 0xA730, symBinAddr: 0x10000D74C, symSize: 0x3C }
  - { offsetInCU: 0x1DA5B, offset: 0x1DA5B, size: 0x8, addend: 0x0, symName: __ZNSt3__116allocator_traitsINS_9allocatorINS_11__hash_nodeINS_17__hash_value_typeINS_12basic_stringIcNS_11char_traitsIcEENS1_IcEEEEP4NodeEEPvEEEEE9constructB8ue170006INS_4pairIKS8_SA_EEJRKNS_21piecewise_construct_tENS_5tupleIJRSI_EEENSN_IJEEEEvEEvRSE_PT_DpOT0_, symObjAddr: 0xA76C, symBinAddr: 0x10000D788, symSize: 0x44 }
  - { offsetInCU: 0x1DADA, offset: 0x1DADA, size: 0x8, addend: 0x0, symName: __ZNSt3__122__hash_key_value_typesINS_17__hash_value_typeINS_12basic_stringIcNS_11char_traitsIcEENS_9allocatorIcEEEEP4NodeEEE9__get_ptrB8ue170006ERSA_, symObjAddr: 0xA7B0, symBinAddr: 0x10000D7CC, symSize: 0x24 }
  - { offsetInCU: 0x1DAFD, offset: 0x1DAFD, size: 0x8, addend: 0x0, symName: __ZNSt3__110unique_ptrINS_11__hash_nodeINS_17__hash_value_typeINS_12basic_stringIcNS_11char_traitsIcEENS_9allocatorIcEEEEP4NodeEEPvEENS_22__hash_node_destructorINS6_ISD_EEEEE11get_deleterB8ue170006Ev, symObjAddr: 0xA7D4, symBinAddr: 0x10000D7F0, symSize: 0x24 }
  - { offsetInCU: 0x1DB22, offset: 0x1DB22, size: 0x8, addend: 0x0, symName: __ZNSt3__117__compressed_pairINS_16__hash_node_baseIPNS_11__hash_nodeINS_17__hash_value_typeINS_12basic_stringIcNS_11char_traitsIcEENS_9allocatorIcEEEEP4NodeEEPvEEEENS7_ISE_EEE6secondB8ue170006Ev, symObjAddr: 0xA7F8, symBinAddr: 0x10000D814, symSize: 0x24 }
  - { offsetInCU: 0x1DB47, offset: 0x1DB47, size: 0x8, addend: 0x0, symName: __ZNSt3__122__compressed_pair_elemINS_9allocatorINS_11__hash_nodeINS_17__hash_value_typeINS_12basic_stringIcNS_11char_traitsIcEENS1_IcEEEEP4NodeEEPvEEEELi1ELb1EE5__getB8ue170006Ev, symObjAddr: 0xA81C, symBinAddr: 0x10000D838, symSize: 0x14 }
  - { offsetInCU: 0x1DB6C, offset: 0x1DB6C, size: 0x8, addend: 0x0, symName: __ZNSt3__19allocatorINS_11__hash_nodeINS_17__hash_value_typeINS_12basic_stringIcNS_11char_traitsIcEENS0_IcEEEEP4NodeEEPvEEE8allocateB8ue170006Em, symObjAddr: 0xA830, symBinAddr: 0x10000D84C, symSize: 0x5C }
  - { offsetInCU: 0x1DBA9, offset: 0x1DBA9, size: 0x8, addend: 0x0, symName: __ZNSt3__116allocator_traitsINS_9allocatorINS_11__hash_nodeINS_17__hash_value_typeINS_12basic_stringIcNS_11char_traitsIcEENS1_IcEEEEP4NodeEEPvEEEEE8max_sizeB8ue170006ISE_vEEmRKSE_, symObjAddr: 0xA88C, symBinAddr: 0x10000D8A8, symSize: 0x24 }
  - { offsetInCU: 0x1DBD7, offset: 0x1DBD7, size: 0x8, addend: 0x0, symName: __ZNKSt3__19allocatorINS_11__hash_nodeINS_17__hash_value_typeINS_12basic_stringIcNS_11char_traitsIcEENS0_IcEEEEP4NodeEEPvEEE8max_sizeB8ue170006Ev, symObjAddr: 0xA8B0, symBinAddr: 0x10000D8CC, symSize: 0x18 }
  - { offsetInCU: 0x1DBFC, offset: 0x1DBFC, size: 0x8, addend: 0x0, symName: __ZNSt3__122__hash_node_destructorINS_9allocatorINS_11__hash_nodeINS_17__hash_value_typeINS_12basic_stringIcNS_11char_traitsIcEENS1_IcEEEEP4NodeEEPvEEEEEC2B8ue170006ERSE_b, symObjAddr: 0xA8C8, symBinAddr: 0x10000D8E4, symSize: 0x38 }
  - { offsetInCU: 0x1DC43, offset: 0x1DC43, size: 0x8, addend: 0x0, symName: __ZNSt3__110unique_ptrINS_11__hash_nodeINS_17__hash_value_typeINS_12basic_stringIcNS_11char_traitsIcEENS_9allocatorIcEEEEP4NodeEEPvEENS_22__hash_node_destructorINS6_ISD_EEEEEC2B8ue170006ILb1EvEEPSD_NS_16__dependent_typeINS_27__unique_ptr_deleter_sfinaeISG_EEXT_EE20__good_rval_ref_typeE, symObjAddr: 0xA900, symBinAddr: 0x10000D91C, symSize: 0x48 }
  - { offsetInCU: 0x1DC93, offset: 0x1DC93, size: 0x8, addend: 0x0, symName: __ZNSt3__117__compressed_pairIPNS_11__hash_nodeINS_17__hash_value_typeINS_12basic_stringIcNS_11char_traitsIcEENS_9allocatorIcEEEEP4NodeEEPvEENS_22__hash_node_destructorINS6_ISD_EEEEEC1B8ue170006IRSE_SH_EEOT_OT0_, symObjAddr: 0xA948, symBinAddr: 0x10000D964, symSize: 0x3C }
  - { offsetInCU: 0x1DCEA, offset: 0x1DCEA, size: 0x8, addend: 0x0, symName: __ZNSt3__117__compressed_pairIPNS_11__hash_nodeINS_17__hash_value_typeINS_12basic_stringIcNS_11char_traitsIcEENS_9allocatorIcEEEEP4NodeEEPvEENS_22__hash_node_destructorINS6_ISD_EEEEEC2B8ue170006IRSE_SH_EEOT_OT0_, symObjAddr: 0xA984, symBinAddr: 0x10000D9A0, symSize: 0x48 }
  - { offsetInCU: 0x1DD41, offset: 0x1DD41, size: 0x8, addend: 0x0, symName: __ZNSt3__122__compressed_pair_elemIPNS_11__hash_nodeINS_17__hash_value_typeINS_12basic_stringIcNS_11char_traitsIcEENS_9allocatorIcEEEEP4NodeEEPvEELi0ELb0EEC2B8ue170006IRSE_vEEOT_, symObjAddr: 0xA9CC, symBinAddr: 0x10000D9E8, symSize: 0x24 }
  - { offsetInCU: 0x1DD82, offset: 0x1DD82, size: 0x8, addend: 0x0, symName: __ZNSt3__122__compressed_pair_elemINS_22__hash_node_destructorINS_9allocatorINS_11__hash_nodeINS_17__hash_value_typeINS_12basic_stringIcNS_11char_traitsIcEENS2_IcEEEEP4NodeEEPvEEEEEELi1ELb0EEC2B8ue170006ISG_vEEOT_, symObjAddr: 0xA9F0, symBinAddr: 0x10000DA0C, symSize: 0x24 }
  - { offsetInCU: 0x1DDC3, offset: 0x1DDC3, size: 0x8, addend: 0x0, symName: __ZNSt3__19allocatorINS_11__hash_nodeINS_17__hash_value_typeINS_12basic_stringIcNS_11char_traitsIcEENS0_IcEEEEP4NodeEEPvEEE9constructB8ue170006INS_4pairIKS7_S9_EEJRKNS_21piecewise_construct_tENS_5tupleIJRSG_EEENSL_IJEEEEEEvPT_DpOT0_, symObjAddr: 0xAA14, symBinAddr: 0x10000DA30, symSize: 0x44 }
  - { offsetInCU: 0x1DE3E, offset: 0x1DE3E, size: 0x8, addend: 0x0, symName: __ZNSt3__14pairIKNS_12basic_stringIcNS_11char_traitsIcEENS_9allocatorIcEEEEP4NodeEC1B8ue170006IJRS7_EJEEENS_21piecewise_construct_tENS_5tupleIJDpT_EEENSE_IJDpT0_EEE, symObjAddr: 0xAA58, symBinAddr: 0x10000DA74, symSize: 0x3C }
  - { offsetInCU: 0x1DEA4, offset: 0x1DEA4, size: 0x8, addend: 0x0, symName: __ZNSt3__14pairIKNS_12basic_stringIcNS_11char_traitsIcEENS_9allocatorIcEEEEP4NodeEC1B8ue170006IJRS7_EJEJLm0EEJEEENS_21piecewise_construct_tERNS_5tupleIJDpT_EEERNSE_IJDpT0_EEENS_15__tuple_indicesIJXspT1_EEEENSN_IJXspT2_EEEE, symObjAddr: 0xAA94, symBinAddr: 0x10000DAB0, symSize: 0x3C }
  - { offsetInCU: 0x1DF33, offset: 0x1DF33, size: 0x8, addend: 0x0, symName: __ZNSt3__14pairIKNS_12basic_stringIcNS_11char_traitsIcEENS_9allocatorIcEEEEP4NodeEC2B8ue170006IJRS7_EJEJLm0EEJEEENS_21piecewise_construct_tERNS_5tupleIJDpT_EEERNSE_IJDpT0_EEENS_15__tuple_indicesIJXspT1_EEEENSN_IJXspT2_EEEE, symObjAddr: 0xAAD0, symBinAddr: 0x10000DAEC, symSize: 0x48 }
  - { offsetInCU: 0x1DFC2, offset: 0x1DFC2, size: 0x8, addend: 0x0, symName: __ZNSt3__112__tuple_leafILm0ERKNS_12basic_stringIcNS_11char_traitsIcEENS_9allocatorIcEEEELb0EE3getB8ue170006Ev, symObjAddr: 0xAB3C, symBinAddr: 0x10000DB58, symSize: 0x18 }
  - { offsetInCU: 0x1DFE7, offset: 0x1DFE7, size: 0x8, addend: 0x0, symName: __ZNSt3__117__compressed_pairIPNS_11__hash_nodeINS_17__hash_value_typeINS_12basic_stringIcNS_11char_traitsIcEENS_9allocatorIcEEEEP4NodeEEPvEENS_22__hash_node_destructorINS6_ISD_EEEEE6secondB8ue170006Ev, symObjAddr: 0xAB54, symBinAddr: 0x10000DB70, symSize: 0x28 }
  - { offsetInCU: 0x1E00C, offset: 0x1E00C, size: 0x8, addend: 0x0, symName: __ZNSt3__122__compressed_pair_elemINS_22__hash_node_destructorINS_9allocatorINS_11__hash_nodeINS_17__hash_value_typeINS_12basic_stringIcNS_11char_traitsIcEENS2_IcEEEEP4NodeEEPvEEEEEELi1ELb0EE5__getB8ue170006Ev, symObjAddr: 0xAB7C, symBinAddr: 0x10000DB98, symSize: 0x14 }
  - { offsetInCU: 0x1E031, offset: 0x1E031, size: 0x8, addend: 0x0, symName: __ZNSt3__117__compressed_pairImNS_22__unordered_map_hasherINS_12basic_stringIcNS_11char_traitsIcEENS_9allocatorIcEEEENS_17__hash_value_typeIS7_P4NodeEENS_4hashIS7_EENS_8equal_toIS7_EELb1EEEE5firstB8ue170006Ev, symObjAddr: 0xAB90, symBinAddr: 0x10000DBAC, symSize: 0x24 }
  - { offsetInCU: 0x1E056, offset: 0x1E056, size: 0x8, addend: 0x0, symName: __ZNSt3__122__compressed_pair_elemImLi0ELb0EE5__getB8ue170006Ev, symObjAddr: 0xABB4, symBinAddr: 0x10000DBD0, symSize: 0x14 }
  - { offsetInCU: 0x1E07B, offset: 0x1E07B, size: 0x8, addend: 0x0, symName: __ZNSt3__117__compressed_pairIfNS_21__unordered_map_equalINS_12basic_stringIcNS_11char_traitsIcEENS_9allocatorIcEEEENS_17__hash_value_typeIS7_P4NodeEENS_8equal_toIS7_EENS_4hashIS7_EELb1EEEE5firstB8ue170006Ev, symObjAddr: 0xABC8, symBinAddr: 0x10000DBE4, symSize: 0x24 }
  - { offsetInCU: 0x1E0A0, offset: 0x1E0A0, size: 0x8, addend: 0x0, symName: __ZNSt3__122__compressed_pair_elemIfLi0ELb0EE5__getB8ue170006Ev, symObjAddr: 0xABEC, symBinAddr: 0x10000DC08, symSize: 0x14 }
  - { offsetInCU: 0x1E0C4, offset: 0x1E0C4, size: 0x8, addend: 0x0, symName: __ZNSt3__112__hash_tableINS_17__hash_value_typeINS_12basic_stringIcNS_11char_traitsIcEENS_9allocatorIcEEEEP4NodeEENS_22__unordered_map_hasherIS7_SA_NS_4hashIS7_EENS_8equal_toIS7_EELb1EEENS_21__unordered_map_equalIS7_SA_SF_SD_Lb1EEENS5_ISA_EEE8__rehashILb1EEEvm, symObjAddr: 0xAC00, symBinAddr: 0x10000DC1C, symSize: 0x1A8 }
  - { offsetInCU: 0x1E112, offset: 0x1E112, size: 0x8, addend: 0x0, symName: __ZNSt3__112__hash_tableINS_17__hash_value_typeINS_12basic_stringIcNS_11char_traitsIcEENS_9allocatorIcEEEEP4NodeEENS_22__unordered_map_hasherIS7_SA_NS_4hashIS7_EENS_8equal_toIS7_EELb1EEENS_21__unordered_map_equalIS7_SA_SF_SD_Lb1EEENS5_ISA_EEE11__do_rehashILb1EEEvm, symObjAddr: 0xADA8, symBinAddr: 0x10000DDC4, symSize: 0x288 }
  - { offsetInCU: 0x1E1F8, offset: 0x1E1F8, size: 0x8, addend: 0x0, symName: __ZNSt3__110unique_ptrIA_PNS_16__hash_node_baseIPNS_11__hash_nodeINS_17__hash_value_typeINS_12basic_stringIcNS_11char_traitsIcEENS_9allocatorIcEEEEP4NodeEEPvEEEENS_25__bucket_list_deallocatorINS7_ISH_EEEEE11get_deleterB8ue170006Ev, symObjAddr: 0xB09C, symBinAddr: 0x10000E0B8, symSize: 0x24 }
  - { offsetInCU: 0x1E21D, offset: 0x1E21D, size: 0x8, addend: 0x0, symName: __ZNSt3__125__bucket_list_deallocatorINS_9allocatorIPNS_16__hash_node_baseIPNS_11__hash_nodeINS_17__hash_value_typeINS_12basic_stringIcNS_11char_traitsIcEENS1_IcEEEEP4NodeEEPvEEEEEEE7__allocB8ue170006Ev, symObjAddr: 0xB0C0, symBinAddr: 0x10000E0DC, symSize: 0x24 }
  - { offsetInCU: 0x1E242, offset: 0x1E242, size: 0x8, addend: 0x0, symName: __ZNSt3__110unique_ptrIA_PNS_16__hash_node_baseIPNS_11__hash_nodeINS_17__hash_value_typeINS_12basic_stringIcNS_11char_traitsIcEENS_9allocatorIcEEEEP4NodeEEPvEEEENS_25__bucket_list_deallocatorINS7_ISH_EEEEE5resetB8ue170006IPSH_EENS_9enable_ifIXsr28_CheckArrayPointerConversionIT_EE5valueEvE4typeESQ_, symObjAddr: 0xB0E4, symBinAddr: 0x10000E100, symSize: 0x78 }
  - { offsetInCU: 0x1E28E, offset: 0x1E28E, size: 0x8, addend: 0x0, symName: __ZNSt3__116allocator_traitsINS_9allocatorIPNS_16__hash_node_baseIPNS_11__hash_nodeINS_17__hash_value_typeINS_12basic_stringIcNS_11char_traitsIcEENS1_IcEEEEP4NodeEEPvEEEEEEE8allocateB8ue170006ERSI_m, symObjAddr: 0xB15C, symBinAddr: 0x10000E178, symSize: 0x2C }
  - { offsetInCU: 0x1E2C1, offset: 0x1E2C1, size: 0x8, addend: 0x0, symName: __ZNSt3__125__bucket_list_deallocatorINS_9allocatorIPNS_16__hash_node_baseIPNS_11__hash_nodeINS_17__hash_value_typeINS_12basic_stringIcNS_11char_traitsIcEENS1_IcEEEEP4NodeEEPvEEEEEEE4sizeB8ue170006Ev, symObjAddr: 0xB188, symBinAddr: 0x10000E1A4, symSize: 0x24 }
  - { offsetInCU: 0x1E2E6, offset: 0x1E2E6, size: 0x8, addend: 0x0, symName: __ZNSt3__117__compressed_pairIPPNS_16__hash_node_baseIPNS_11__hash_nodeINS_17__hash_value_typeINS_12basic_stringIcNS_11char_traitsIcEENS_9allocatorIcEEEEP4NodeEEPvEEEENS_25__bucket_list_deallocatorINS7_ISH_EEEEE6secondB8ue170006Ev, symObjAddr: 0xB1AC, symBinAddr: 0x10000E1C8, symSize: 0x28 }
  - { offsetInCU: 0x1E30B, offset: 0x1E30B, size: 0x8, addend: 0x0, symName: __ZNSt3__122__compressed_pair_elemINS_25__bucket_list_deallocatorINS_9allocatorIPNS_16__hash_node_baseIPNS_11__hash_nodeINS_17__hash_value_typeINS_12basic_stringIcNS_11char_traitsIcEENS2_IcEEEEP4NodeEEPvEEEEEEEELi1ELb0EE5__getB8ue170006Ev, symObjAddr: 0xB1D4, symBinAddr: 0x10000E1F0, symSize: 0x14 }
  - { offsetInCU: 0x1E330, offset: 0x1E330, size: 0x8, addend: 0x0, symName: __ZNSt3__117__compressed_pairImNS_9allocatorIPNS_16__hash_node_baseIPNS_11__hash_nodeINS_17__hash_value_typeINS_12basic_stringIcNS_11char_traitsIcEENS1_IcEEEEP4NodeEEPvEEEEEEE6secondB8ue170006Ev, symObjAddr: 0xB1E8, symBinAddr: 0x10000E204, symSize: 0x24 }
  - { offsetInCU: 0x1E355, offset: 0x1E355, size: 0x8, addend: 0x0, symName: __ZNSt3__122__compressed_pair_elemINS_9allocatorIPNS_16__hash_node_baseIPNS_11__hash_nodeINS_17__hash_value_typeINS_12basic_stringIcNS_11char_traitsIcEENS1_IcEEEEP4NodeEEPvEEEEEELi1ELb1EE5__getB8ue170006Ev, symObjAddr: 0xB20C, symBinAddr: 0x10000E228, symSize: 0x14 }
  - { offsetInCU: 0x1E37A, offset: 0x1E37A, size: 0x8, addend: 0x0, symName: __ZNSt3__117__compressed_pairIPPNS_16__hash_node_baseIPNS_11__hash_nodeINS_17__hash_value_typeINS_12basic_stringIcNS_11char_traitsIcEENS_9allocatorIcEEEEP4NodeEEPvEEEENS_25__bucket_list_deallocatorINS7_ISH_EEEEE5firstB8ue170006Ev, symObjAddr: 0xB220, symBinAddr: 0x10000E23C, symSize: 0x24 }
  - { offsetInCU: 0x1E39F, offset: 0x1E39F, size: 0x8, addend: 0x0, symName: __ZNSt3__125__bucket_list_deallocatorINS_9allocatorIPNS_16__hash_node_baseIPNS_11__hash_nodeINS_17__hash_value_typeINS_12basic_stringIcNS_11char_traitsIcEENS1_IcEEEEP4NodeEEPvEEEEEEEclB8ue170006EPSH_, symObjAddr: 0xB244, symBinAddr: 0x10000E260, symSize: 0x58 }
  - { offsetInCU: 0x1E3D3, offset: 0x1E3D3, size: 0x8, addend: 0x0, symName: __ZNSt3__122__compressed_pair_elemIPPNS_16__hash_node_baseIPNS_11__hash_nodeINS_17__hash_value_typeINS_12basic_stringIcNS_11char_traitsIcEENS_9allocatorIcEEEEP4NodeEEPvEEEELi0ELb0EE5__getB8ue170006Ev, symObjAddr: 0xB29C, symBinAddr: 0x10000E2B8, symSize: 0x14 }
  - { offsetInCU: 0x1E3F8, offset: 0x1E3F8, size: 0x8, addend: 0x0, symName: __ZNSt3__116allocator_traitsINS_9allocatorIPNS_16__hash_node_baseIPNS_11__hash_nodeINS_17__hash_value_typeINS_12basic_stringIcNS_11char_traitsIcEENS1_IcEEEEP4NodeEEPvEEEEEEE10deallocateB8ue170006ERSI_PSH_m, symObjAddr: 0xB2B0, symBinAddr: 0x10000E2CC, symSize: 0x34 }
  - { offsetInCU: 0x1E43A, offset: 0x1E43A, size: 0x8, addend: 0x0, symName: __ZNSt3__19allocatorIPNS_16__hash_node_baseIPNS_11__hash_nodeINS_17__hash_value_typeINS_12basic_stringIcNS_11char_traitsIcEENS0_IcEEEEP4NodeEEPvEEEEE10deallocateB8ue170006EPSG_m, symObjAddr: 0xB2E4, symBinAddr: 0x10000E300, symSize: 0x40 }
  - { offsetInCU: 0x1E47B, offset: 0x1E47B, size: 0x8, addend: 0x0, symName: __ZNSt3__19allocatorIPNS_16__hash_node_baseIPNS_11__hash_nodeINS_17__hash_value_typeINS_12basic_stringIcNS_11char_traitsIcEENS0_IcEEEEP4NodeEEPvEEEEE8allocateB8ue170006Em, symObjAddr: 0xB324, symBinAddr: 0x10000E340, symSize: 0x58 }
  - { offsetInCU: 0x1E4B8, offset: 0x1E4B8, size: 0x8, addend: 0x0, symName: __ZNSt3__116allocator_traitsINS_9allocatorIPNS_16__hash_node_baseIPNS_11__hash_nodeINS_17__hash_value_typeINS_12basic_stringIcNS_11char_traitsIcEENS1_IcEEEEP4NodeEEPvEEEEEEE8max_sizeB8ue170006ISI_vEEmRKSI_, symObjAddr: 0xB37C, symBinAddr: 0x10000E398, symSize: 0x24 }
  - { offsetInCU: 0x1E4E6, offset: 0x1E4E6, size: 0x8, addend: 0x0, symName: __ZNKSt3__19allocatorIPNS_16__hash_node_baseIPNS_11__hash_nodeINS_17__hash_value_typeINS_12basic_stringIcNS_11char_traitsIcEENS0_IcEEEEP4NodeEEPvEEEEE8max_sizeB8ue170006Ev, symObjAddr: 0xB3A0, symBinAddr: 0x10000E3BC, symSize: 0x14 }
  - { offsetInCU: 0x1E50B, offset: 0x1E50B, size: 0x8, addend: 0x0, symName: __ZNSt3__117__compressed_pairImNS_9allocatorIPNS_16__hash_node_baseIPNS_11__hash_nodeINS_17__hash_value_typeINS_12basic_stringIcNS_11char_traitsIcEENS1_IcEEEEP4NodeEEPvEEEEEEE5firstB8ue170006Ev, symObjAddr: 0xB3B4, symBinAddr: 0x10000E3D0, symSize: 0x24 }
  - { offsetInCU: 0x1E530, offset: 0x1E530, size: 0x8, addend: 0x0, symName: __ZNSt3__122__compressed_pair_elemINS_16__hash_node_baseIPNS_11__hash_nodeINS_17__hash_value_typeINS_12basic_stringIcNS_11char_traitsIcEENS_9allocatorIcEEEEP4NodeEEPvEEEELi0ELb0EE5__getB8ue170006Ev, symObjAddr: 0xB3F4, symBinAddr: 0x10000E410, symSize: 0x14 }
  - { offsetInCU: 0x1E555, offset: 0x1E555, size: 0x8, addend: 0x0, symName: __ZNKSt3__117__compressed_pairIPNS_11__hash_nodeINS_17__hash_value_typeINS_12basic_stringIcNS_11char_traitsIcEENS_9allocatorIcEEEEP4NodeEEPvEENS_22__hash_node_destructorINS6_ISD_EEEEE5firstB8ue170006Ev, symObjAddr: 0xB408, symBinAddr: 0x10000E424, symSize: 0x24 }
  - { offsetInCU: 0x1E57A, offset: 0x1E57A, size: 0x8, addend: 0x0, symName: __ZNKSt3__122__compressed_pair_elemIPNS_11__hash_nodeINS_17__hash_value_typeINS_12basic_stringIcNS_11char_traitsIcEENS_9allocatorIcEEEEP4NodeEEPvEELi0ELb0EE5__getB8ue170006Ev, symObjAddr: 0xB42C, symBinAddr: 0x10000E448, symSize: 0x14 }
  - { offsetInCU: 0x1E59F, offset: 0x1E59F, size: 0x8, addend: 0x0, symName: __ZNSt3__117__compressed_pairIPNS_11__hash_nodeINS_17__hash_value_typeINS_12basic_stringIcNS_11char_traitsIcEENS_9allocatorIcEEEEP4NodeEEPvEENS_22__hash_node_destructorINS6_ISD_EEEEE5firstB8ue170006Ev, symObjAddr: 0xB440, symBinAddr: 0x10000E45C, symSize: 0x24 }
  - { offsetInCU: 0x1E5C4, offset: 0x1E5C4, size: 0x8, addend: 0x0, symName: __ZNSt3__122__compressed_pair_elemIPNS_11__hash_nodeINS_17__hash_value_typeINS_12basic_stringIcNS_11char_traitsIcEENS_9allocatorIcEEEEP4NodeEEPvEELi0ELb0EE5__getB8ue170006Ev, symObjAddr: 0xB464, symBinAddr: 0x10000E480, symSize: 0x14 }
  - { offsetInCU: 0x1E5E9, offset: 0x1E5E9, size: 0x8, addend: 0x0, symName: __ZNSt3__110unique_ptrINS_11__hash_nodeINS_17__hash_value_typeINS_12basic_stringIcNS_11char_traitsIcEENS_9allocatorIcEEEEP4NodeEEPvEENS_22__hash_node_destructorINS6_ISD_EEEEED2B8ue170006Ev, symObjAddr: 0xB478, symBinAddr: 0x10000E494, symSize: 0x30 }
  - { offsetInCU: 0x1E612, offset: 0x1E612, size: 0x8, addend: 0x0, symName: __ZNSt3__110unique_ptrINS_11__hash_nodeINS_17__hash_value_typeINS_12basic_stringIcNS_11char_traitsIcEENS_9allocatorIcEEEEP4NodeEEPvEENS_22__hash_node_destructorINS6_ISD_EEEEE5resetB8ue170006EPSD_, symObjAddr: 0xB4A8, symBinAddr: 0x10000E4C4, symSize: 0x78 }
  - { offsetInCU: 0x1E655, offset: 0x1E655, size: 0x8, addend: 0x0, symName: __ZNSt3__122__hash_node_destructorINS_9allocatorINS_11__hash_nodeINS_17__hash_value_typeINS_12basic_stringIcNS_11char_traitsIcEENS1_IcEEEEP4NodeEEPvEEEEEclB8ue170006EPSD_, symObjAddr: 0xB520, symBinAddr: 0x10000E53C, symSize: 0x98 }
  - { offsetInCU: 0x1E689, offset: 0x1E689, size: 0x8, addend: 0x0, symName: __ZNSt3__116allocator_traitsINS_9allocatorINS_11__hash_nodeINS_17__hash_value_typeINS_12basic_stringIcNS_11char_traitsIcEENS1_IcEEEEP4NodeEEPvEEEEE7destroyB8ue170006INS_4pairIKS8_SA_EEvvEEvRSE_PT_, symObjAddr: 0xB5B8, symBinAddr: 0x10000E5D4, symSize: 0x28 }
  - { offsetInCU: 0x1E6C4, offset: 0x1E6C4, size: 0x8, addend: 0x0, symName: __ZNSt3__116allocator_traitsINS_9allocatorINS_11__hash_nodeINS_17__hash_value_typeINS_12basic_stringIcNS_11char_traitsIcEENS1_IcEEEEP4NodeEEPvEEEEE10deallocateB8ue170006ERSE_PSD_m, symObjAddr: 0xB5E0, symBinAddr: 0x10000E5FC, symSize: 0x34 }
  - { offsetInCU: 0x1E706, offset: 0x1E706, size: 0x8, addend: 0x0, symName: __ZNSt3__14pairIKNS_12basic_stringIcNS_11char_traitsIcEENS_9allocatorIcEEEEP4NodeED1Ev, symObjAddr: 0xB614, symBinAddr: 0x10000E630, symSize: 0x2C }
  - { offsetInCU: 0x1E731, offset: 0x1E731, size: 0x8, addend: 0x0, symName: __ZNSt3__14pairIKNS_12basic_stringIcNS_11char_traitsIcEENS_9allocatorIcEEEEP4NodeED2Ev, symObjAddr: 0xB640, symBinAddr: 0x10000E65C, symSize: 0x2C }
  - { offsetInCU: 0x1E75C, offset: 0x1E75C, size: 0x8, addend: 0x0, symName: __ZNSt3__19allocatorINS_11__hash_nodeINS_17__hash_value_typeINS_12basic_stringIcNS_11char_traitsIcEENS0_IcEEEEP4NodeEEPvEEE10deallocateB8ue170006EPSC_m, symObjAddr: 0xB66C, symBinAddr: 0x10000E688, symSize: 0x44 }
  - { offsetInCU: 0x1E79D, offset: 0x1E79D, size: 0x8, addend: 0x0, symName: __ZNSt3__115__hash_iteratorIPNS_11__hash_nodeINS_17__hash_value_typeINS_12basic_stringIcNS_11char_traitsIcEENS_9allocatorIcEEEEP4NodeEEPvEEEC2B8ue170006EPNS_16__hash_node_baseISE_EE, symObjAddr: 0xB6B0, symBinAddr: 0x10000E6CC, symSize: 0x20 }
  - { offsetInCU: 0x1E7D5, offset: 0x1E7D5, size: 0x8, addend: 0x0, symName: __ZNSt3__14pairINS_15__hash_iteratorIPNS_11__hash_nodeINS_17__hash_value_typeINS_12basic_stringIcNS_11char_traitsIcEENS_9allocatorIcEEEEP4NodeEEPvEEEEbEC2B8ue170006ISG_RbLSD_0EEEOT_OT0_, symObjAddr: 0xB6D0, symBinAddr: 0x10000E6EC, symSize: 0x38 }
  - { offsetInCU: 0x1E832, offset: 0x1E832, size: 0x8, addend: 0x0, symName: __ZNSt3__15tupleIJRKNS_12basic_stringIcNS_11char_traitsIcEENS_9allocatorIcEEEEEEC1B8ue170006INS_4_AndELi0EEES8_, symObjAddr: 0xB708, symBinAddr: 0x10000E724, symSize: 0x34 }
  - { offsetInCU: 0x1E879, offset: 0x1E879, size: 0x8, addend: 0x0, symName: __ZNSt3__15tupleIJRKNS_12basic_stringIcNS_11char_traitsIcEENS_9allocatorIcEEEEEEC2B8ue170006INS_4_AndELi0EEES8_, symObjAddr: 0xB73C, symBinAddr: 0x10000E758, symSize: 0x34 }
  - { offsetInCU: 0x1E8C0, offset: 0x1E8C0, size: 0x8, addend: 0x0, symName: __ZNSt3__112__tuple_implINS_15__tuple_indicesIJLm0EEEEJRKNS_12basic_stringIcNS_11char_traitsIcEENS_9allocatorIcEEEEEEC1B8ue170006IJLm0EEJSA_EJEJEJSA_EEENS1_IJXspT_EEEENS_13__tuple_typesIJDpT0_EEENS1_IJXspT1_EEEENSE_IJDpT2_EEEDpOT3_, symObjAddr: 0xB770, symBinAddr: 0x10000E78C, symSize: 0x34 }
  - { offsetInCU: 0x1E954, offset: 0x1E954, size: 0x8, addend: 0x0, symName: __ZNSt3__112__tuple_implINS_15__tuple_indicesIJLm0EEEEJRKNS_12basic_stringIcNS_11char_traitsIcEENS_9allocatorIcEEEEEEC2B8ue170006IJLm0EEJSA_EJEJEJSA_EEENS1_IJXspT_EEEENS_13__tuple_typesIJDpT0_EEENS1_IJXspT1_EEEENSE_IJDpT2_EEEDpOT3_, symObjAddr: 0xB7A4, symBinAddr: 0x10000E7C0, symSize: 0x34 }
  - { offsetInCU: 0x1E9E8, offset: 0x1E9E8, size: 0x8, addend: 0x0, symName: __ZNSt3__112__tuple_leafILm0ERKNS_12basic_stringIcNS_11char_traitsIcEENS_9allocatorIcEEEELb0EEC2B8ue170006IS8_vEEOT_, symObjAddr: 0xB7D8, symBinAddr: 0x10000E7F4, symSize: 0x20 }
  - { offsetInCU: 0x1EA2A, offset: 0x1EA2A, size: 0x8, addend: 0x0, symName: __ZNSt3__114pointer_traitsIPNS_17__hash_value_typeINS_12basic_stringIcNS_11char_traitsIcEENS_9allocatorIcEEEEP4NodeEEE10pointer_toB8ue170006ERSA_, symObjAddr: 0xB7F8, symBinAddr: 0x10000E814, symSize: 0x14 }
  - { offsetInCU: 0x1EA4D, offset: 0x1EA4D, size: 0x8, addend: 0x0, symName: __ZNSt3__114numeric_limitsIdE3maxB8ue170006Ev, symObjAddr: 0xB80C, symBinAddr: 0x10000E828, symSize: 0x14 }
  - { offsetInCU: 0x1EA61, offset: 0x1EA61, size: 0x8, addend: 0x0, symName: __ZNSt3__123__libcpp_numeric_limitsIdLb1EE3maxB8ue170006Ev, symObjAddr: 0xB820, symBinAddr: 0x10000E83C, symSize: 0xC }
  - { offsetInCU: 0x1EA75, offset: 0x1EA75, size: 0x8, addend: 0x0, symName: __ZN4NodeneERKS_, symObjAddr: 0xB82C, symBinAddr: 0x10000E848, symSize: 0x38 }
  - { offsetInCU: 0x1EAC6, offset: 0x1EAC6, size: 0x8, addend: 0x0, symName: __ZNKSt3__113basic_ostreamIcNS_11char_traitsIcEEE6sentrycvbB8ue170006Ev, symObjAddr: 0xBA84, symBinAddr: 0x10000EAA0, symSize: 0x1C }
  - { offsetInCU: 0x1EAEB, offset: 0x1EAEB, size: 0x8, addend: 0x0, symName: __ZNSt3__119ostreambuf_iteratorIcNS_11char_traitsIcEEEC1B8ue170006ERNS_13basic_ostreamIcS2_EE, symObjAddr: 0xBCE0, symBinAddr: 0x10000ECFC, symSize: 0x34 }
  - { offsetInCU: 0x1EB22, offset: 0x1EB22, size: 0x8, addend: 0x0, symName: __ZNKSt3__18ios_base5flagsB8ue170006Ev, symObjAddr: 0xBD14, symBinAddr: 0x10000ED30, symSize: 0x18 }
  - { offsetInCU: 0x1EB48, offset: 0x1EB48, size: 0x8, addend: 0x0, symName: __ZNKSt3__19basic_iosIcNS_11char_traitsIcEEE4fillB8ue170006Ev, symObjAddr: 0xBD2C, symBinAddr: 0x10000ED48, symSize: 0x64 }
  - { offsetInCU: 0x1EB6F, offset: 0x1EB6F, size: 0x8, addend: 0x0, symName: __ZNKSt3__119ostreambuf_iteratorIcNS_11char_traitsIcEEE6failedB8ue170006Ev, symObjAddr: 0xBD90, symBinAddr: 0x10000EDAC, symSize: 0x24 }
  - { offsetInCU: 0x1EB94, offset: 0x1EB94, size: 0x8, addend: 0x0, symName: __ZNSt3__19basic_iosIcNS_11char_traitsIcEEE8setstateB8ue170006Ej, symObjAddr: 0xBDB4, symBinAddr: 0x10000EDD0, symSize: 0x2C }
  - { offsetInCU: 0x1EBC8, offset: 0x1EBC8, size: 0x8, addend: 0x0, symName: __ZNKSt3__18ios_base5widthB8ue170006Ev, symObjAddr: 0xBDE0, symBinAddr: 0x10000EDFC, symSize: 0x18 }
  - { offsetInCU: 0x1EBEF, offset: 0x1EBEF, size: 0x8, addend: 0x0, symName: __ZNSt3__115basic_streambufIcNS_11char_traitsIcEEE5sputnB8ue170006EPKcl, symObjAddr: 0xBDF8, symBinAddr: 0x10000EE14, symSize: 0x3C }
  - { offsetInCU: 0x1EC30, offset: 0x1EC30, size: 0x8, addend: 0x0, symName: __ZNSt3__112basic_stringIcNS_11char_traitsIcEENS_9allocatorIcEEEC1B8ue170006Emc, symObjAddr: 0xBE34, symBinAddr: 0x10000EE50, symSize: 0x3C }
  - { offsetInCU: 0x1EC77, offset: 0x1EC77, size: 0x8, addend: 0x0, symName: __ZNSt3__18ios_base5widthB8ue170006El, symObjAddr: 0xBE70, symBinAddr: 0x10000EE8C, symSize: 0x2C }
  - { offsetInCU: 0x1ECBC, offset: 0x1ECBC, size: 0x8, addend: 0x0, symName: __ZNSt3__112basic_stringIcNS_11char_traitsIcEENS_9allocatorIcEEEC2B8ue170006Emc, symObjAddr: 0xBE9C, symBinAddr: 0x10000EEB8, symSize: 0x4C }
  - { offsetInCU: 0x1ED03, offset: 0x1ED03, size: 0x8, addend: 0x0, symName: __ZNSt3__117__compressed_pairINS_12basic_stringIcNS_11char_traitsIcEENS_9allocatorIcEEE5__repES5_EC1B8ue170006INS_18__default_init_tagESA_EEOT_OT0_, symObjAddr: 0xBEE8, symBinAddr: 0x10000EF04, symSize: 0x3C }
  - { offsetInCU: 0x1ED5A, offset: 0x1ED5A, size: 0x8, addend: 0x0, symName: __ZNSt3__117__compressed_pairINS_12basic_stringIcNS_11char_traitsIcEENS_9allocatorIcEEE5__repES5_EC2B8ue170006INS_18__default_init_tagESA_EEOT_OT0_, symObjAddr: 0xBF24, symBinAddr: 0x10000EF40, symSize: 0x3C }
  - { offsetInCU: 0x1EDB1, offset: 0x1EDB1, size: 0x8, addend: 0x0, symName: __ZNSt3__122__compressed_pair_elemINS_12basic_stringIcNS_11char_traitsIcEENS_9allocatorIcEEE5__repELi0ELb0EEC2B8ue170006ENS_18__default_init_tagE, symObjAddr: 0xBF60, symBinAddr: 0x10000EF7C, symSize: 0x14 }
  - { offsetInCU: 0x1EDE5, offset: 0x1EDE5, size: 0x8, addend: 0x0, symName: __ZNSt3__122__compressed_pair_elemINS_9allocatorIcEELi1ELb1EEC2B8ue170006ENS_18__default_init_tagE, symObjAddr: 0xBF74, symBinAddr: 0x10000EF90, symSize: 0x2C }
  - { offsetInCU: 0x1EE19, offset: 0x1EE19, size: 0x8, addend: 0x0, symName: __ZNSt3__19allocatorIcEC2B8ue170006Ev, symObjAddr: 0xBFA0, symBinAddr: 0x10000EFBC, symSize: 0x2C }
  - { offsetInCU: 0x1EE42, offset: 0x1EE42, size: 0x8, addend: 0x0, symName: __ZNSt3__116__non_trivial_ifILb1ENS_9allocatorIcEEEC2B8ue170006Ev, symObjAddr: 0xBFCC, symBinAddr: 0x10000EFE8, symSize: 0x14 }
  - { offsetInCU: 0x1EE6B, offset: 0x1EE6B, size: 0x8, addend: 0x0, symName: __ZNSt3__119ostreambuf_iteratorIcNS_11char_traitsIcEEEC2B8ue170006ERNS_13basic_ostreamIcS2_EE, symObjAddr: 0xBFE0, symBinAddr: 0x10000EFFC, symSize: 0x54 }
  - { offsetInCU: 0x1EEA1, offset: 0x1EEA1, size: 0x8, addend: 0x0, symName: __ZNKSt3__19basic_iosIcNS_11char_traitsIcEEE5rdbufB8ue170006Ev, symObjAddr: 0xC034, symBinAddr: 0x10000F050, symSize: 0x24 }
  - { offsetInCU: 0x1EEC8, offset: 0x1EEC8, size: 0x8, addend: 0x0, symName: __ZNKSt3__18ios_base5rdbufB8ue170006Ev, symObjAddr: 0xC058, symBinAddr: 0x10000F074, symSize: 0x18 }
  - { offsetInCU: 0x1EEED, offset: 0x1EEED, size: 0x8, addend: 0x0, symName: __ZNSt3__111char_traitsIcE11eq_int_typeB8ue170006Eii, symObjAddr: 0xC070, symBinAddr: 0x10000F08C, symSize: 0x28 }
  - { offsetInCU: 0x1EF20, offset: 0x1EF20, size: 0x8, addend: 0x0, symName: __ZNSt3__111char_traitsIcE3eofB8ue170006Ev, symObjAddr: 0xC098, symBinAddr: 0x10000F0B4, symSize: 0x8 }
  - { offsetInCU: 0x1EF33, offset: 0x1EF33, size: 0x8, addend: 0x0, symName: __ZNKSt3__19basic_iosIcNS_11char_traitsIcEEE5widenB8ue170006Ec, symObjAddr: 0xC0A0, symBinAddr: 0x10000F0BC, symSize: 0x84 }
  - { offsetInCU: 0x1EFA0, offset: 0x1EFA0, size: 0x8, addend: 0x0, symName: __ZNKSt3__15ctypeIcE5widenB8ue170006Ec, symObjAddr: 0xC150, symBinAddr: 0x10000F16C, symSize: 0x38 }
  - { offsetInCU: 0x1EFD3, offset: 0x1EFD3, size: 0x8, addend: 0x0, symName: __ZNSt3__18ios_base8setstateB8ue170006Ej, symObjAddr: 0xC188, symBinAddr: 0x10000F1A4, symSize: 0x34 }
  - { offsetInCU: 0x1F009, offset: 0x1F009, size: 0x8, addend: 0x0, symName: __ZNK5Graph16getNumberOfNodesEv, symObjAddr: 0xC1BC, symBinAddr: 0x10000F1D8, symSize: 0x24 }
  - { offsetInCU: 0x1F02E, offset: 0x1F02E, size: 0x8, addend: 0x0, symName: __ZN5StackI4NodeEC1Ei, symObjAddr: 0xC1E0, symBinAddr: 0x10000F1FC, symSize: 0x34 }
  - { offsetInCU: 0x1F065, offset: 0x1F065, size: 0x8, addend: 0x0, symName: __ZN5StackI4NodeE4pushEPS0_, symObjAddr: 0xC214, symBinAddr: 0x10000F230, symSize: 0x58 }
  - { offsetInCU: 0x1F098, offset: 0x1F098, size: 0x8, addend: 0x0, symName: __ZN5StackI4NodeEC2Ei, symObjAddr: 0xC26C, symBinAddr: 0x10000F288, symSize: 0x6C }
  - { offsetInCU: 0x1F0CE, offset: 0x1F0CE, size: 0x8, addend: 0x0, symName: __ZNKSt3__16vectorINS_4pairI7AddressNS0_INS1_IS2_dEENS_9allocatorIS3_EEEEEENS4_IS7_EEE5beginB8ue170006Ev, symObjAddr: 0xC2D8, symBinAddr: 0x10000F2F4, symSize: 0x30 }
  - { offsetInCU: 0x1F0F4, offset: 0x1F0F4, size: 0x8, addend: 0x0, symName: __ZNKSt3__16vectorINS_4pairI7AddressNS0_INS1_IS2_dEENS_9allocatorIS3_EEEEEENS4_IS7_EEE3endB8ue170006Ev, symObjAddr: 0xC308, symBinAddr: 0x10000F324, symSize: 0x30 }
  - { offsetInCU: 0x1F11B, offset: 0x1F11B, size: 0x8, addend: 0x0, symName: __ZNKSt3__111__wrap_iterIPKNS_4pairI7AddressNS_6vectorINS1_IS2_dEENS_9allocatorIS4_EEEEEEEdeB8ue170006Ev, symObjAddr: 0xC36C, symBinAddr: 0x10000F388, symSize: 0x18 }
  - { offsetInCU: 0x1F13F, offset: 0x1F13F, size: 0x8, addend: 0x0, symName: __ZNKSt3__16vectorINS_4pairI7AddressdEENS_9allocatorIS3_EEE5beginB8ue170006Ev, symObjAddr: 0xC384, symBinAddr: 0x10000F3A0, symSize: 0x30 }
  - { offsetInCU: 0x1F165, offset: 0x1F165, size: 0x8, addend: 0x0, symName: __ZNKSt3__16vectorINS_4pairI7AddressdEENS_9allocatorIS3_EEE3endB8ue170006Ev, symObjAddr: 0xC3B4, symBinAddr: 0x10000F3D0, symSize: 0x30 }
  - { offsetInCU: 0x1F18C, offset: 0x1F18C, size: 0x8, addend: 0x0, symName: __ZNKSt3__111__wrap_iterIPKNS_4pairI7AddressdEEEdeB8ue170006Ev, symObjAddr: 0xC418, symBinAddr: 0x10000F434, symSize: 0x18 }
  - { offsetInCU: 0x1F1B1, offset: 0x1F1B1, size: 0x8, addend: 0x0, symName: __ZNSt3__111__wrap_iterIPKNS_4pairI7AddressdEEEppB8ue170006Ev, symObjAddr: 0xC430, symBinAddr: 0x10000F44C, symSize: 0x20 }
  - { offsetInCU: 0x1F1D6, offset: 0x1F1D6, size: 0x8, addend: 0x0, symName: __ZNSt3__111__wrap_iterIPKNS_4pairI7AddressNS_6vectorINS1_IS2_dEENS_9allocatorIS4_EEEEEEEppB8ue170006Ev, symObjAddr: 0xC450, symBinAddr: 0x10000F46C, symSize: 0x20 }
  - { offsetInCU: 0x1F1FB, offset: 0x1F1FB, size: 0x8, addend: 0x0, symName: __ZNKSt3__16vectorINS_4pairI7AddressNS0_INS1_IS2_dEENS_9allocatorIS3_EEEEEENS4_IS7_EEE11__make_iterB8ue170006EPKS7_, symObjAddr: 0xC470, symBinAddr: 0x10000F48C, symSize: 0x30 }
  - { offsetInCU: 0x1F22F, offset: 0x1F22F, size: 0x8, addend: 0x0, symName: __ZNSt3__111__wrap_iterIPKNS_4pairI7AddressNS_6vectorINS1_IS2_dEENS_9allocatorIS4_EEEEEEEC1B8ue170006ESA_, symObjAddr: 0xC4A0, symBinAddr: 0x10000F4BC, symSize: 0x34 }
  - { offsetInCU: 0x1F266, offset: 0x1F266, size: 0x8, addend: 0x0, symName: __ZNSt3__111__wrap_iterIPKNS_4pairI7AddressNS_6vectorINS1_IS2_dEENS_9allocatorIS4_EEEEEEEC2B8ue170006ESA_, symObjAddr: 0xC4D4, symBinAddr: 0x10000F4F0, symSize: 0x20 }
  - { offsetInCU: 0x1F29D, offset: 0x1F29D, size: 0x8, addend: 0x0, symName: __ZNKSt3__111__wrap_iterIPKNS_4pairI7AddressNS_6vectorINS1_IS2_dEENS_9allocatorIS4_EEEEEEE4baseB8ue170006Ev, symObjAddr: 0xC53C, symBinAddr: 0x10000F558, symSize: 0x18 }
  - { offsetInCU: 0x1F2C2, offset: 0x1F2C2, size: 0x8, addend: 0x0, symName: __ZNKSt3__16vectorINS_4pairI7AddressdEENS_9allocatorIS3_EEE11__make_iterB8ue170006EPKS3_, symObjAddr: 0xC554, symBinAddr: 0x10000F570, symSize: 0x30 }
  - { offsetInCU: 0x1F2F6, offset: 0x1F2F6, size: 0x8, addend: 0x0, symName: __ZNSt3__111__wrap_iterIPKNS_4pairI7AddressdEEEC1B8ue170006ES5_, symObjAddr: 0xC584, symBinAddr: 0x10000F5A0, symSize: 0x34 }
  - { offsetInCU: 0x1F32D, offset: 0x1F32D, size: 0x8, addend: 0x0, symName: __ZNSt3__111__wrap_iterIPKNS_4pairI7AddressdEEEC2B8ue170006ES5_, symObjAddr: 0xC5B8, symBinAddr: 0x10000F5D4, symSize: 0x20 }
  - { offsetInCU: 0x1F364, offset: 0x1F364, size: 0x8, addend: 0x0, symName: __ZNKSt3__111__wrap_iterIPKNS_4pairI7AddressdEEE4baseB8ue170006Ev, symObjAddr: 0xC620, symBinAddr: 0x10000F63C, symSize: 0x18 }
  - { offsetInCU: 0x1F388, offset: 0x1F388, size: 0x8, addend: 0x0, symName: __ZNSt3__112__hash_tableINS_17__hash_value_typeINS_12basic_stringIcNS_11char_traitsIcEENS_9allocatorIcEEEEP4NodeEENS_22__unordered_map_hasherIS7_SA_NS_4hashIS7_EENS_8equal_toIS7_EELb1EEENS_21__unordered_map_equalIS7_SA_SF_SD_Lb1EEENS5_ISA_EEE4findIS7_EENS_15__hash_iteratorIPNS_11__hash_nodeISA_PvEEEERKT_, symObjAddr: 0xC668, symBinAddr: 0x10000F684, symSize: 0x1B0 }
  - { offsetInCU: 0x1F412, offset: 0x1F412, size: 0x8, addend: 0x0, symName: __ZNSt3__119__hash_map_iteratorINS_15__hash_iteratorIPNS_11__hash_nodeINS_17__hash_value_typeINS_12basic_stringIcNS_11char_traitsIcEENS_9allocatorIcEEEEP4NodeEEPvEEEEEC1B8ue170006ESG_, symObjAddr: 0xC818, symBinAddr: 0x10000F834, symSize: 0x34 }
  - { offsetInCU: 0x1F449, offset: 0x1F449, size: 0x8, addend: 0x0, symName: __ZNSt3__112__hash_tableINS_17__hash_value_typeINS_12basic_stringIcNS_11char_traitsIcEENS_9allocatorIcEEEEP4NodeEENS_22__unordered_map_hasherIS7_SA_NS_4hashIS7_EENS_8equal_toIS7_EELb1EEENS_21__unordered_map_equalIS7_SA_SF_SD_Lb1EEENS5_ISA_EEE3endEv, symObjAddr: 0xC84C, symBinAddr: 0x10000F868, symSize: 0x2C }
  - { offsetInCU: 0x1F470, offset: 0x1F470, size: 0x8, addend: 0x0, symName: __ZNSt3__119__hash_map_iteratorINS_15__hash_iteratorIPNS_11__hash_nodeINS_17__hash_value_typeINS_12basic_stringIcNS_11char_traitsIcEENS_9allocatorIcEEEEP4NodeEEPvEEEEEC2B8ue170006ESG_, symObjAddr: 0xC878, symBinAddr: 0x10000F894, symSize: 0x20 }
  - { offsetInCU: 0x1F4A8, offset: 0x1F4A8, size: 0x8, addend: 0x0, symName: __ZNSt3__113unordered_mapINS_12basic_stringIcNS_11char_traitsIcEENS_9allocatorIcEEEEP4NodeNS_4hashIS6_EENS_8equal_toIS6_EENS4_INS_4pairIKS6_S8_EEEEED2B8ue170006Ev, symObjAddr: 0xC898, symBinAddr: 0x10000F8B4, symSize: 0x2C }
  - { offsetInCU: 0x1F4D1, offset: 0x1F4D1, size: 0x8, addend: 0x0, symName: __ZNSt3__112__hash_tableINS_17__hash_value_typeINS_12basic_stringIcNS_11char_traitsIcEENS_9allocatorIcEEEEP4NodeEENS_22__unordered_map_hasherIS7_SA_NS_4hashIS7_EENS_8equal_toIS7_EELb1EEENS_21__unordered_map_equalIS7_SA_SF_SD_Lb1EEENS5_ISA_EEED1Ev, symObjAddr: 0xC8C4, symBinAddr: 0x10000F8E0, symSize: 0x2C }
  - { offsetInCU: 0x1F4FC, offset: 0x1F4FC, size: 0x8, addend: 0x0, symName: __ZNSt3__112__hash_tableINS_17__hash_value_typeINS_12basic_stringIcNS_11char_traitsIcEENS_9allocatorIcEEEEP4NodeEENS_22__unordered_map_hasherIS7_SA_NS_4hashIS7_EENS_8equal_toIS7_EELb1EEENS_21__unordered_map_equalIS7_SA_SF_SD_Lb1EEENS5_ISA_EEED2Ev, symObjAddr: 0xC8F0, symBinAddr: 0x10000F90C, symSize: 0x48 }
  - { offsetInCU: 0x1F526, offset: 0x1F526, size: 0x8, addend: 0x0, symName: __ZNSt3__112__hash_tableINS_17__hash_value_typeINS_12basic_stringIcNS_11char_traitsIcEENS_9allocatorIcEEEEP4NodeEENS_22__unordered_map_hasherIS7_SA_NS_4hashIS7_EENS_8equal_toIS7_EELb1EEENS_21__unordered_map_equalIS7_SA_SF_SD_Lb1EEENS5_ISA_EEE17__deallocate_nodeEPNS_16__hash_node_baseIPNS_11__hash_nodeISA_PvEEEE, symObjAddr: 0xC938, symBinAddr: 0x10000F954, symSize: 0xA4 }
  - { offsetInCU: 0x1F58F, offset: 0x1F58F, size: 0x8, addend: 0x0, symName: __ZNSt3__110unique_ptrIA_PNS_16__hash_node_baseIPNS_11__hash_nodeINS_17__hash_value_typeINS_12basic_stringIcNS_11char_traitsIcEENS_9allocatorIcEEEEP4NodeEEPvEEEENS_25__bucket_list_deallocatorINS7_ISH_EEEEED1B8ue170006Ev, symObjAddr: 0xC9DC, symBinAddr: 0x10000F9F8, symSize: 0x2C }
  - { offsetInCU: 0x1F5B8, offset: 0x1F5B8, size: 0x8, addend: 0x0, symName: __ZNSt3__110unique_ptrIA_PNS_16__hash_node_baseIPNS_11__hash_nodeINS_17__hash_value_typeINS_12basic_stringIcNS_11char_traitsIcEENS_9allocatorIcEEEEP4NodeEEPvEEEENS_25__bucket_list_deallocatorINS7_ISH_EEEEED2B8ue170006Ev, symObjAddr: 0xCA08, symBinAddr: 0x10000FA24, symSize: 0x30 }
  - { offsetInCU: 0x1F5E1, offset: 0x1F5E1, size: 0x8, addend: 0x0, symName: __ZNSt3__110unique_ptrIA_PNS_16__hash_node_baseIPNS_11__hash_nodeINS_17__hash_value_typeINS_12basic_stringIcNS_11char_traitsIcEENS_9allocatorIcEEEEP4NodeEEPvEEEENS_25__bucket_list_deallocatorINS7_ISH_EEEEE5resetB8ue170006EDn, symObjAddr: 0xCA38, symBinAddr: 0x10000FA54, symSize: 0x6C }
  - { offsetInCU: 0x1F621, offset: 0x1F621, size: 0x8, addend: 0x0, symName: __ZN7AddressD2Ev, symObjAddr: 0xCAA4, symBinAddr: 0x10000FAC0, symSize: 0x2C }
  - { offsetInCU: 0x1F64C, offset: 0x1F64C, size: 0x8, addend: 0x0, symName: __ZN5GraphD2Ev, symObjAddr: 0xCAD0, symBinAddr: 0x10000FAEC, symSize: 0x2C }
  - { offsetInCU: 0x1F677, offset: 0x1F677, size: 0x8, addend: 0x0, symName: __ZNSt3__16vectorINS_4pairI7AddressNS0_INS1_IS2_dEENS_9allocatorIS3_EEEEEENS4_IS7_EEED1B8ue170006Ev, symObjAddr: 0xCAFC, symBinAddr: 0x10000FB18, symSize: 0x2C }
  - { offsetInCU: 0x1F6A0, offset: 0x1F6A0, size: 0x8, addend: 0x0, symName: __ZNSt3__16vectorINS_4pairI7AddressNS0_INS1_IS2_dEENS_9allocatorIS3_EEEEEENS4_IS7_EEED2B8ue170006Ev, symObjAddr: 0xCB28, symBinAddr: 0x10000FB44, symSize: 0x44 }
  - { offsetInCU: 0x1F6C9, offset: 0x1F6C9, size: 0x8, addend: 0x0, symName: __ZNSt3__16vectorINS_4pairI7AddressNS0_INS1_IS2_dEENS_9allocatorIS3_EEEEEENS4_IS7_EEE16__destroy_vectorC1B8ue170006ERS9_, symObjAddr: 0xCB6C, symBinAddr: 0x10000FB88, symSize: 0x34 }
  - { offsetInCU: 0x1F701, offset: 0x1F701, size: 0x8, addend: 0x0, symName: __ZNSt3__16vectorINS_4pairI7AddressNS0_INS1_IS2_dEENS_9allocatorIS3_EEEEEENS4_IS7_EEE16__destroy_vectorclB8ue170006Ev, symObjAddr: 0xCBA0, symBinAddr: 0x10000FBBC, symSize: 0x90 }
  - { offsetInCU: 0x1F726, offset: 0x1F726, size: 0x8, addend: 0x0, symName: __ZNSt3__16vectorINS_4pairI7AddressNS0_INS1_IS2_dEENS_9allocatorIS3_EEEEEENS4_IS7_EEE16__destroy_vectorC2B8ue170006ERS9_, symObjAddr: 0xCC30, symBinAddr: 0x10000FC4C, symSize: 0x20 }
  - { offsetInCU: 0x1F75E, offset: 0x1F75E, size: 0x8, addend: 0x0, symName: __ZNSt3__16vectorINS_4pairI7AddressNS0_INS1_IS2_dEENS_9allocatorIS3_EEEEEENS4_IS7_EEE7__clearB8ue170006Ev, symObjAddr: 0xCC50, symBinAddr: 0x10000FC6C, symSize: 0x28 }
  - { offsetInCU: 0x1F783, offset: 0x1F783, size: 0x8, addend: 0x0, symName: __ZNSt3__16vectorINS_4pairI7AddressNS0_INS1_IS2_dEENS_9allocatorIS3_EEEEEENS4_IS7_EEE22__base_destruct_at_endB8ue170006EPS7_, symObjAddr: 0xCC78, symBinAddr: 0x10000FC94, symSize: 0x8C }
  - { offsetInCU: 0x1F7C6, offset: 0x1F7C6, size: 0x8, addend: 0x0, symName: __ZN14AddressManagerD2Ev, symObjAddr: 0xCD04, symBinAddr: 0x10000FD20, symSize: 0x2C }
  - { offsetInCU: 0x1F7F1, offset: 0x1F7F1, size: 0x8, addend: 0x0, symName: __ZNSt3__16vectorI7AddressNS_9allocatorIS1_EEED1B8ue170006Ev, symObjAddr: 0xCD30, symBinAddr: 0x10000FD4C, symSize: 0x2C }
  - { offsetInCU: 0x1F81A, offset: 0x1F81A, size: 0x8, addend: 0x0, symName: __ZNSt3__16vectorI7AddressNS_9allocatorIS1_EEED2B8ue170006Ev, symObjAddr: 0xCD5C, symBinAddr: 0x10000FD78, symSize: 0x44 }
  - { offsetInCU: 0x1F843, offset: 0x1F843, size: 0x8, addend: 0x0, symName: __ZNSt3__16vectorI7AddressNS_9allocatorIS1_EEE16__destroy_vectorC1B8ue170006ERS4_, symObjAddr: 0xCDA0, symBinAddr: 0x10000FDBC, symSize: 0x34 }
  - { offsetInCU: 0x1F87B, offset: 0x1F87B, size: 0x8, addend: 0x0, symName: __ZNSt3__16vectorI7AddressNS_9allocatorIS1_EEE16__destroy_vectorclB8ue170006Ev, symObjAddr: 0xCDD4, symBinAddr: 0x10000FDF0, symSize: 0x90 }
  - { offsetInCU: 0x1F8A0, offset: 0x1F8A0, size: 0x8, addend: 0x0, symName: __ZNSt3__16vectorI7AddressNS_9allocatorIS1_EEE16__destroy_vectorC2B8ue170006ERS4_, symObjAddr: 0xCE64, symBinAddr: 0x10000FE80, symSize: 0x20 }
  - { offsetInCU: 0x1F8D8, offset: 0x1F8D8, size: 0x8, addend: 0x0, symName: __ZNSt3__16vectorI7AddressNS_9allocatorIS1_EEE7__clearB8ue170006Ev, symObjAddr: 0xCE84, symBinAddr: 0x10000FEA0, symSize: 0x28 }
  - { offsetInCU: 0x1F8FD, offset: 0x1F8FD, size: 0x8, addend: 0x0, symName: __ZNSt3__16vectorI7AddressNS_9allocatorIS1_EEE22__base_destruct_at_endB8ue170006EPS1_, symObjAddr: 0xCEAC, symBinAddr: 0x10000FEC8, symSize: 0x8C }
  - { offsetInCU: 0x1F940, offset: 0x1F940, size: 0x8, addend: 0x0, symName: __ZNSt3__111char_traitsIcE6lengthB8ue170006EPKc, symObjAddr: 0xCF38, symBinAddr: 0x10000FF54, symSize: 0x34 }
  - { offsetInCU: 0x1F963, offset: 0x1F963, size: 0x8, addend: 0x0, symName: __ZNKSt3__16vectorI7AddressNS_9allocatorIS1_EEE11__make_iterB8ue170006EPKS1_, symObjAddr: 0xCF90, symBinAddr: 0x10000FFAC, symSize: 0x30 }
  - { offsetInCU: 0x1F997, offset: 0x1F997, size: 0x8, addend: 0x0, symName: __ZNSt3__111__wrap_iterIPK7AddressEC1B8ue170006ES3_, symObjAddr: 0xCFC0, symBinAddr: 0x10000FFDC, symSize: 0x34 }
  - { offsetInCU: 0x1F9CE, offset: 0x1F9CE, size: 0x8, addend: 0x0, symName: __ZNSt3__111__wrap_iterIPK7AddressEC2B8ue170006ES3_, symObjAddr: 0xCFF4, symBinAddr: 0x100010010, symSize: 0x20 }
  - { offsetInCU: 0x1FA05, offset: 0x1FA05, size: 0x8, addend: 0x0, symName: __ZNSt3__112basic_stringIcNS_11char_traitsIcEENS_9allocatorIcEEEC2B8ue170006ILi0EEEPKc, symObjAddr: 0xD014, symBinAddr: 0x100010030, symSize: 0x58 }
  - { offsetInCU: 0x1FA43, offset: 0x1FA43, size: 0x8, addend: 0x0, symName: __ZNSt3__16vectorINS_12basic_stringIcNS_11char_traitsIcEENS_9allocatorIcEEEENS4_IS6_EEEC2B8ue170006ESt16initializer_listIS6_E, symObjAddr: 0xD06C, symBinAddr: 0x100010088, symSize: 0x120 }
  - { offsetInCU: 0x1FA92, offset: 0x1FA92, size: 0x8, addend: 0x0, symName: __ZNSt3__117__compressed_pairIPNS_12basic_stringIcNS_11char_traitsIcEENS_9allocatorIcEEEENS4_IS6_EEEC1B8ue170006IDnNS_18__default_init_tagEEEOT_OT0_, symObjAddr: 0xD18C, symBinAddr: 0x1000101A8, symSize: 0x3C }
  - { offsetInCU: 0x1FAE9, offset: 0x1FAE9, size: 0x8, addend: 0x0, symName: __ZNSt3__16vectorINS_12basic_stringIcNS_11char_traitsIcEENS_9allocatorIcEEEENS4_IS6_EEE16__destroy_vectorC1B8ue170006ERS8_, symObjAddr: 0xD208, symBinAddr: 0x100010224, symSize: 0x34 }
  - { offsetInCU: 0x1FB21, offset: 0x1FB21, size: 0x8, addend: 0x0, symName: __ZNKSt16initializer_listINSt3__112basic_stringIcNS0_11char_traitsIcEENS0_9allocatorIcEEEEE4sizeB8ue170006Ev, symObjAddr: 0xD23C, symBinAddr: 0x100010258, symSize: 0x18 }
  - { offsetInCU: 0x1FB46, offset: 0x1FB46, size: 0x8, addend: 0x0, symName: __ZNSt3__16vectorINS_12basic_stringIcNS_11char_traitsIcEENS_9allocatorIcEEEENS4_IS6_EEE11__vallocateB8ue170006Em, symObjAddr: 0xD254, symBinAddr: 0x100010270, symSize: 0xB4 }
  - { offsetInCU: 0x1FB88, offset: 0x1FB88, size: 0x8, addend: 0x0, symName: __ZNSt3__16vectorINS_12basic_stringIcNS_11char_traitsIcEENS_9allocatorIcEEEENS4_IS6_EEE18__construct_at_endIPKS6_SB_EEvT_T0_m, symObjAddr: 0xD308, symBinAddr: 0x100010324, symSize: 0x8C }
  - { offsetInCU: 0x1FBFD, offset: 0x1FBFD, size: 0x8, addend: 0x0, symName: __ZNKSt16initializer_listINSt3__112basic_stringIcNS0_11char_traitsIcEENS0_9allocatorIcEEEEE5beginB8ue170006Ev, symObjAddr: 0xD394, symBinAddr: 0x1000103B0, symSize: 0x18 }
  - { offsetInCU: 0x1FC22, offset: 0x1FC22, size: 0x8, addend: 0x0, symName: __ZNKSt16initializer_listINSt3__112basic_stringIcNS0_11char_traitsIcEENS0_9allocatorIcEEEEE3endB8ue170006Ev, symObjAddr: 0xD3AC, symBinAddr: 0x1000103C8, symSize: 0x28 }
  - { offsetInCU: 0x1FC47, offset: 0x1FC47, size: 0x8, addend: 0x0, symName: __ZNSt3__128__exception_guard_exceptionsINS_6vectorINS_12basic_stringIcNS_11char_traitsIcEENS_9allocatorIcEEEENS5_IS7_EEE16__destroy_vectorEE10__completeB8ue170006Ev, symObjAddr: 0xD3D4, symBinAddr: 0x1000103F0, symSize: 0x1C }
  - { offsetInCU: 0x1FC6C, offset: 0x1FC6C, size: 0x8, addend: 0x0, symName: __ZNSt3__128__exception_guard_exceptionsINS_6vectorINS_12basic_stringIcNS_11char_traitsIcEENS_9allocatorIcEEEENS5_IS7_EEE16__destroy_vectorEED1B8ue170006Ev, symObjAddr: 0xD3F0, symBinAddr: 0x10001040C, symSize: 0x2C }
  - { offsetInCU: 0x1FC95, offset: 0x1FC95, size: 0x8, addend: 0x0, symName: __ZNSt3__117__compressed_pairIPNS_12basic_stringIcNS_11char_traitsIcEENS_9allocatorIcEEEENS4_IS6_EEEC2B8ue170006IDnNS_18__default_init_tagEEEOT_OT0_, symObjAddr: 0xD41C, symBinAddr: 0x100010438, symSize: 0x40 }
  - { offsetInCU: 0x1FCEC, offset: 0x1FCEC, size: 0x8, addend: 0x0, symName: __ZNSt3__122__compressed_pair_elemIPNS_12basic_stringIcNS_11char_traitsIcEENS_9allocatorIcEEEELi0ELb0EEC2B8ue170006IDnvEEOT_, symObjAddr: 0xD45C, symBinAddr: 0x100010478, symSize: 0x1C }
  - { offsetInCU: 0x1FD2D, offset: 0x1FD2D, size: 0x8, addend: 0x0, symName: __ZNSt3__122__compressed_pair_elemINS_9allocatorINS_12basic_stringIcNS_11char_traitsIcEENS1_IcEEEEEELi1ELb1EEC2B8ue170006ENS_18__default_init_tagE, symObjAddr: 0xD478, symBinAddr: 0x100010494, symSize: 0x2C }
  - { offsetInCU: 0x1FD61, offset: 0x1FD61, size: 0x8, addend: 0x0, symName: __ZNSt3__19allocatorINS_12basic_stringIcNS_11char_traitsIcEENS0_IcEEEEEC2B8ue170006Ev, symObjAddr: 0xD4A4, symBinAddr: 0x1000104C0, symSize: 0x2C }
  - { offsetInCU: 0x1FD8A, offset: 0x1FD8A, size: 0x8, addend: 0x0, symName: __ZNSt3__116__non_trivial_ifILb1ENS_9allocatorINS_12basic_stringIcNS_11char_traitsIcEENS1_IcEEEEEEEC2B8ue170006Ev, symObjAddr: 0xD4D0, symBinAddr: 0x1000104EC, symSize: 0x14 }
  - { offsetInCU: 0x1FDB3, offset: 0x1FDB3, size: 0x8, addend: 0x0, symName: __ZNSt3__128__exception_guard_exceptionsINS_6vectorINS_12basic_stringIcNS_11char_traitsIcEENS_9allocatorIcEEEENS5_IS7_EEE16__destroy_vectorEEC1B8ue170006ESA_, symObjAddr: 0xD4E4, symBinAddr: 0x100010500, symSize: 0x34 }
  - { offsetInCU: 0x1FDEA, offset: 0x1FDEA, size: 0x8, addend: 0x0, symName: __ZNSt3__128__exception_guard_exceptionsINS_6vectorINS_12basic_stringIcNS_11char_traitsIcEENS_9allocatorIcEEEENS5_IS7_EEE16__destroy_vectorEEC2B8ue170006ESA_, symObjAddr: 0xD518, symBinAddr: 0x100010534, symSize: 0x24 }
  - { offsetInCU: 0x1FE21, offset: 0x1FE21, size: 0x8, addend: 0x0, symName: __ZNSt3__16vectorINS_12basic_stringIcNS_11char_traitsIcEENS_9allocatorIcEEEENS4_IS6_EEE16__destroy_vectorC2B8ue170006ERS8_, symObjAddr: 0xD53C, symBinAddr: 0x100010558, symSize: 0x20 }
  - { offsetInCU: 0x1FE58, offset: 0x1FE58, size: 0x8, addend: 0x0, symName: __ZNKSt3__16vectorINS_12basic_stringIcNS_11char_traitsIcEENS_9allocatorIcEEEENS4_IS6_EEE8max_sizeEv, symObjAddr: 0xD55C, symBinAddr: 0x100010578, symSize: 0x60 }
  - { offsetInCU: 0x1FE7F, offset: 0x1FE7F, size: 0x8, addend: 0x0, symName: __ZNKSt3__16vectorINS_12basic_stringIcNS_11char_traitsIcEENS_9allocatorIcEEEENS4_IS6_EEE20__throw_length_errorB8ue170006Ev, symObjAddr: 0xD5BC, symBinAddr: 0x1000105D8, symSize: 0x1C }
  - { offsetInCU: 0x1FEA4, offset: 0x1FEA4, size: 0x8, addend: 0x0, symName: __ZNSt3__16vectorINS_12basic_stringIcNS_11char_traitsIcEENS_9allocatorIcEEEENS4_IS6_EEE7__allocB8ue170006Ev, symObjAddr: 0xD618, symBinAddr: 0x100010634, symSize: 0x28 }
  - { offsetInCU: 0x1FEC9, offset: 0x1FEC9, size: 0x8, addend: 0x0, symName: __ZNSt3__16vectorINS_12basic_stringIcNS_11char_traitsIcEENS_9allocatorIcEEEENS4_IS6_EEE9__end_capB8ue170006Ev, symObjAddr: 0xD640, symBinAddr: 0x10001065C, symSize: 0x28 }
  - { offsetInCU: 0x1FEEE, offset: 0x1FEEE, size: 0x8, addend: 0x0, symName: __ZNKSt3__16vectorINS_12basic_stringIcNS_11char_traitsIcEENS_9allocatorIcEEEENS4_IS6_EEE14__annotate_newB8ue170006Em, symObjAddr: 0xD668, symBinAddr: 0x100010684, symSize: 0xC8 }
  - { offsetInCU: 0x1FF2C, offset: 0x1FF2C, size: 0x8, addend: 0x0, symName: __ZNSt3__116allocator_traitsINS_9allocatorINS_12basic_stringIcNS_11char_traitsIcEENS1_IcEEEEEEE8max_sizeB8ue170006IS7_vEEmRKS7_, symObjAddr: 0xD730, symBinAddr: 0x10001074C, symSize: 0x24 }
  - { offsetInCU: 0x1FF5A, offset: 0x1FF5A, size: 0x8, addend: 0x0, symName: __ZNKSt3__16vectorINS_12basic_stringIcNS_11char_traitsIcEENS_9allocatorIcEEEENS4_IS6_EEE7__allocB8ue170006Ev, symObjAddr: 0xD754, symBinAddr: 0x100010770, symSize: 0x28 }
  - { offsetInCU: 0x1FF7F, offset: 0x1FF7F, size: 0x8, addend: 0x0, symName: __ZNKSt3__19allocatorINS_12basic_stringIcNS_11char_traitsIcEENS0_IcEEEEE8max_sizeB8ue170006Ev, symObjAddr: 0xD77C, symBinAddr: 0x100010798, symSize: 0x18 }
  - { offsetInCU: 0x1FFA4, offset: 0x1FFA4, size: 0x8, addend: 0x0, symName: __ZNKSt3__117__compressed_pairIPNS_12basic_stringIcNS_11char_traitsIcEENS_9allocatorIcEEEENS4_IS6_EEE6secondB8ue170006Ev, symObjAddr: 0xD794, symBinAddr: 0x1000107B0, symSize: 0x24 }
  - { offsetInCU: 0x1FFC9, offset: 0x1FFC9, size: 0x8, addend: 0x0, symName: __ZNKSt3__122__compressed_pair_elemINS_9allocatorINS_12basic_stringIcNS_11char_traitsIcEENS1_IcEEEEEELi1ELb1EE5__getB8ue170006Ev, symObjAddr: 0xD7B8, symBinAddr: 0x1000107D4, symSize: 0x14 }
  - { offsetInCU: 0x1FFEE, offset: 0x1FFEE, size: 0x8, addend: 0x0, symName: __ZNSt3__19allocatorINS_12basic_stringIcNS_11char_traitsIcEENS0_IcEEEEE8allocateB8ue170006Em, symObjAddr: 0xD7CC, symBinAddr: 0x1000107E8, symSize: 0x5C }
  - { offsetInCU: 0x20021, offset: 0x20021, size: 0x8, addend: 0x0, symName: __ZNSt3__117__compressed_pairIPNS_12basic_stringIcNS_11char_traitsIcEENS_9allocatorIcEEEENS4_IS6_EEE6secondB8ue170006Ev, symObjAddr: 0xD828, symBinAddr: 0x100010844, symSize: 0x24 }
  - { offsetInCU: 0x20046, offset: 0x20046, size: 0x8, addend: 0x0, symName: __ZNSt3__122__compressed_pair_elemINS_9allocatorINS_12basic_stringIcNS_11char_traitsIcEENS1_IcEEEEEELi1ELb1EE5__getB8ue170006Ev, symObjAddr: 0xD84C, symBinAddr: 0x100010868, symSize: 0x14 }
  - { offsetInCU: 0x2006B, offset: 0x2006B, size: 0x8, addend: 0x0, symName: __ZNSt3__117__compressed_pairIPNS_12basic_stringIcNS_11char_traitsIcEENS_9allocatorIcEEEENS4_IS6_EEE5firstB8ue170006Ev, symObjAddr: 0xD860, symBinAddr: 0x10001087C, symSize: 0x24 }
  - { offsetInCU: 0x20090, offset: 0x20090, size: 0x8, addend: 0x0, symName: __ZNSt3__122__compressed_pair_elemIPNS_12basic_stringIcNS_11char_traitsIcEENS_9allocatorIcEEEELi0ELb0EE5__getB8ue170006Ev, symObjAddr: 0xD884, symBinAddr: 0x1000108A0, symSize: 0x14 }
  - { offsetInCU: 0x200B5, offset: 0x200B5, size: 0x8, addend: 0x0, symName: __ZNKSt3__16vectorINS_12basic_stringIcNS_11char_traitsIcEENS_9allocatorIcEEEENS4_IS6_EEE31__annotate_contiguous_containerB8ue170006EPKvSA_SA_SA_, symObjAddr: 0xD898, symBinAddr: 0x1000108B4, symSize: 0x20 }
  - { offsetInCU: 0x2010A, offset: 0x2010A, size: 0x8, addend: 0x0, symName: __ZNKSt3__16vectorINS_12basic_stringIcNS_11char_traitsIcEENS_9allocatorIcEEEENS4_IS6_EEE4dataB8ue170006Ev, symObjAddr: 0xD8B8, symBinAddr: 0x1000108D4, symSize: 0x28 }
  - { offsetInCU: 0x2012F, offset: 0x2012F, size: 0x8, addend: 0x0, symName: __ZNKSt3__16vectorINS_12basic_stringIcNS_11char_traitsIcEENS_9allocatorIcEEEENS4_IS6_EEE8capacityB8ue170006Ev, symObjAddr: 0xD8E0, symBinAddr: 0x1000108FC, symSize: 0x40 }
  - { offsetInCU: 0x20154, offset: 0x20154, size: 0x8, addend: 0x0, symName: __ZNKSt3__16vectorINS_12basic_stringIcNS_11char_traitsIcEENS_9allocatorIcEEEENS4_IS6_EEE9__end_capB8ue170006Ev, symObjAddr: 0xD934, symBinAddr: 0x100010950, symSize: 0x28 }
  - { offsetInCU: 0x20179, offset: 0x20179, size: 0x8, addend: 0x0, symName: __ZNKSt3__117__compressed_pairIPNS_12basic_stringIcNS_11char_traitsIcEENS_9allocatorIcEEEENS4_IS6_EEE5firstB8ue170006Ev, symObjAddr: 0xD95C, symBinAddr: 0x100010978, symSize: 0x24 }
  - { offsetInCU: 0x2019E, offset: 0x2019E, size: 0x8, addend: 0x0, symName: __ZNKSt3__122__compressed_pair_elemIPNS_12basic_stringIcNS_11char_traitsIcEENS_9allocatorIcEEEELi0ELb0EE5__getB8ue170006Ev, symObjAddr: 0xD980, symBinAddr: 0x10001099C, symSize: 0x14 }
  - { offsetInCU: 0x201DC, offset: 0x201DC, size: 0x8, addend: 0x0, symName: __ZNSt3__16vectorINS_12basic_stringIcNS_11char_traitsIcEENS_9allocatorIcEEEENS4_IS6_EEE21_ConstructTransactionC1B8ue170006ERS8_m, symObjAddr: 0xD994, symBinAddr: 0x1000109B0, symSize: 0x3C }
  - { offsetInCU: 0x20223, offset: 0x20223, size: 0x8, addend: 0x0, symName: __ZNSt3__16vectorINS_12basic_stringIcNS_11char_traitsIcEENS_9allocatorIcEEEENS4_IS6_EEE21_ConstructTransactionD1B8ue170006Ev, symObjAddr: 0xDA50, symBinAddr: 0x100010A6C, symSize: 0x2C }
  - { offsetInCU: 0x2024C, offset: 0x2024C, size: 0x8, addend: 0x0, symName: __ZNSt3__16vectorINS_12basic_stringIcNS_11char_traitsIcEENS_9allocatorIcEEEENS4_IS6_EEE21_ConstructTransactionC2B8ue170006ERS8_m, symObjAddr: 0xDA7C, symBinAddr: 0x100010A98, symSize: 0x4C }
  - { offsetInCU: 0x202B1, offset: 0x202B1, size: 0x8, addend: 0x0, symName: __ZNSt3__14pairIPKNS_12basic_stringIcNS_11char_traitsIcEENS_9allocatorIcEEEES8_EC1B8ue170006IS8_S8_LPv0EEEOT_OT0_, symObjAddr: 0xDCD8, symBinAddr: 0x100010CF4, symSize: 0x3C }
  - { offsetInCU: 0x2030E, offset: 0x2030E, size: 0x8, addend: 0x0, symName: __ZNSt3__14pairIPKNS_12basic_stringIcNS_11char_traitsIcEENS_9allocatorIcEEEES8_EC2B8ue170006IS8_S8_LPv0EEEOT_OT0_, symObjAddr: 0xDD14, symBinAddr: 0x100010D30, symSize: 0x34 }
  - { offsetInCU: 0x2036B, offset: 0x2036B, size: 0x8, addend: 0x0, symName: __ZNSt3__118__unwrap_iter_implIPKNS_12basic_stringIcNS_11char_traitsIcEENS_9allocatorIcEEEELb1EE8__unwrapB8ue170006ES8_, symObjAddr: 0xDD48, symBinAddr: 0x100010D64, symSize: 0x24 }
  - { offsetInCU: 0x2038E, offset: 0x2038E, size: 0x8, addend: 0x0, symName: __ZNSt3__129_AllocatorDestroyRangeReverseINS_9allocatorINS_12basic_stringIcNS_11char_traitsIcEENS1_IcEEEEEEPS6_EC1B8ue170006ERS7_RS8_SB_, symObjAddr: 0xDDCC, symBinAddr: 0x100010DE8, symSize: 0x44 }
  - { offsetInCU: 0x203E4, offset: 0x203E4, size: 0x8, addend: 0x0, symName: __ZNSt3__116allocator_traitsINS_9allocatorINS_12basic_stringIcNS_11char_traitsIcEENS1_IcEEEEEEE9constructB8ue170006IS6_JRKS6_EvEEvRS7_PT_DpOT0_, symObjAddr: 0xDE10, symBinAddr: 0x100010E2C, symSize: 0x34 }
  - { offsetInCU: 0x2043B, offset: 0x2043B, size: 0x8, addend: 0x0, symName: __ZNSt3__128__exception_guard_exceptionsINS_29_AllocatorDestroyRangeReverseINS_9allocatorINS_12basic_stringIcNS_11char_traitsIcEENS2_IcEEEEEEPS7_EEE10__completeB8ue170006Ev, symObjAddr: 0xDE44, symBinAddr: 0x100010E60, symSize: 0x1C }
  - { offsetInCU: 0x20460, offset: 0x20460, size: 0x8, addend: 0x0, symName: __ZNSt3__128__exception_guard_exceptionsINS_29_AllocatorDestroyRangeReverseINS_9allocatorINS_12basic_stringIcNS_11char_traitsIcEENS2_IcEEEEEEPS7_EEED1B8ue170006Ev, symObjAddr: 0xDE60, symBinAddr: 0x100010E7C, symSize: 0x2C }
  - { offsetInCU: 0x20489, offset: 0x20489, size: 0x8, addend: 0x0, symName: __ZNSt3__128__exception_guard_exceptionsINS_29_AllocatorDestroyRangeReverseINS_9allocatorINS_12basic_stringIcNS_11char_traitsIcEENS2_IcEEEEEEPS7_EEEC1B8ue170006ESA_, symObjAddr: 0xDE8C, symBinAddr: 0x100010EA8, symSize: 0x34 }
  - { offsetInCU: 0x204C1, offset: 0x204C1, size: 0x8, addend: 0x0, symName: __ZNSt3__128__exception_guard_exceptionsINS_29_AllocatorDestroyRangeReverseINS_9allocatorINS_12basic_stringIcNS_11char_traitsIcEENS2_IcEEEEEEPS7_EEEC2B8ue170006ESA_, symObjAddr: 0xDEC0, symBinAddr: 0x100010EDC, symSize: 0x30 }
  - { offsetInCU: 0x204F9, offset: 0x204F9, size: 0x8, addend: 0x0, symName: __ZNSt3__129_AllocatorDestroyRangeReverseINS_9allocatorINS_12basic_stringIcNS_11char_traitsIcEENS1_IcEEEEEEPS6_EC2B8ue170006ERS7_RS8_SB_, symObjAddr: 0xDEF0, symBinAddr: 0x100010F0C, symSize: 0x38 }
  - { offsetInCU: 0x2054F, offset: 0x2054F, size: 0x8, addend: 0x0, symName: __ZNSt3__19allocatorINS_12basic_stringIcNS_11char_traitsIcEENS0_IcEEEEE9constructB8ue170006IS5_JRKS5_EEEvPT_DpOT0_, symObjAddr: 0xDF28, symBinAddr: 0x100010F44, symSize: 0x30 }
  - { offsetInCU: 0x205A4, offset: 0x205A4, size: 0x8, addend: 0x0, symName: __ZNSt3__128__exception_guard_exceptionsINS_29_AllocatorDestroyRangeReverseINS_9allocatorINS_12basic_stringIcNS_11char_traitsIcEENS2_IcEEEEEEPS7_EEED2B8ue170006Ev, symObjAddr: 0xDF58, symBinAddr: 0x100010F74, symSize: 0x50 }
  - { offsetInCU: 0x205CD, offset: 0x205CD, size: 0x8, addend: 0x0, symName: __ZNKSt3__129_AllocatorDestroyRangeReverseINS_9allocatorINS_12basic_stringIcNS_11char_traitsIcEENS1_IcEEEEEEPS6_EclB8ue170006Ev, symObjAddr: 0xDFA8, symBinAddr: 0x100010FC4, symSize: 0x68 }
  - { offsetInCU: 0x205F2, offset: 0x205F2, size: 0x8, addend: 0x0, symName: __ZNSt3__116reverse_iteratorIPNS_12basic_stringIcNS_11char_traitsIcEENS_9allocatorIcEEEEEC1B8ue170006ES7_, symObjAddr: 0xE080, symBinAddr: 0x10001109C, symSize: 0x34 }
  - { offsetInCU: 0x20629, offset: 0x20629, size: 0x8, addend: 0x0, symName: __ZNSt3__116allocator_traitsINS_9allocatorINS_12basic_stringIcNS_11char_traitsIcEENS1_IcEEEEEEE7destroyB8ue170006IS6_vEEvRS7_PT_, symObjAddr: 0xE0FC, symBinAddr: 0x100011118, symSize: 0x2C }
  - { offsetInCU: 0x20666, offset: 0x20666, size: 0x8, addend: 0x0, symName: __ZNSt3__116reverse_iteratorIPNS_12basic_stringIcNS_11char_traitsIcEENS_9allocatorIcEEEEEppB8ue170006Ev, symObjAddr: 0xE14C, symBinAddr: 0x100011168, symSize: 0x20 }
  - { offsetInCU: 0x2068B, offset: 0x2068B, size: 0x8, addend: 0x0, symName: __ZNKSt3__116reverse_iteratorIPNS_12basic_stringIcNS_11char_traitsIcEENS_9allocatorIcEEEEE4baseB8ue170006Ev, symObjAddr: 0xE16C, symBinAddr: 0x100011188, symSize: 0x18 }
  - { offsetInCU: 0x206B0, offset: 0x206B0, size: 0x8, addend: 0x0, symName: __ZNSt3__19allocatorINS_12basic_stringIcNS_11char_traitsIcEENS0_IcEEEEE7destroyB8ue170006EPS5_, symObjAddr: 0xE184, symBinAddr: 0x1000111A0, symSize: 0x28 }
  - { offsetInCU: 0x206E8, offset: 0x206E8, size: 0x8, addend: 0x0, symName: __ZNSt3__119__to_address_helperINS_16reverse_iteratorIPNS_12basic_stringIcNS_11char_traitsIcEENS_9allocatorIcEEEEEEvE6__callB8ue170006ERKS9_, symObjAddr: 0xE1AC, symBinAddr: 0x1000111C8, symSize: 0x38 }
  - { offsetInCU: 0x2070B, offset: 0x2070B, size: 0x8, addend: 0x0, symName: __ZNKSt3__116reverse_iteratorIPNS_12basic_stringIcNS_11char_traitsIcEENS_9allocatorIcEEEEEptB8ue170006Ev, symObjAddr: 0xE1E4, symBinAddr: 0x100011200, symSize: 0x24 }
  - { offsetInCU: 0x20730, offset: 0x20730, size: 0x8, addend: 0x0, symName: __ZNKSt3__116reverse_iteratorIPNS_12basic_stringIcNS_11char_traitsIcEENS_9allocatorIcEEEEEdeB8ue170006Ev, symObjAddr: 0xE208, symBinAddr: 0x100011224, symSize: 0x28 }
  - { offsetInCU: 0x20763, offset: 0x20763, size: 0x8, addend: 0x0, symName: __ZNSt3__116reverse_iteratorIPNS_12basic_stringIcNS_11char_traitsIcEENS_9allocatorIcEEEEEC2B8ue170006ES7_, symObjAddr: 0xE230, symBinAddr: 0x10001124C, symSize: 0x28 }
  - { offsetInCU: 0x2079A, offset: 0x2079A, size: 0x8, addend: 0x0, symName: __ZNSt3__118__unwrap_iter_implIPNS_12basic_stringIcNS_11char_traitsIcEENS_9allocatorIcEEEELb1EE8__unwrapB8ue170006ES7_, symObjAddr: 0xE258, symBinAddr: 0x100011274, symSize: 0x24 }
  - { offsetInCU: 0x207BD, offset: 0x207BD, size: 0x8, addend: 0x0, symName: __ZNSt3__118__unwrap_iter_implIPNS_12basic_stringIcNS_11char_traitsIcEENS_9allocatorIcEEEELb1EE8__rewrapB8ue170006ES7_S7_, symObjAddr: 0xE27C, symBinAddr: 0x100011298, symSize: 0x58 }
  - { offsetInCU: 0x207EE, offset: 0x207EE, size: 0x8, addend: 0x0, symName: __ZNSt3__16vectorINS_12basic_stringIcNS_11char_traitsIcEENS_9allocatorIcEEEENS4_IS6_EEE21_ConstructTransactionD2B8ue170006Ev, symObjAddr: 0xE2D4, symBinAddr: 0x1000112F0, symSize: 0x20 }
  - { offsetInCU: 0x20817, offset: 0x20817, size: 0x8, addend: 0x0, symName: __ZNSt3__128__exception_guard_exceptionsINS_6vectorINS_12basic_stringIcNS_11char_traitsIcEENS_9allocatorIcEEEENS5_IS7_EEE16__destroy_vectorEED2B8ue170006Ev, symObjAddr: 0xE2F4, symBinAddr: 0x100011310, symSize: 0x50 }
  - { offsetInCU: 0x20840, offset: 0x20840, size: 0x8, addend: 0x0, symName: __ZNSt3__16vectorINS_12basic_stringIcNS_11char_traitsIcEENS_9allocatorIcEEEENS4_IS6_EEE16__destroy_vectorclB8ue170006Ev, symObjAddr: 0xE344, symBinAddr: 0x100011360, symSize: 0x90 }
  - { offsetInCU: 0x20865, offset: 0x20865, size: 0x8, addend: 0x0, symName: __ZNSt3__16vectorINS_12basic_stringIcNS_11char_traitsIcEENS_9allocatorIcEEEENS4_IS6_EEE7__clearB8ue170006Ev, symObjAddr: 0xE3D4, symBinAddr: 0x1000113F0, symSize: 0x28 }
  - { offsetInCU: 0x2088A, offset: 0x2088A, size: 0x8, addend: 0x0, symName: __ZNKSt3__16vectorINS_12basic_stringIcNS_11char_traitsIcEENS_9allocatorIcEEEENS4_IS6_EEE17__annotate_deleteB8ue170006Ev, symObjAddr: 0xE3FC, symBinAddr: 0x100011418, symSize: 0xD4 }
  - { offsetInCU: 0x208AF, offset: 0x208AF, size: 0x8, addend: 0x0, symName: __ZNSt3__116allocator_traitsINS_9allocatorINS_12basic_stringIcNS_11char_traitsIcEENS1_IcEEEEEEE10deallocateB8ue170006ERS7_PS6_m, symObjAddr: 0xE4D0, symBinAddr: 0x1000114EC, symSize: 0x34 }
  - { offsetInCU: 0x208F1, offset: 0x208F1, size: 0x8, addend: 0x0, symName: __ZNSt3__16vectorINS_12basic_stringIcNS_11char_traitsIcEENS_9allocatorIcEEEENS4_IS6_EEE22__base_destruct_at_endB8ue170006EPS6_, symObjAddr: 0xE504, symBinAddr: 0x100011520, symSize: 0x8C }
  - { offsetInCU: 0x20934, offset: 0x20934, size: 0x8, addend: 0x0, symName: __ZNKSt3__16vectorINS_12basic_stringIcNS_11char_traitsIcEENS_9allocatorIcEEEENS4_IS6_EEE4sizeB8ue170006Ev, symObjAddr: 0xE590, symBinAddr: 0x1000115AC, symSize: 0x28 }
  - { offsetInCU: 0x20959, offset: 0x20959, size: 0x8, addend: 0x0, symName: __ZNSt3__19allocatorINS_12basic_stringIcNS_11char_traitsIcEENS0_IcEEEEE10deallocateB8ue170006EPS5_m, symObjAddr: 0xE5B8, symBinAddr: 0x1000115D4, symSize: 0x44 }
  - { offsetInCU: 0x2099A, offset: 0x2099A, size: 0x8, addend: 0x0, symName: __ZNSt3__16vectorINS_12basic_stringIcNS_11char_traitsIcEENS_9allocatorIcEEEENS4_IS6_EEED2B8ue170006Ev, symObjAddr: 0xE5FC, symBinAddr: 0x100011618, symSize: 0x40 }
  - { offsetInCU: 0x209C3, offset: 0x209C3, size: 0x8, addend: 0x0, symName: __ZNSt3__16vectorINS_12basic_stringIcNS_11char_traitsIcEENS_9allocatorIcEEEENS4_IS6_EEEC2B8ue170006Ev, symObjAddr: 0xE63C, symBinAddr: 0x100011658, symSize: 0x4C }
  - { offsetInCU: 0x209EC, offset: 0x209EC, size: 0x8, addend: 0x0, symName: __ZNSt3__16vectorINS_12basic_stringIcNS_11char_traitsIcEENS_9allocatorIcEEEENS4_IS6_EEE22__construct_one_at_endB8ue170006IJRKS6_EEEvDpOT_, symObjAddr: 0xE688, symBinAddr: 0x1000116A4, symSize: 0x90 }
  - { offsetInCU: 0x20A39, offset: 0x20A39, size: 0x8, addend: 0x0, symName: __ZNSt3__16vectorINS_12basic_stringIcNS_11char_traitsIcEENS_9allocatorIcEEEENS4_IS6_EEE21__push_back_slow_pathIRKS6_EEvOT_, symObjAddr: 0xE718, symBinAddr: 0x100011734, symSize: 0xD8 }
  - { offsetInCU: 0x20A95, offset: 0x20A95, size: 0x8, addend: 0x0, symName: __ZNKSt3__16vectorINS_12basic_stringIcNS_11char_traitsIcEENS_9allocatorIcEEEENS4_IS6_EEE11__recommendB8ue170006Em, symObjAddr: 0xE7F0, symBinAddr: 0x10001180C, symSize: 0xB4 }
  - { offsetInCU: 0x20AE9, offset: 0x20AE9, size: 0x8, addend: 0x0, symName: __ZNSt3__114__split_bufferINS_12basic_stringIcNS_11char_traitsIcEENS_9allocatorIcEEEERNS4_IS6_EEEC1EmmS8_, symObjAddr: 0xE8A4, symBinAddr: 0x1000118C0, symSize: 0x44 }
  - { offsetInCU: 0x20B3E, offset: 0x20B3E, size: 0x8, addend: 0x0, symName: __ZNSt3__114__split_bufferINS_12basic_stringIcNS_11char_traitsIcEENS_9allocatorIcEEEERNS4_IS6_EEED1Ev, symObjAddr: 0xE9F8, symBinAddr: 0x100011A14, symSize: 0x2C }
  - { offsetInCU: 0x20B69, offset: 0x20B69, size: 0x8, addend: 0x0, symName: __ZNSt3__114__split_bufferINS_12basic_stringIcNS_11char_traitsIcEENS_9allocatorIcEEEERNS4_IS6_EEEC2EmmS8_, symObjAddr: 0xEA24, symBinAddr: 0x100011A40, symSize: 0xE0 }
  - { offsetInCU: 0x20BDC, offset: 0x20BDC, size: 0x8, addend: 0x0, symName: __ZNSt3__117__compressed_pairIPNS_12basic_stringIcNS_11char_traitsIcEENS_9allocatorIcEEEERNS4_IS6_EEEC1B8ue170006IDnS9_EEOT_OT0_, symObjAddr: 0xEB04, symBinAddr: 0x100011B20, symSize: 0x3C }
  - { offsetInCU: 0x20C33, offset: 0x20C33, size: 0x8, addend: 0x0, symName: __ZNSt3__114__split_bufferINS_12basic_stringIcNS_11char_traitsIcEENS_9allocatorIcEEEERNS4_IS6_EEE7__allocB8ue170006Ev, symObjAddr: 0xEB40, symBinAddr: 0x100011B5C, symSize: 0x28 }
  - { offsetInCU: 0x20C58, offset: 0x20C58, size: 0x8, addend: 0x0, symName: __ZNSt3__114__split_bufferINS_12basic_stringIcNS_11char_traitsIcEENS_9allocatorIcEEEERNS4_IS6_EEE9__end_capB8ue170006Ev, symObjAddr: 0xEB68, symBinAddr: 0x100011B84, symSize: 0x28 }
  - { offsetInCU: 0x20C7D, offset: 0x20C7D, size: 0x8, addend: 0x0, symName: __ZNSt3__117__compressed_pairIPNS_12basic_stringIcNS_11char_traitsIcEENS_9allocatorIcEEEERNS4_IS6_EEEC2B8ue170006IDnS9_EEOT_OT0_, symObjAddr: 0xEB90, symBinAddr: 0x100011BAC, symSize: 0x48 }
  - { offsetInCU: 0x20CD4, offset: 0x20CD4, size: 0x8, addend: 0x0, symName: __ZNSt3__122__compressed_pair_elemIRNS_9allocatorINS_12basic_stringIcNS_11char_traitsIcEENS1_IcEEEEEELi1ELb0EEC2B8ue170006IS8_vEEOT_, symObjAddr: 0xEBD8, symBinAddr: 0x100011BF4, symSize: 0x20 }
  - { offsetInCU: 0x20D15, offset: 0x20D15, size: 0x8, addend: 0x0, symName: __ZNSt3__117__compressed_pairIPNS_12basic_stringIcNS_11char_traitsIcEENS_9allocatorIcEEEERNS4_IS6_EEE6secondB8ue170006Ev, symObjAddr: 0xEBF8, symBinAddr: 0x100011C14, symSize: 0x28 }
  - { offsetInCU: 0x20D3A, offset: 0x20D3A, size: 0x8, addend: 0x0, symName: __ZNSt3__122__compressed_pair_elemIRNS_9allocatorINS_12basic_stringIcNS_11char_traitsIcEENS1_IcEEEEEELi1ELb0EE5__getB8ue170006Ev, symObjAddr: 0xEC20, symBinAddr: 0x100011C3C, symSize: 0x18 }
  - { offsetInCU: 0x20D5F, offset: 0x20D5F, size: 0x8, addend: 0x0, symName: __ZNSt3__117__compressed_pairIPNS_12basic_stringIcNS_11char_traitsIcEENS_9allocatorIcEEEERNS4_IS6_EEE5firstB8ue170006Ev, symObjAddr: 0xEC38, symBinAddr: 0x100011C54, symSize: 0x24 }
  - { offsetInCU: 0x20D84, offset: 0x20D84, size: 0x8, addend: 0x0, symName: __ZNSt3__129_AllocatorDestroyRangeReverseINS_9allocatorINS_12basic_stringIcNS_11char_traitsIcEENS1_IcEEEEEENS_16reverse_iteratorIPS6_EEEC1B8ue170006ERS7_RSA_SD_, symObjAddr: 0xEE00, symBinAddr: 0x100011E1C, symSize: 0x44 }
  - { offsetInCU: 0x20DDF, offset: 0x20DDF, size: 0x8, addend: 0x0, symName: __ZNSt3__116allocator_traitsINS_9allocatorINS_12basic_stringIcNS_11char_traitsIcEENS1_IcEEEEEEE9constructB8ue170006IS6_JS6_EvEEvRS7_PT_DpOT0_, symObjAddr: 0xEE44, symBinAddr: 0x100011E60, symSize: 0x34 }
  - { offsetInCU: 0x20E36, offset: 0x20E36, size: 0x8, addend: 0x0, symName: __ZNSt3__128__exception_guard_exceptionsINS_29_AllocatorDestroyRangeReverseINS_9allocatorINS_12basic_stringIcNS_11char_traitsIcEENS2_IcEEEEEENS_16reverse_iteratorIPS7_EEEEE10__completeB8ue170006Ev, symObjAddr: 0xEE78, symBinAddr: 0x100011E94, symSize: 0x1C }
  - { offsetInCU: 0x20E5B, offset: 0x20E5B, size: 0x8, addend: 0x0, symName: __ZNSt3__128__exception_guard_exceptionsINS_29_AllocatorDestroyRangeReverseINS_9allocatorINS_12basic_stringIcNS_11char_traitsIcEENS2_IcEEEEEENS_16reverse_iteratorIPS7_EEEEED1B8ue170006Ev, symObjAddr: 0xEE94, symBinAddr: 0x100011EB0, symSize: 0x2C }
  - { offsetInCU: 0x20E84, offset: 0x20E84, size: 0x8, addend: 0x0, symName: __ZNSt3__128__exception_guard_exceptionsINS_29_AllocatorDestroyRangeReverseINS_9allocatorINS_12basic_stringIcNS_11char_traitsIcEENS2_IcEEEEEENS_16reverse_iteratorIPS7_EEEEEC1B8ue170006ESC_, symObjAddr: 0xEEC0, symBinAddr: 0x100011EDC, symSize: 0x34 }
  - { offsetInCU: 0x20EBC, offset: 0x20EBC, size: 0x8, addend: 0x0, symName: __ZNSt3__128__exception_guard_exceptionsINS_29_AllocatorDestroyRangeReverseINS_9allocatorINS_12basic_stringIcNS_11char_traitsIcEENS2_IcEEEEEENS_16reverse_iteratorIPS7_EEEEEC2B8ue170006ESC_, symObjAddr: 0xEEF4, symBinAddr: 0x100011F10, symSize: 0x30 }
  - { offsetInCU: 0x20EF4, offset: 0x20EF4, size: 0x8, addend: 0x0, symName: __ZNSt3__129_AllocatorDestroyRangeReverseINS_9allocatorINS_12basic_stringIcNS_11char_traitsIcEENS1_IcEEEEEENS_16reverse_iteratorIPS6_EEEC2B8ue170006ERS7_RSA_SD_, symObjAddr: 0xEF24, symBinAddr: 0x100011F40, symSize: 0x38 }
  - { offsetInCU: 0x20F4A, offset: 0x20F4A, size: 0x8, addend: 0x0, symName: __ZNSt3__19allocatorINS_12basic_stringIcNS_11char_traitsIcEENS0_IcEEEEE9constructB8ue170006IS5_JS5_EEEvPT_DpOT0_, symObjAddr: 0xEF5C, symBinAddr: 0x100011F78, symSize: 0x30 }
  - { offsetInCU: 0x20F9F, offset: 0x20F9F, size: 0x8, addend: 0x0, symName: __ZNSt3__128__exception_guard_exceptionsINS_29_AllocatorDestroyRangeReverseINS_9allocatorINS_12basic_stringIcNS_11char_traitsIcEENS2_IcEEEEEENS_16reverse_iteratorIPS7_EEEEED2B8ue170006Ev, symObjAddr: 0xEF8C, symBinAddr: 0x100011FA8, symSize: 0x50 }
  - { offsetInCU: 0x20FC8, offset: 0x20FC8, size: 0x8, addend: 0x0, symName: __ZNKSt3__129_AllocatorDestroyRangeReverseINS_9allocatorINS_12basic_stringIcNS_11char_traitsIcEENS1_IcEEEEEENS_16reverse_iteratorIPS6_EEEclB8ue170006Ev, symObjAddr: 0xEFDC, symBinAddr: 0x100011FF8, symSize: 0xB4 }
  - { offsetInCU: 0x20FEE, offset: 0x20FEE, size: 0x8, addend: 0x0, symName: __ZNSt3__116reverse_iteratorINS0_IPNS_12basic_stringIcNS_11char_traitsIcEENS_9allocatorIcEEEEEEEC1B8ue170006ES8_, symObjAddr: 0xF100, symBinAddr: 0x10001211C, symSize: 0x3C }
  - { offsetInCU: 0x21025, offset: 0x21025, size: 0x8, addend: 0x0, symName: __ZNSt3__116reverse_iteratorINS0_IPNS_12basic_stringIcNS_11char_traitsIcEENS_9allocatorIcEEEEEEEppB8ue170006Ev, symObjAddr: 0xF1C0, symBinAddr: 0x1000121DC, symSize: 0x30 }
  - { offsetInCU: 0x2104A, offset: 0x2104A, size: 0x8, addend: 0x0, symName: __ZNKSt3__116reverse_iteratorINS0_IPNS_12basic_stringIcNS_11char_traitsIcEENS_9allocatorIcEEEEEEE4baseB8ue170006Ev, symObjAddr: 0xF1F0, symBinAddr: 0x10001220C, symSize: 0x24 }
  - { offsetInCU: 0x21074, offset: 0x21074, size: 0x8, addend: 0x0, symName: __ZNSt3__119__to_address_helperINS_16reverse_iteratorINS1_IPNS_12basic_stringIcNS_11char_traitsIcEENS_9allocatorIcEEEEEEEEvE6__callB8ue170006ERKSA_, symObjAddr: 0xF214, symBinAddr: 0x100012230, symSize: 0x38 }
  - { offsetInCU: 0x21097, offset: 0x21097, size: 0x8, addend: 0x0, symName: __ZNKSt3__116reverse_iteratorINS0_IPNS_12basic_stringIcNS_11char_traitsIcEENS_9allocatorIcEEEEEEEptB8ue170006Ev, symObjAddr: 0xF24C, symBinAddr: 0x100012268, symSize: 0x24 }
  - { offsetInCU: 0x210BC, offset: 0x210BC, size: 0x8, addend: 0x0, symName: __ZNKSt3__116reverse_iteratorINS0_IPNS_12basic_stringIcNS_11char_traitsIcEENS_9allocatorIcEEEEEEEdeB8ue170006Ev, symObjAddr: 0xF270, symBinAddr: 0x10001228C, symSize: 0x34 }
  - { offsetInCU: 0x210EF, offset: 0x210EF, size: 0x8, addend: 0x0, symName: __ZNSt3__116reverse_iteratorIPNS_12basic_stringIcNS_11char_traitsIcEENS_9allocatorIcEEEEEmmB8ue170006Ev, symObjAddr: 0xF2A4, symBinAddr: 0x1000122C0, symSize: 0x20 }
  - { offsetInCU: 0x21114, offset: 0x21114, size: 0x8, addend: 0x0, symName: __ZNSt3__116reverse_iteratorINS0_IPNS_12basic_stringIcNS_11char_traitsIcEENS_9allocatorIcEEEEEEEC2B8ue170006ES8_, symObjAddr: 0xF2C4, symBinAddr: 0x1000122E0, symSize: 0x2C }
  - { offsetInCU: 0x2114B, offset: 0x2114B, size: 0x8, addend: 0x0, symName: __ZNSt3__114__split_bufferINS_12basic_stringIcNS_11char_traitsIcEENS_9allocatorIcEEEERNS4_IS6_EEED2Ev, symObjAddr: 0xF2F0, symBinAddr: 0x10001230C, symSize: 0x8C }
  - { offsetInCU: 0x21176, offset: 0x21176, size: 0x8, addend: 0x0, symName: __ZNSt3__114__split_bufferINS_12basic_stringIcNS_11char_traitsIcEENS_9allocatorIcEEEERNS4_IS6_EEE5clearB8ue170006Ev, symObjAddr: 0xF37C, symBinAddr: 0x100012398, symSize: 0x28 }
  - { offsetInCU: 0x2119B, offset: 0x2119B, size: 0x8, addend: 0x0, symName: __ZNKSt3__114__split_bufferINS_12basic_stringIcNS_11char_traitsIcEENS_9allocatorIcEEEERNS4_IS6_EEE8capacityB8ue170006Ev, symObjAddr: 0xF3A4, symBinAddr: 0x1000123C0, symSize: 0x40 }
  - { offsetInCU: 0x211C0, offset: 0x211C0, size: 0x8, addend: 0x0, symName: __ZNSt3__114__split_bufferINS_12basic_stringIcNS_11char_traitsIcEENS_9allocatorIcEEEERNS4_IS6_EEE17__destruct_at_endB8ue170006EPS6_, symObjAddr: 0xF3E4, symBinAddr: 0x100012400, symSize: 0x2C }
  - { offsetInCU: 0x211F2, offset: 0x211F2, size: 0x8, addend: 0x0, symName: __ZNSt3__114__split_bufferINS_12basic_stringIcNS_11char_traitsIcEENS_9allocatorIcEEEERNS4_IS6_EEE17__destruct_at_endB8ue170006EPS6_NS_17integral_constantIbLb0EEE, symObjAddr: 0xF410, symBinAddr: 0x10001242C, symSize: 0x80 }
  - { offsetInCU: 0x21232, offset: 0x21232, size: 0x8, addend: 0x0, symName: __ZNKSt3__114__split_bufferINS_12basic_stringIcNS_11char_traitsIcEENS_9allocatorIcEEEERNS4_IS6_EEE9__end_capB8ue170006Ev, symObjAddr: 0xF490, symBinAddr: 0x1000124AC, symSize: 0x28 }
  - { offsetInCU: 0x21257, offset: 0x21257, size: 0x8, addend: 0x0, symName: __ZNKSt3__117__compressed_pairIPNS_12basic_stringIcNS_11char_traitsIcEENS_9allocatorIcEEEERNS4_IS6_EEE5firstB8ue170006Ev, symObjAddr: 0xF4B8, symBinAddr: 0x1000124D4, symSize: 0x24 }
  - { offsetInCU: 0x2127B, offset: 0x2127B, size: 0x8, addend: 0x0, symName: __ZNKSt3__16vectorINS_12basic_stringIcNS_11char_traitsIcEENS_9allocatorIcEEEENS4_IS6_EEE5beginB8ue170006Ev, symObjAddr: 0xF52C, symBinAddr: 0x100012548, symSize: 0x30 }
  - { offsetInCU: 0x212A1, offset: 0x212A1, size: 0x8, addend: 0x0, symName: __ZNKSt3__16vectorINS_12basic_stringIcNS_11char_traitsIcEENS_9allocatorIcEEEENS4_IS6_EEE3endB8ue170006Ev, symObjAddr: 0xF55C, symBinAddr: 0x100012578, symSize: 0x30 }
  - { offsetInCU: 0x212D2, offset: 0x212D2, size: 0x8, addend: 0x0, symName: __ZNKSt3__110__equal_toclB8ue170006INS_12basic_stringIcNS_11char_traitsIcEENS_9allocatorIcEEEES7_EEbRKT_RKT0_, symObjAddr: 0xF6D8, symBinAddr: 0x1000126F4, symSize: 0x34 }
  - { offsetInCU: 0x21325, offset: 0x21325, size: 0x8, addend: 0x0, symName: __ZNSt3__118__unwrap_iter_implINS_11__wrap_iterIPKNS_12basic_stringIcNS_11char_traitsIcEENS_9allocatorIcEEEEEELb1EE8__unwrapB8ue170006ESA_, symObjAddr: 0xF70C, symBinAddr: 0x100012728, symSize: 0x28 }
  - { offsetInCU: 0x21352, offset: 0x21352, size: 0x8, addend: 0x0, symName: __ZNSt3__119__to_address_helperINS_11__wrap_iterIPKNS_12basic_stringIcNS_11char_traitsIcEENS_9allocatorIcEEEEEEvE6__callB8ue170006ERKSA_, symObjAddr: 0xF758, symBinAddr: 0x100012774, symSize: 0x30 }
  - { offsetInCU: 0x21375, offset: 0x21375, size: 0x8, addend: 0x0, symName: __ZNSt3__114pointer_traitsINS_11__wrap_iterIPKNS_12basic_stringIcNS_11char_traitsIcEENS_9allocatorIcEEEEEEE10to_addressB8ue170006ESA_, symObjAddr: 0xF788, symBinAddr: 0x1000127A4, symSize: 0x2C }
  - { offsetInCU: 0x21398, offset: 0x21398, size: 0x8, addend: 0x0, symName: __ZNKSt3__111__wrap_iterIPKNS_12basic_stringIcNS_11char_traitsIcEENS_9allocatorIcEEEEE4baseB8ue170006Ev, symObjAddr: 0xF7B4, symBinAddr: 0x1000127D0, symSize: 0x18 }
  - { offsetInCU: 0x213BD, offset: 0x213BD, size: 0x8, addend: 0x0, symName: __ZNKSt3__16vectorINS_12basic_stringIcNS_11char_traitsIcEENS_9allocatorIcEEEENS4_IS6_EEE11__make_iterB8ue170006EPKS6_, symObjAddr: 0xF7CC, symBinAddr: 0x1000127E8, symSize: 0x30 }
  - { offsetInCU: 0x213F1, offset: 0x213F1, size: 0x8, addend: 0x0, symName: __ZNSt3__111__wrap_iterIPKNS_12basic_stringIcNS_11char_traitsIcEENS_9allocatorIcEEEEEC1B8ue170006ES8_, symObjAddr: 0xF7FC, symBinAddr: 0x100012818, symSize: 0x34 }
  - { offsetInCU: 0x21428, offset: 0x21428, size: 0x8, addend: 0x0, symName: __ZNSt3__111__wrap_iterIPKNS_12basic_stringIcNS_11char_traitsIcEENS_9allocatorIcEEEEEC2B8ue170006ES8_, symObjAddr: 0xF830, symBinAddr: 0x10001284C, symSize: 0x20 }
...
